

Microchip MPLAB XC8 Assembler V2.46 build 20240104201356 
                                                                                               Mon Nov 10 17:06:39 2025

Microchip MPLAB XC8 C Compiler v2.46 (Free license) build 20240104201356 Og1 
     1                           	processor	16F1936
     2                           	pagewidth 120
     3                           	opt	flic
     4                           	psect	cinit,global,class=CODE,merge=1,delta=2
     5                           	psect	bssBANK0,global,class=BANK0,space=1,delta=1,noexec
     6                           	psect	cstackCOMMON,global,class=COMMON,space=1,delta=1,noexec
     7                           	psect	cstackBANK0,global,class=BANK0,space=1,delta=1,noexec
     8                           	psect	maintext,global,class=CODE,merge=1,split=1,delta=2
     9                           	psect	text1,local,class=CODE,merge=1,delta=2
    10                           	psect	text2,local,class=CODE,merge=1,delta=2
    11                           	psect	text3,local,class=CODE,merge=1,delta=2
    12                           	psect	text4,local,class=CODE,merge=1,delta=2
    13                           	psect	text5,local,class=CODE,merge=1,delta=2
    14                           	psect	text6,local,class=CODE,merge=1,delta=2
    15                           	psect	text7,local,class=CODE,merge=1,delta=2
    16                           	psect	text8,local,class=CODE,merge=1,delta=2
    17                           	psect	text9,local,class=CODE,merge=1,delta=2
    18                           	psect	text10,local,class=CODE,merge=1,delta=2
    19                           	psect	text11,local,class=CODE,merge=1,delta=2
    20                           	psect	text12,local,class=CODE,merge=1,delta=2
    21                           	psect	text13,local,class=CODE,merge=1,delta=2
    22                           	psect	text14,local,class=CODE,merge=1,delta=2
    23                           	psect	text15,local,class=CODE,merge=1,delta=2
    24                           	psect	text16,local,class=CODE,merge=1,delta=2
    25                           	psect	text17,local,class=CODE,merge=1,delta=2
    26                           	psect	text18,local,class=CODE,merge=1,delta=2
    27                           	psect	text19,local,class=CODE,merge=1,delta=2
    28                           	psect	text20,local,class=CODE,merge=1,delta=2
    29                           	psect	text21,local,class=CODE,merge=1,delta=2
    30                           	psect	text22,local,class=CODE,merge=1,delta=2
    31                           	psect	text23,local,class=CODE,merge=1,delta=2
    32                           	psect	text24,local,class=CODE,merge=1,delta=2
    33                           	psect	text25,local,class=CODE,merge=1,delta=2
    34                           	psect	config,global,abs,ovrld,class=CONFIG,space=4,delta=2,noexec
    35                           	dabs	1,0x7E,2
    36     0000                     
    37                           ; Version 2.20
    38                           ; Generated 12/02/2020 GMT
    39                           ; 
    40                           ; Copyright © 2020, Microchip Technology Inc. and its subsidiaries ("Microchip")
    41                           ; All rights reserved.
    42                           ; 
    43                           ; This software is developed by Microchip Technology Inc. and its subsidiaries ("Microch
      +                          ip").
    44                           ; 
    45                           ; Redistribution and use in source and binary forms, with or without modification, are
    46                           ; permitted provided that the following conditions are met:
    47                           ; 
    48                           ;     1. Redistributions of source code must retain the above copyright notice, this lis
      +                          t of
    49                           ;        conditions and the following disclaimer.
    50                           ; 
    51                           ;     2. Redistributions in binary form must reproduce the above copyright notice, this 
      +                          list
    52                           ;        of conditions and the following disclaimer in the documentation and/or other
    53                           ;        materials provided with the distribution.
    54                           ; 
    55                           ;     3. Microchip's name may not be used to endorse or promote products derived from th
      +                          is
    56                           ;        software without specific prior written permission.
    57                           ; 
    58                           ; THIS SOFTWARE IS PROVIDED BY MICROCHIP "AS IS" AND ANY EXPRESS OR IMPLIED WARRANTIES,
    59                           ; INCLUDING, BUT NOT LIMITED TO, THE IMPLIED WARRANTIES OF MERCHANTABILITY AND FITNESS F
      +                          OR
    60                           ; PURPOSE ARE DISCLAIMED.  IN NO EVENT SHALL MICROCHIP BE LIABLE FOR ANY DIRECT, INDIREC
      +                          T,
    61                           ; INCIDENTAL, SPECIAL, EXEMPLARY, OR CONSEQUENTIAL DAMAGES (INCLUDING BUT NOT LIMITED TO
    62                           ; PROCUREMENT OF SUBSTITUTE GOODS OR SERVICES; LOSS OF USE, DATA OR PROFITS; OR BUSINESS
    63                           ; INTERRUPTION) HOWSOEVER CAUSED AND ON ANY THEORY OF LIABILITY, WHETHER IN CONTRACT, ST
      +                          RICT
    64                           ; LIABILITY, OR TORT (INCLUDING NEGLIGENCE OR OTHERWISE) ARISING IN ANY WAY OUT OF THE U
      +                          SE OF
    65                           ; THIS SOFTWARE, EVEN IF ADVISED OF THE POSSIBILITY OF SUCH DAMAGE.
    66                           ; 
    67                           ; 
    68                           ; Code-generator required, PIC16F1936 Definitions
    69                           ; 
    70                           ; SFR Addresses
    71     0000                     	;# 
    72     0001                     	;# 
    73     0002                     	;# 
    74     0003                     	;# 
    75     0004                     	;# 
    76     0005                     	;# 
    77     0006                     	;# 
    78     0007                     	;# 
    79     0008                     	;# 
    80     0009                     	;# 
    81     000A                     	;# 
    82     000B                     	;# 
    83     000C                     	;# 
    84     000D                     	;# 
    85     000E                     	;# 
    86     0010                     	;# 
    87     0011                     	;# 
    88     0012                     	;# 
    89     0013                     	;# 
    90     0015                     	;# 
    91     0016                     	;# 
    92     0016                     	;# 
    93     0017                     	;# 
    94     0018                     	;# 
    95     0019                     	;# 
    96     001A                     	;# 
    97     001B                     	;# 
    98     001C                     	;# 
    99     001E                     	;# 
   100     001F                     	;# 
   101     008C                     	;# 
   102     008D                     	;# 
   103     008E                     	;# 
   104     0090                     	;# 
   105     0091                     	;# 
   106     0092                     	;# 
   107     0093                     	;# 
   108     0095                     	;# 
   109     0096                     	;# 
   110     0097                     	;# 
   111     0098                     	;# 
   112     0099                     	;# 
   113     009A                     	;# 
   114     009B                     	;# 
   115     009B                     	;# 
   116     009C                     	;# 
   117     009D                     	;# 
   118     009E                     	;# 
   119     010C                     	;# 
   120     010D                     	;# 
   121     010E                     	;# 
   122     0110                     	;# 
   123     0111                     	;# 
   124     0112                     	;# 
   125     0113                     	;# 
   126     0114                     	;# 
   127     0115                     	;# 
   128     0116                     	;# 
   129     0117                     	;# 
   130     0118                     	;# 
   131     0119                     	;# 
   132     011A                     	;# 
   133     011B                     	;# 
   134     011D                     	;# 
   135     018C                     	;# 
   136     018D                     	;# 
   137     0191                     	;# 
   138     0191                     	;# 
   139     0192                     	;# 
   140     0193                     	;# 
   141     0193                     	;# 
   142     0193                     	;# 
   143     0194                     	;# 
   144     0195                     	;# 
   145     0196                     	;# 
   146     0199                     	;# 
   147     019A                     	;# 
   148     019B                     	;# 
   149     019B                     	;# 
   150     019B                     	;# 
   151     019B                     	;# 
   152     019C                     	;# 
   153     019C                     	;# 
   154     019D                     	;# 
   155     019E                     	;# 
   156     019F                     	;# 
   157     020D                     	;# 
   158     0210                     	;# 
   159     0211                     	;# 
   160     0212                     	;# 
   161     0213                     	;# 
   162     0214                     	;# 
   163     0215                     	;# 
   164     0215                     	;# 
   165     0216                     	;# 
   166     0217                     	;# 
   167     0291                     	;# 
   168     0291                     	;# 
   169     0292                     	;# 
   170     0293                     	;# 
   171     0294                     	;# 
   172     0295                     	;# 
   173     0295                     	;# 
   174     0296                     	;# 
   175     0298                     	;# 
   176     0298                     	;# 
   177     0299                     	;# 
   178     029A                     	;# 
   179     029B                     	;# 
   180     029C                     	;# 
   181     029C                     	;# 
   182     029D                     	;# 
   183     029E                     	;# 
   184     029F                     	;# 
   185     0311                     	;# 
   186     0311                     	;# 
   187     0312                     	;# 
   188     0313                     	;# 
   189     0314                     	;# 
   190     0315                     	;# 
   191     0315                     	;# 
   192     0316                     	;# 
   193     0318                     	;# 
   194     0318                     	;# 
   195     0319                     	;# 
   196     031A                     	;# 
   197     031C                     	;# 
   198     031C                     	;# 
   199     031D                     	;# 
   200     031E                     	;# 
   201     0394                     	;# 
   202     0395                     	;# 
   203     0396                     	;# 
   204     0415                     	;# 
   205     0416                     	;# 
   206     0417                     	;# 
   207     041C                     	;# 
   208     041D                     	;# 
   209     041E                     	;# 
   210     0791                     	;# 
   211     0792                     	;# 
   212     0793                     	;# 
   213     0794                     	;# 
   214     0795                     	;# 
   215     0798                     	;# 
   216     0799                     	;# 
   217     07A0                     	;# 
   218     07A1                     	;# 
   219     07A3                     	;# 
   220     07A4                     	;# 
   221     07A6                     	;# 
   222     07A7                     	;# 
   223     07A9                     	;# 
   224     07AA                     	;# 
   225     0FE4                     	;# 
   226     0FE5                     	;# 
   227     0FE6                     	;# 
   228     0FE7                     	;# 
   229     0FE8                     	;# 
   230     0FE9                     	;# 
   231     0FEA                     	;# 
   232     0FEB                     	;# 
   233     0FED                     	;# 
   234     0FEE                     	;# 
   235     0FEF                     	;# 
   236     0000                     	;# 
   237     0001                     	;# 
   238     0002                     	;# 
   239     0003                     	;# 
   240     0004                     	;# 
   241     0005                     	;# 
   242     0006                     	;# 
   243     0007                     	;# 
   244     0008                     	;# 
   245     0009                     	;# 
   246     000A                     	;# 
   247     000B                     	;# 
   248     000C                     	;# 
   249     000D                     	;# 
   250     000E                     	;# 
   251     0010                     	;# 
   252     0011                     	;# 
   253     0012                     	;# 
   254     0013                     	;# 
   255     0015                     	;# 
   256     0016                     	;# 
   257     0016                     	;# 
   258     0017                     	;# 
   259     0018                     	;# 
   260     0019                     	;# 
   261     001A                     	;# 
   262     001B                     	;# 
   263     001C                     	;# 
   264     001E                     	;# 
   265     001F                     	;# 
   266     008C                     	;# 
   267     008D                     	;# 
   268     008E                     	;# 
   269     0090                     	;# 
   270     0091                     	;# 
   271     0092                     	;# 
   272     0093                     	;# 
   273     0095                     	;# 
   274     0096                     	;# 
   275     0097                     	;# 
   276     0098                     	;# 
   277     0099                     	;# 
   278     009A                     	;# 
   279     009B                     	;# 
   280     009B                     	;# 
   281     009C                     	;# 
   282     009D                     	;# 
   283     009E                     	;# 
   284     010C                     	;# 
   285     010D                     	;# 
   286     010E                     	;# 
   287     0110                     	;# 
   288     0111                     	;# 
   289     0112                     	;# 
   290     0113                     	;# 
   291     0114                     	;# 
   292     0115                     	;# 
   293     0116                     	;# 
   294     0117                     	;# 
   295     0118                     	;# 
   296     0119                     	;# 
   297     011A                     	;# 
   298     011B                     	;# 
   299     011D                     	;# 
   300     018C                     	;# 
   301     018D                     	;# 
   302     0191                     	;# 
   303     0191                     	;# 
   304     0192                     	;# 
   305     0193                     	;# 
   306     0193                     	;# 
   307     0193                     	;# 
   308     0194                     	;# 
   309     0195                     	;# 
   310     0196                     	;# 
   311     0199                     	;# 
   312     019A                     	;# 
   313     019B                     	;# 
   314     019B                     	;# 
   315     019B                     	;# 
   316     019B                     	;# 
   317     019C                     	;# 
   318     019C                     	;# 
   319     019D                     	;# 
   320     019E                     	;# 
   321     019F                     	;# 
   322     020D                     	;# 
   323     0210                     	;# 
   324     0211                     	;# 
   325     0212                     	;# 
   326     0213                     	;# 
   327     0214                     	;# 
   328     0215                     	;# 
   329     0215                     	;# 
   330     0216                     	;# 
   331     0217                     	;# 
   332     0291                     	;# 
   333     0291                     	;# 
   334     0292                     	;# 
   335     0293                     	;# 
   336     0294                     	;# 
   337     0295                     	;# 
   338     0295                     	;# 
   339     0296                     	;# 
   340     0298                     	;# 
   341     0298                     	;# 
   342     0299                     	;# 
   343     029A                     	;# 
   344     029B                     	;# 
   345     029C                     	;# 
   346     029C                     	;# 
   347     029D                     	;# 
   348     029E                     	;# 
   349     029F                     	;# 
   350     0311                     	;# 
   351     0311                     	;# 
   352     0312                     	;# 
   353     0313                     	;# 
   354     0314                     	;# 
   355     0315                     	;# 
   356     0315                     	;# 
   357     0316                     	;# 
   358     0318                     	;# 
   359     0318                     	;# 
   360     0319                     	;# 
   361     031A                     	;# 
   362     031C                     	;# 
   363     031C                     	;# 
   364     031D                     	;# 
   365     031E                     	;# 
   366     0394                     	;# 
   367     0395                     	;# 
   368     0396                     	;# 
   369     0415                     	;# 
   370     0416                     	;# 
   371     0417                     	;# 
   372     041C                     	;# 
   373     041D                     	;# 
   374     041E                     	;# 
   375     0791                     	;# 
   376     0792                     	;# 
   377     0793                     	;# 
   378     0794                     	;# 
   379     0795                     	;# 
   380     0798                     	;# 
   381     0799                     	;# 
   382     07A0                     	;# 
   383     07A1                     	;# 
   384     07A3                     	;# 
   385     07A4                     	;# 
   386     07A6                     	;# 
   387     07A7                     	;# 
   388     07A9                     	;# 
   389     07AA                     	;# 
   390     0FE4                     	;# 
   391     0FE5                     	;# 
   392     0FE6                     	;# 
   393     0FE7                     	;# 
   394     0FE8                     	;# 
   395     0FE9                     	;# 
   396     0FEA                     	;# 
   397     0FEB                     	;# 
   398     0FED                     	;# 
   399     0FEE                     	;# 
   400     0FEF                     	;# 
   401     0000                     	;# 
   402     0001                     	;# 
   403     0002                     	;# 
   404     0003                     	;# 
   405     0004                     	;# 
   406     0005                     	;# 
   407     0006                     	;# 
   408     0007                     	;# 
   409     0008                     	;# 
   410     0009                     	;# 
   411     000A                     	;# 
   412     000B                     	;# 
   413     000C                     	;# 
   414     000D                     	;# 
   415     000E                     	;# 
   416     0010                     	;# 
   417     0011                     	;# 
   418     0012                     	;# 
   419     0013                     	;# 
   420     0015                     	;# 
   421     0016                     	;# 
   422     0016                     	;# 
   423     0017                     	;# 
   424     0018                     	;# 
   425     0019                     	;# 
   426     001A                     	;# 
   427     001B                     	;# 
   428     001C                     	;# 
   429     001E                     	;# 
   430     001F                     	;# 
   431     008C                     	;# 
   432     008D                     	;# 
   433     008E                     	;# 
   434     0090                     	;# 
   435     0091                     	;# 
   436     0092                     	;# 
   437     0093                     	;# 
   438     0095                     	;# 
   439     0096                     	;# 
   440     0097                     	;# 
   441     0098                     	;# 
   442     0099                     	;# 
   443     009A                     	;# 
   444     009B                     	;# 
   445     009B                     	;# 
   446     009C                     	;# 
   447     009D                     	;# 
   448     009E                     	;# 
   449     010C                     	;# 
   450     010D                     	;# 
   451     010E                     	;# 
   452     0110                     	;# 
   453     0111                     	;# 
   454     0112                     	;# 
   455     0113                     	;# 
   456     0114                     	;# 
   457     0115                     	;# 
   458     0116                     	;# 
   459     0117                     	;# 
   460     0118                     	;# 
   461     0119                     	;# 
   462     011A                     	;# 
   463     011B                     	;# 
   464     011D                     	;# 
   465     018C                     	;# 
   466     018D                     	;# 
   467     0191                     	;# 
   468     0191                     	;# 
   469     0192                     	;# 
   470     0193                     	;# 
   471     0193                     	;# 
   472     0193                     	;# 
   473     0194                     	;# 
   474     0195                     	;# 
   475     0196                     	;# 
   476     0199                     	;# 
   477     019A                     	;# 
   478     019B                     	;# 
   479     019B                     	;# 
   480     019B                     	;# 
   481     019B                     	;# 
   482     019C                     	;# 
   483     019C                     	;# 
   484     019D                     	;# 
   485     019E                     	;# 
   486     019F                     	;# 
   487     020D                     	;# 
   488     0210                     	;# 
   489     0211                     	;# 
   490     0212                     	;# 
   491     0213                     	;# 
   492     0214                     	;# 
   493     0215                     	;# 
   494     0215                     	;# 
   495     0216                     	;# 
   496     0217                     	;# 
   497     0291                     	;# 
   498     0291                     	;# 
   499     0292                     	;# 
   500     0293                     	;# 
   501     0294                     	;# 
   502     0295                     	;# 
   503     0295                     	;# 
   504     0296                     	;# 
   505     0298                     	;# 
   506     0298                     	;# 
   507     0299                     	;# 
   508     029A                     	;# 
   509     029B                     	;# 
   510     029C                     	;# 
   511     029C                     	;# 
   512     029D                     	;# 
   513     029E                     	;# 
   514     029F                     	;# 
   515     0311                     	;# 
   516     0311                     	;# 
   517     0312                     	;# 
   518     0313                     	;# 
   519     0314                     	;# 
   520     0315                     	;# 
   521     0315                     	;# 
   522     0316                     	;# 
   523     0318                     	;# 
   524     0318                     	;# 
   525     0319                     	;# 
   526     031A                     	;# 
   527     031C                     	;# 
   528     031C                     	;# 
   529     031D                     	;# 
   530     031E                     	;# 
   531     0394                     	;# 
   532     0395                     	;# 
   533     0396                     	;# 
   534     0415                     	;# 
   535     0416                     	;# 
   536     0417                     	;# 
   537     041C                     	;# 
   538     041D                     	;# 
   539     041E                     	;# 
   540     0791                     	;# 
   541     0792                     	;# 
   542     0793                     	;# 
   543     0794                     	;# 
   544     0795                     	;# 
   545     0798                     	;# 
   546     0799                     	;# 
   547     07A0                     	;# 
   548     07A1                     	;# 
   549     07A3                     	;# 
   550     07A4                     	;# 
   551     07A6                     	;# 
   552     07A7                     	;# 
   553     07A9                     	;# 
   554     07AA                     	;# 
   555     0FE4                     	;# 
   556     0FE5                     	;# 
   557     0FE6                     	;# 
   558     0FE7                     	;# 
   559     0FE8                     	;# 
   560     0FE9                     	;# 
   561     0FEA                     	;# 
   562     0FEB                     	;# 
   563     0FED                     	;# 
   564     0FEE                     	;# 
   565     0FEF                     	;# 
   566     0000                     	;# 
   567     0001                     	;# 
   568     0002                     	;# 
   569     0003                     	;# 
   570     0004                     	;# 
   571     0005                     	;# 
   572     0006                     	;# 
   573     0007                     	;# 
   574     0008                     	;# 
   575     0009                     	;# 
   576     000A                     	;# 
   577     000B                     	;# 
   578     000C                     	;# 
   579     000D                     	;# 
   580     000E                     	;# 
   581     0010                     	;# 
   582     0011                     	;# 
   583     0012                     	;# 
   584     0013                     	;# 
   585     0015                     	;# 
   586     0016                     	;# 
   587     0016                     	;# 
   588     0017                     	;# 
   589     0018                     	;# 
   590     0019                     	;# 
   591     001A                     	;# 
   592     001B                     	;# 
   593     001C                     	;# 
   594     001E                     	;# 
   595     001F                     	;# 
   596     008C                     	;# 
   597     008D                     	;# 
   598     008E                     	;# 
   599     0090                     	;# 
   600     0091                     	;# 
   601     0092                     	;# 
   602     0093                     	;# 
   603     0095                     	;# 
   604     0096                     	;# 
   605     0097                     	;# 
   606     0098                     	;# 
   607     0099                     	;# 
   608     009A                     	;# 
   609     009B                     	;# 
   610     009B                     	;# 
   611     009C                     	;# 
   612     009D                     	;# 
   613     009E                     	;# 
   614     010C                     	;# 
   615     010D                     	;# 
   616     010E                     	;# 
   617     0110                     	;# 
   618     0111                     	;# 
   619     0112                     	;# 
   620     0113                     	;# 
   621     0114                     	;# 
   622     0115                     	;# 
   623     0116                     	;# 
   624     0117                     	;# 
   625     0118                     	;# 
   626     0119                     	;# 
   627     011A                     	;# 
   628     011B                     	;# 
   629     011D                     	;# 
   630     018C                     	;# 
   631     018D                     	;# 
   632     0191                     	;# 
   633     0191                     	;# 
   634     0192                     	;# 
   635     0193                     	;# 
   636     0193                     	;# 
   637     0193                     	;# 
   638     0194                     	;# 
   639     0195                     	;# 
   640     0196                     	;# 
   641     0199                     	;# 
   642     019A                     	;# 
   643     019B                     	;# 
   644     019B                     	;# 
   645     019B                     	;# 
   646     019B                     	;# 
   647     019C                     	;# 
   648     019C                     	;# 
   649     019D                     	;# 
   650     019E                     	;# 
   651     019F                     	;# 
   652     020D                     	;# 
   653     0210                     	;# 
   654     0211                     	;# 
   655     0212                     	;# 
   656     0213                     	;# 
   657     0214                     	;# 
   658     0215                     	;# 
   659     0215                     	;# 
   660     0216                     	;# 
   661     0217                     	;# 
   662     0291                     	;# 
   663     0291                     	;# 
   664     0292                     	;# 
   665     0293                     	;# 
   666     0294                     	;# 
   667     0295                     	;# 
   668     0295                     	;# 
   669     0296                     	;# 
   670     0298                     	;# 
   671     0298                     	;# 
   672     0299                     	;# 
   673     029A                     	;# 
   674     029B                     	;# 
   675     029C                     	;# 
   676     029C                     	;# 
   677     029D                     	;# 
   678     029E                     	;# 
   679     029F                     	;# 
   680     0311                     	;# 
   681     0311                     	;# 
   682     0312                     	;# 
   683     0313                     	;# 
   684     0314                     	;# 
   685     0315                     	;# 
   686     0315                     	;# 
   687     0316                     	;# 
   688     0318                     	;# 
   689     0318                     	;# 
   690     0319                     	;# 
   691     031A                     	;# 
   692     031C                     	;# 
   693     031C                     	;# 
   694     031D                     	;# 
   695     031E                     	;# 
   696     0394                     	;# 
   697     0395                     	;# 
   698     0396                     	;# 
   699     0415                     	;# 
   700     0416                     	;# 
   701     0417                     	;# 
   702     041C                     	;# 
   703     041D                     	;# 
   704     041E                     	;# 
   705     0791                     	;# 
   706     0792                     	;# 
   707     0793                     	;# 
   708     0794                     	;# 
   709     0795                     	;# 
   710     0798                     	;# 
   711     0799                     	;# 
   712     07A0                     	;# 
   713     07A1                     	;# 
   714     07A3                     	;# 
   715     07A4                     	;# 
   716     07A6                     	;# 
   717     07A7                     	;# 
   718     07A9                     	;# 
   719     07AA                     	;# 
   720     0FE4                     	;# 
   721     0FE5                     	;# 
   722     0FE6                     	;# 
   723     0FE7                     	;# 
   724     0FE8                     	;# 
   725     0FE9                     	;# 
   726     0FEA                     	;# 
   727     0FEB                     	;# 
   728     0FED                     	;# 
   729     0FEE                     	;# 
   730     0FEF                     	;# 
   731     0000                     	;# 
   732     0001                     	;# 
   733     0002                     	;# 
   734     0003                     	;# 
   735     0004                     	;# 
   736     0005                     	;# 
   737     0006                     	;# 
   738     0007                     	;# 
   739     0008                     	;# 
   740     0009                     	;# 
   741     000A                     	;# 
   742     000B                     	;# 
   743     000C                     	;# 
   744     000D                     	;# 
   745     000E                     	;# 
   746     0010                     	;# 
   747     0011                     	;# 
   748     0012                     	;# 
   749     0013                     	;# 
   750     0015                     	;# 
   751     0016                     	;# 
   752     0016                     	;# 
   753     0017                     	;# 
   754     0018                     	;# 
   755     0019                     	;# 
   756     001A                     	;# 
   757     001B                     	;# 
   758     001C                     	;# 
   759     001E                     	;# 
   760     001F                     	;# 
   761     008C                     	;# 
   762     008D                     	;# 
   763     008E                     	;# 
   764     0090                     	;# 
   765     0091                     	;# 
   766     0092                     	;# 
   767     0093                     	;# 
   768     0095                     	;# 
   769     0096                     	;# 
   770     0097                     	;# 
   771     0098                     	;# 
   772     0099                     	;# 
   773     009A                     	;# 
   774     009B                     	;# 
   775     009B                     	;# 
   776     009C                     	;# 
   777     009D                     	;# 
   778     009E                     	;# 
   779     010C                     	;# 
   780     010D                     	;# 
   781     010E                     	;# 
   782     0110                     	;# 
   783     0111                     	;# 
   784     0112                     	;# 
   785     0113                     	;# 
   786     0114                     	;# 
   787     0115                     	;# 
   788     0116                     	;# 
   789     0117                     	;# 
   790     0118                     	;# 
   791     0119                     	;# 
   792     011A                     	;# 
   793     011B                     	;# 
   794     011D                     	;# 
   795     018C                     	;# 
   796     018D                     	;# 
   797     0191                     	;# 
   798     0191                     	;# 
   799     0192                     	;# 
   800     0193                     	;# 
   801     0193                     	;# 
   802     0193                     	;# 
   803     0194                     	;# 
   804     0195                     	;# 
   805     0196                     	;# 
   806     0199                     	;# 
   807     019A                     	;# 
   808     019B                     	;# 
   809     019B                     	;# 
   810     019B                     	;# 
   811     019B                     	;# 
   812     019C                     	;# 
   813     019C                     	;# 
   814     019D                     	;# 
   815     019E                     	;# 
   816     019F                     	;# 
   817     020D                     	;# 
   818     0210                     	;# 
   819     0211                     	;# 
   820     0212                     	;# 
   821     0213                     	;# 
   822     0214                     	;# 
   823     0215                     	;# 
   824     0215                     	;# 
   825     0216                     	;# 
   826     0217                     	;# 
   827     0291                     	;# 
   828     0291                     	;# 
   829     0292                     	;# 
   830     0293                     	;# 
   831     0294                     	;# 
   832     0295                     	;# 
   833     0295                     	;# 
   834     0296                     	;# 
   835     0298                     	;# 
   836     0298                     	;# 
   837     0299                     	;# 
   838     029A                     	;# 
   839     029B                     	;# 
   840     029C                     	;# 
   841     029C                     	;# 
   842     029D                     	;# 
   843     029E                     	;# 
   844     029F                     	;# 
   845     0311                     	;# 
   846     0311                     	;# 
   847     0312                     	;# 
   848     0313                     	;# 
   849     0314                     	;# 
   850     0315                     	;# 
   851     0315                     	;# 
   852     0316                     	;# 
   853     0318                     	;# 
   854     0318                     	;# 
   855     0319                     	;# 
   856     031A                     	;# 
   857     031C                     	;# 
   858     031C                     	;# 
   859     031D                     	;# 
   860     031E                     	;# 
   861     0394                     	;# 
   862     0395                     	;# 
   863     0396                     	;# 
   864     0415                     	;# 
   865     0416                     	;# 
   866     0417                     	;# 
   867     041C                     	;# 
   868     041D                     	;# 
   869     041E                     	;# 
   870     0791                     	;# 
   871     0792                     	;# 
   872     0793                     	;# 
   873     0794                     	;# 
   874     0795                     	;# 
   875     0798                     	;# 
   876     0799                     	;# 
   877     07A0                     	;# 
   878     07A1                     	;# 
   879     07A3                     	;# 
   880     07A4                     	;# 
   881     07A6                     	;# 
   882     07A7                     	;# 
   883     07A9                     	;# 
   884     07AA                     	;# 
   885     0FE4                     	;# 
   886     0FE5                     	;# 
   887     0FE6                     	;# 
   888     0FE7                     	;# 
   889     0FE8                     	;# 
   890     0FE9                     	;# 
   891     0FEA                     	;# 
   892     0FEB                     	;# 
   893     0FED                     	;# 
   894     0FEE                     	;# 
   895     0FEF                     	;# 
   896     0000                     	;# 
   897     0001                     	;# 
   898     0002                     	;# 
   899     0003                     	;# 
   900     0004                     	;# 
   901     0005                     	;# 
   902     0006                     	;# 
   903     0007                     	;# 
   904     0008                     	;# 
   905     0009                     	;# 
   906     000A                     	;# 
   907     000B                     	;# 
   908     000C                     	;# 
   909     000D                     	;# 
   910     000E                     	;# 
   911     0010                     	;# 
   912     0011                     	;# 
   913     0012                     	;# 
   914     0013                     	;# 
   915     0015                     	;# 
   916     0016                     	;# 
   917     0016                     	;# 
   918     0017                     	;# 
   919     0018                     	;# 
   920     0019                     	;# 
   921     001A                     	;# 
   922     001B                     	;# 
   923     001C                     	;# 
   924     001E                     	;# 
   925     001F                     	;# 
   926     008C                     	;# 
   927     008D                     	;# 
   928     008E                     	;# 
   929     0090                     	;# 
   930     0091                     	;# 
   931     0092                     	;# 
   932     0093                     	;# 
   933     0095                     	;# 
   934     0096                     	;# 
   935     0097                     	;# 
   936     0098                     	;# 
   937     0099                     	;# 
   938     009A                     	;# 
   939     009B                     	;# 
   940     009B                     	;# 
   941     009C                     	;# 
   942     009D                     	;# 
   943     009E                     	;# 
   944     010C                     	;# 
   945     010D                     	;# 
   946     010E                     	;# 
   947     0110                     	;# 
   948     0111                     	;# 
   949     0112                     	;# 
   950     0113                     	;# 
   951     0114                     	;# 
   952     0115                     	;# 
   953     0116                     	;# 
   954     0117                     	;# 
   955     0118                     	;# 
   956     0119                     	;# 
   957     011A                     	;# 
   958     011B                     	;# 
   959     011D                     	;# 
   960     018C                     	;# 
   961     018D                     	;# 
   962     0191                     	;# 
   963     0191                     	;# 
   964     0192                     	;# 
   965     0193                     	;# 
   966     0193                     	;# 
   967     0193                     	;# 
   968     0194                     	;# 
   969     0195                     	;# 
   970     0196                     	;# 
   971     0199                     	;# 
   972     019A                     	;# 
   973     019B                     	;# 
   974     019B                     	;# 
   975     019B                     	;# 
   976     019B                     	;# 
   977     019C                     	;# 
   978     019C                     	;# 
   979     019D                     	;# 
   980     019E                     	;# 
   981     019F                     	;# 
   982     020D                     	;# 
   983     0210                     	;# 
   984     0211                     	;# 
   985     0212                     	;# 
   986     0213                     	;# 
   987     0214                     	;# 
   988     0215                     	;# 
   989     0215                     	;# 
   990     0216                     	;# 
   991     0217                     	;# 
   992     0291                     	;# 
   993     0291                     	;# 
   994     0292                     	;# 
   995     0293                     	;# 
   996     0294                     	;# 
   997     0295                     	;# 
   998     0295                     	;# 
   999     0296                     	;# 
  1000     0298                     	;# 
  1001     0298                     	;# 
  1002     0299                     	;# 
  1003     029A                     	;# 
  1004     029B                     	;# 
  1005     029C                     	;# 
  1006     029C                     	;# 
  1007     029D                     	;# 
  1008     029E                     	;# 
  1009     029F                     	;# 
  1010     0311                     	;# 
  1011     0311                     	;# 
  1012     0312                     	;# 
  1013     0313                     	;# 
  1014     0314                     	;# 
  1015     0315                     	;# 
  1016     0315                     	;# 
  1017     0316                     	;# 
  1018     0318                     	;# 
  1019     0318                     	;# 
  1020     0319                     	;# 
  1021     031A                     	;# 
  1022     031C                     	;# 
  1023     031C                     	;# 
  1024     031D                     	;# 
  1025     031E                     	;# 
  1026     0394                     	;# 
  1027     0395                     	;# 
  1028     0396                     	;# 
  1029     0415                     	;# 
  1030     0416                     	;# 
  1031     0417                     	;# 
  1032     041C                     	;# 
  1033     041D                     	;# 
  1034     041E                     	;# 
  1035     0791                     	;# 
  1036     0792                     	;# 
  1037     0793                     	;# 
  1038     0794                     	;# 
  1039     0795                     	;# 
  1040     0798                     	;# 
  1041     0799                     	;# 
  1042     07A0                     	;# 
  1043     07A1                     	;# 
  1044     07A3                     	;# 
  1045     07A4                     	;# 
  1046     07A6                     	;# 
  1047     07A7                     	;# 
  1048     07A9                     	;# 
  1049     07AA                     	;# 
  1050     0FE4                     	;# 
  1051     0FE5                     	;# 
  1052     0FE6                     	;# 
  1053     0FE7                     	;# 
  1054     0FE8                     	;# 
  1055     0FE9                     	;# 
  1056     0FEA                     	;# 
  1057     0FEB                     	;# 
  1058     0FED                     	;# 
  1059     0FEE                     	;# 
  1060     0FEF                     	;# 
  1061     0000                     	;# 
  1062     0001                     	;# 
  1063     0002                     	;# 
  1064     0003                     	;# 
  1065     0004                     	;# 
  1066     0005                     	;# 
  1067     0006                     	;# 
  1068     0007                     	;# 
  1069     0008                     	;# 
  1070     0009                     	;# 
  1071     000A                     	;# 
  1072     000B                     	;# 
  1073     000C                     	;# 
  1074     000D                     	;# 
  1075     000E                     	;# 
  1076     0010                     	;# 
  1077     0011                     	;# 
  1078     0012                     	;# 
  1079     0013                     	;# 
  1080     0015                     	;# 
  1081     0016                     	;# 
  1082     0016                     	;# 
  1083     0017                     	;# 
  1084     0018                     	;# 
  1085     0019                     	;# 
  1086     001A                     	;# 
  1087     001B                     	;# 
  1088     001C                     	;# 
  1089     001E                     	;# 
  1090     001F                     	;# 
  1091     008C                     	;# 
  1092     008D                     	;# 
  1093     008E                     	;# 
  1094     0090                     	;# 
  1095     0091                     	;# 
  1096     0092                     	;# 
  1097     0093                     	;# 
  1098     0095                     	;# 
  1099     0096                     	;# 
  1100     0097                     	;# 
  1101     0098                     	;# 
  1102     0099                     	;# 
  1103     009A                     	;# 
  1104     009B                     	;# 
  1105     009B                     	;# 
  1106     009C                     	;# 
  1107     009D                     	;# 
  1108     009E                     	;# 
  1109     010C                     	;# 
  1110     010D                     	;# 
  1111     010E                     	;# 
  1112     0110                     	;# 
  1113     0111                     	;# 
  1114     0112                     	;# 
  1115     0113                     	;# 
  1116     0114                     	;# 
  1117     0115                     	;# 
  1118     0116                     	;# 
  1119     0117                     	;# 
  1120     0118                     	;# 
  1121     0119                     	;# 
  1122     011A                     	;# 
  1123     011B                     	;# 
  1124     011D                     	;# 
  1125     018C                     	;# 
  1126     018D                     	;# 
  1127     0191                     	;# 
  1128     0191                     	;# 
  1129     0192                     	;# 
  1130     0193                     	;# 
  1131     0193                     	;# 
  1132     0193                     	;# 
  1133     0194                     	;# 
  1134     0195                     	;# 
  1135     0196                     	;# 
  1136     0199                     	;# 
  1137     019A                     	;# 
  1138     019B                     	;# 
  1139     019B                     	;# 
  1140     019B                     	;# 
  1141     019B                     	;# 
  1142     019C                     	;# 
  1143     019C                     	;# 
  1144     019D                     	;# 
  1145     019E                     	;# 
  1146     019F                     	;# 
  1147     020D                     	;# 
  1148     0210                     	;# 
  1149     0211                     	;# 
  1150     0212                     	;# 
  1151     0213                     	;# 
  1152     0214                     	;# 
  1153     0215                     	;# 
  1154     0215                     	;# 
  1155     0216                     	;# 
  1156     0217                     	;# 
  1157     0291                     	;# 
  1158     0291                     	;# 
  1159     0292                     	;# 
  1160     0293                     	;# 
  1161     0294                     	;# 
  1162     0295                     	;# 
  1163     0295                     	;# 
  1164     0296                     	;# 
  1165     0298                     	;# 
  1166     0298                     	;# 
  1167     0299                     	;# 
  1168     029A                     	;# 
  1169     029B                     	;# 
  1170     029C                     	;# 
  1171     029C                     	;# 
  1172     029D                     	;# 
  1173     029E                     	;# 
  1174     029F                     	;# 
  1175     0311                     	;# 
  1176     0311                     	;# 
  1177     0312                     	;# 
  1178     0313                     	;# 
  1179     0314                     	;# 
  1180     0315                     	;# 
  1181     0315                     	;# 
  1182     0316                     	;# 
  1183     0318                     	;# 
  1184     0318                     	;# 
  1185     0319                     	;# 
  1186     031A                     	;# 
  1187     031C                     	;# 
  1188     031C                     	;# 
  1189     031D                     	;# 
  1190     031E                     	;# 
  1191     0394                     	;# 
  1192     0395                     	;# 
  1193     0396                     	;# 
  1194     0415                     	;# 
  1195     0416                     	;# 
  1196     0417                     	;# 
  1197     041C                     	;# 
  1198     041D                     	;# 
  1199     041E                     	;# 
  1200     0791                     	;# 
  1201     0792                     	;# 
  1202     0793                     	;# 
  1203     0794                     	;# 
  1204     0795                     	;# 
  1205     0798                     	;# 
  1206     0799                     	;# 
  1207     07A0                     	;# 
  1208     07A1                     	;# 
  1209     07A3                     	;# 
  1210     07A4                     	;# 
  1211     07A6                     	;# 
  1212     07A7                     	;# 
  1213     07A9                     	;# 
  1214     07AA                     	;# 
  1215     0FE4                     	;# 
  1216     0FE5                     	;# 
  1217     0FE6                     	;# 
  1218     0FE7                     	;# 
  1219     0FE8                     	;# 
  1220     0FE9                     	;# 
  1221     0FEA                     	;# 
  1222     0FEB                     	;# 
  1223     0FED                     	;# 
  1224     0FEE                     	;# 
  1225     0FEF                     	;# 
  1226     0000                     	;# 
  1227     0001                     	;# 
  1228     0002                     	;# 
  1229     0003                     	;# 
  1230     0004                     	;# 
  1231     0005                     	;# 
  1232     0006                     	;# 
  1233     0007                     	;# 
  1234     0008                     	;# 
  1235     0009                     	;# 
  1236     000A                     	;# 
  1237     000B                     	;# 
  1238     000C                     	;# 
  1239     000D                     	;# 
  1240     000E                     	;# 
  1241     0010                     	;# 
  1242     0011                     	;# 
  1243     0012                     	;# 
  1244     0013                     	;# 
  1245     0015                     	;# 
  1246     0016                     	;# 
  1247     0016                     	;# 
  1248     0017                     	;# 
  1249     0018                     	;# 
  1250     0019                     	;# 
  1251     001A                     	;# 
  1252     001B                     	;# 
  1253     001C                     	;# 
  1254     001E                     	;# 
  1255     001F                     	;# 
  1256     008C                     	;# 
  1257     008D                     	;# 
  1258     008E                     	;# 
  1259     0090                     	;# 
  1260     0091                     	;# 
  1261     0092                     	;# 
  1262     0093                     	;# 
  1263     0095                     	;# 
  1264     0096                     	;# 
  1265     0097                     	;# 
  1266     0098                     	;# 
  1267     0099                     	;# 
  1268     009A                     	;# 
  1269     009B                     	;# 
  1270     009B                     	;# 
  1271     009C                     	;# 
  1272     009D                     	;# 
  1273     009E                     	;# 
  1274     010C                     	;# 
  1275     010D                     	;# 
  1276     010E                     	;# 
  1277     0110                     	;# 
  1278     0111                     	;# 
  1279     0112                     	;# 
  1280     0113                     	;# 
  1281     0114                     	;# 
  1282     0115                     	;# 
  1283     0116                     	;# 
  1284     0117                     	;# 
  1285     0118                     	;# 
  1286     0119                     	;# 
  1287     011A                     	;# 
  1288     011B                     	;# 
  1289     011D                     	;# 
  1290     018C                     	;# 
  1291     018D                     	;# 
  1292     0191                     	;# 
  1293     0191                     	;# 
  1294     0192                     	;# 
  1295     0193                     	;# 
  1296     0193                     	;# 
  1297     0193                     	;# 
  1298     0194                     	;# 
  1299     0195                     	;# 
  1300     0196                     	;# 
  1301     0199                     	;# 
  1302     019A                     	;# 
  1303     019B                     	;# 
  1304     019B                     	;# 
  1305     019B                     	;# 
  1306     019B                     	;# 
  1307     019C                     	;# 
  1308     019C                     	;# 
  1309     019D                     	;# 
  1310     019E                     	;# 
  1311     019F                     	;# 
  1312     020D                     	;# 
  1313     0210                     	;# 
  1314     0211                     	;# 
  1315     0212                     	;# 
  1316     0213                     	;# 
  1317     0214                     	;# 
  1318     0215                     	;# 
  1319     0215                     	;# 
  1320     0216                     	;# 
  1321     0217                     	;# 
  1322     0291                     	;# 
  1323     0291                     	;# 
  1324     0292                     	;# 
  1325     0293                     	;# 
  1326     0294                     	;# 
  1327     0295                     	;# 
  1328     0295                     	;# 
  1329     0296                     	;# 
  1330     0298                     	;# 
  1331     0298                     	;# 
  1332     0299                     	;# 
  1333     029A                     	;# 
  1334     029B                     	;# 
  1335     029C                     	;# 
  1336     029C                     	;# 
  1337     029D                     	;# 
  1338     029E                     	;# 
  1339     029F                     	;# 
  1340     0311                     	;# 
  1341     0311                     	;# 
  1342     0312                     	;# 
  1343     0313                     	;# 
  1344     0314                     	;# 
  1345     0315                     	;# 
  1346     0315                     	;# 
  1347     0316                     	;# 
  1348     0318                     	;# 
  1349     0318                     	;# 
  1350     0319                     	;# 
  1351     031A                     	;# 
  1352     031C                     	;# 
  1353     031C                     	;# 
  1354     031D                     	;# 
  1355     031E                     	;# 
  1356     0394                     	;# 
  1357     0395                     	;# 
  1358     0396                     	;# 
  1359     0415                     	;# 
  1360     0416                     	;# 
  1361     0417                     	;# 
  1362     041C                     	;# 
  1363     041D                     	;# 
  1364     041E                     	;# 
  1365     0791                     	;# 
  1366     0792                     	;# 
  1367     0793                     	;# 
  1368     0794                     	;# 
  1369     0795                     	;# 
  1370     0798                     	;# 
  1371     0799                     	;# 
  1372     07A0                     	;# 
  1373     07A1                     	;# 
  1374     07A3                     	;# 
  1375     07A4                     	;# 
  1376     07A6                     	;# 
  1377     07A7                     	;# 
  1378     07A9                     	;# 
  1379     07AA                     	;# 
  1380     0FE4                     	;# 
  1381     0FE5                     	;# 
  1382     0FE6                     	;# 
  1383     0FE7                     	;# 
  1384     0FE8                     	;# 
  1385     0FE9                     	;# 
  1386     0FEA                     	;# 
  1387     0FEB                     	;# 
  1388     0FED                     	;# 
  1389     0FEE                     	;# 
  1390     0FEF                     	;# 
  1391     0000                     	;# 
  1392     0001                     	;# 
  1393     0002                     	;# 
  1394     0003                     	;# 
  1395     0004                     	;# 
  1396     0005                     	;# 
  1397     0006                     	;# 
  1398     0007                     	;# 
  1399     0008                     	;# 
  1400     0009                     	;# 
  1401     000A                     	;# 
  1402     000B                     	;# 
  1403     000C                     	;# 
  1404     000D                     	;# 
  1405     000E                     	;# 
  1406     0010                     	;# 
  1407     0011                     	;# 
  1408     0012                     	;# 
  1409     0013                     	;# 
  1410     0015                     	;# 
  1411     0016                     	;# 
  1412     0016                     	;# 
  1413     0017                     	;# 
  1414     0018                     	;# 
  1415     0019                     	;# 
  1416     001A                     	;# 
  1417     001B                     	;# 
  1418     001C                     	;# 
  1419     001E                     	;# 
  1420     001F                     	;# 
  1421     008C                     	;# 
  1422     008D                     	;# 
  1423     008E                     	;# 
  1424     0090                     	;# 
  1425     0091                     	;# 
  1426     0092                     	;# 
  1427     0093                     	;# 
  1428     0095                     	;# 
  1429     0096                     	;# 
  1430     0097                     	;# 
  1431     0098                     	;# 
  1432     0099                     	;# 
  1433     009A                     	;# 
  1434     009B                     	;# 
  1435     009B                     	;# 
  1436     009C                     	;# 
  1437     009D                     	;# 
  1438     009E                     	;# 
  1439     010C                     	;# 
  1440     010D                     	;# 
  1441     010E                     	;# 
  1442     0110                     	;# 
  1443     0111                     	;# 
  1444     0112                     	;# 
  1445     0113                     	;# 
  1446     0114                     	;# 
  1447     0115                     	;# 
  1448     0116                     	;# 
  1449     0117                     	;# 
  1450     0118                     	;# 
  1451     0119                     	;# 
  1452     011A                     	;# 
  1453     011B                     	;# 
  1454     011D                     	;# 
  1455     018C                     	;# 
  1456     018D                     	;# 
  1457     0191                     	;# 
  1458     0191                     	;# 
  1459     0192                     	;# 
  1460     0193                     	;# 
  1461     0193                     	;# 
  1462     0193                     	;# 
  1463     0194                     	;# 
  1464     0195                     	;# 
  1465     0196                     	;# 
  1466     0199                     	;# 
  1467     019A                     	;# 
  1468     019B                     	;# 
  1469     019B                     	;# 
  1470     019B                     	;# 
  1471     019B                     	;# 
  1472     019C                     	;# 
  1473     019C                     	;# 
  1474     019D                     	;# 
  1475     019E                     	;# 
  1476     019F                     	;# 
  1477     020D                     	;# 
  1478     0210                     	;# 
  1479     0211                     	;# 
  1480     0212                     	;# 
  1481     0213                     	;# 
  1482     0214                     	;# 
  1483     0215                     	;# 
  1484     0215                     	;# 
  1485     0216                     	;# 
  1486     0217                     	;# 
  1487     0291                     	;# 
  1488     0291                     	;# 
  1489     0292                     	;# 
  1490     0293                     	;# 
  1491     0294                     	;# 
  1492     0295                     	;# 
  1493     0295                     	;# 
  1494     0296                     	;# 
  1495     0298                     	;# 
  1496     0298                     	;# 
  1497     0299                     	;# 
  1498     029A                     	;# 
  1499     029B                     	;# 
  1500     029C                     	;# 
  1501     029C                     	;# 
  1502     029D                     	;# 
  1503     029E                     	;# 
  1504     029F                     	;# 
  1505     0311                     	;# 
  1506     0311                     	;# 
  1507     0312                     	;# 
  1508     0313                     	;# 
  1509     0314                     	;# 
  1510     0315                     	;# 
  1511     0315                     	;# 
  1512     0316                     	;# 
  1513     0318                     	;# 
  1514     0318                     	;# 
  1515     0319                     	;# 
  1516     031A                     	;# 
  1517     031C                     	;# 
  1518     031C                     	;# 
  1519     031D                     	;# 
  1520     031E                     	;# 
  1521     0394                     	;# 
  1522     0395                     	;# 
  1523     0396                     	;# 
  1524     0415                     	;# 
  1525     0416                     	;# 
  1526     0417                     	;# 
  1527     041C                     	;# 
  1528     041D                     	;# 
  1529     041E                     	;# 
  1530     0791                     	;# 
  1531     0792                     	;# 
  1532     0793                     	;# 
  1533     0794                     	;# 
  1534     0795                     	;# 
  1535     0798                     	;# 
  1536     0799                     	;# 
  1537     07A0                     	;# 
  1538     07A1                     	;# 
  1539     07A3                     	;# 
  1540     07A4                     	;# 
  1541     07A6                     	;# 
  1542     07A7                     	;# 
  1543     07A9                     	;# 
  1544     07AA                     	;# 
  1545     0FE4                     	;# 
  1546     0FE5                     	;# 
  1547     0FE6                     	;# 
  1548     0FE7                     	;# 
  1549     0FE8                     	;# 
  1550     0FE9                     	;# 
  1551     0FEA                     	;# 
  1552     0FEB                     	;# 
  1553     0FED                     	;# 
  1554     0FEE                     	;# 
  1555     0FEF                     	;# 
  1556     0015                     _TMR0	set	21
  1557     000C                     _PORTAbits	set	12
  1558     000D                     _PORTBbits	set	13
  1559     000E                     _PORTCbits	set	14
  1560     0013                     _PIR3bits	set	19
  1561     001C                     _T2CON	set	28
  1562     0011                     _PIR1bits	set	17
  1563     001A                     _TMR2	set	26
  1564     001B                     _PR2	set	27
  1565     0089                     _TMR2IF	set	137
  1566     0097                     _WDTCON	set	151
  1567     0098                     _OSCTUNE	set	152
  1568     0099                     _OSCCON	set	153
  1569     0095                     _OPTION_REGbits	set	149
  1570     008E                     _TRISC	set	142
  1571     008D                     _TRISB	set	141
  1572     008C                     _TRISA	set	140
  1573     0090                     _TRISE	set	144
  1574     04D6                     _PLLR	set	1238
  1575     010E                     _LATCbits	set	270
  1576     010D                     _LATBbits	set	269
  1577     0116                     _BORCON	set	278
  1578     011D                     _APFCON	set	285
  1579     010E                     _LATC	set	270
  1580     010D                     _LATB	set	269
  1581     010C                     _LATA	set	268
  1582     0110                     _LATE	set	272
  1583     018C                     _ANSELA	set	396
  1584     018D                     _ANSELB	set	397
  1585     020D                     _WPUB	set	525
  1586     0210                     _WPUE	set	528
  1587     029F                     _CCPTMRS1bits	set	671
  1588     031D                     _CCPR5H	set	797
  1589     031C                     _CCPR5L	set	796
  1590     031E                     _CCP5CON	set	798
  1591     041E                     _T6CON	set	1054
  1592     041C                     _TMR6	set	1052
  1593     041D                     _PR6	set	1053
  1594                           
  1595                           	psect	cinit
  1596     07F1                     start_initialization:	
  1597                           ; #config settings
  1598                           
  1599     07F1                     __initialization:
  1600                           
  1601                           ; Clear objects allocated to BANK0
  1602     07F1  0020               	movlb	0	; select bank0
  1603     07F2  01A0               	clrf	__pbssBANK0& (0+127)
  1604     07F3  01A1               	clrf	(__pbssBANK0+1)& (0+127)
  1605     07F4  01A2               	clrf	(__pbssBANK0+2)& (0+127)
  1606     07F5  01A3               	clrf	(__pbssBANK0+3)& (0+127)
  1607     07F6  01A4               	clrf	(__pbssBANK0+4)& (0+127)
  1608     07F7  01A5               	clrf	(__pbssBANK0+5)& (0+127)
  1609     07F8  01A6               	clrf	(__pbssBANK0+6)& (0+127)
  1610     07F9  01A7               	clrf	(__pbssBANK0+7)& (0+127)
  1611     07FA  01A8               	clrf	(__pbssBANK0+8)& (0+127)
  1612     07FB  01A9               	clrf	(__pbssBANK0+9)& (0+127)
  1613     07FC  01AA               	clrf	(__pbssBANK0+10)& (0+127)
  1614     07FD                     end_of_initialization:	
  1615                           ;End of C runtime variable initialization code
  1616                           
  1617     07FD                     __end_of__initialization:
  1618     07FD  0020               	movlb	0
  1619     07FE  3184  2CEC         	ljmp	_main	;jump to C main() function
  1620                           
  1621                           	psect	bssBANK0
  1622     0020                     __pbssBANK0:
  1623     0020                     _T1MS_cnt:
  1624     0020                     	ds	2
  1625     0022                     _fACC:
  1626     0022                     	ds	1
  1627     0023                     _fLoBeam:
  1628     0023                     	ds	1
  1629     0024                     _T5MS_cnt:
  1630     0024                     	ds	1
  1631     0025                     _T100us_cnt1:
  1632     0025                     	ds	1
  1633     0026                     _T100us_cnt:
  1634     0026                     	ds	1
  1635     0027                     _fTurn:
  1636     0027                     	ds	1
  1637     0028                     _T250MS_cnt:
  1638     0028                     	ds	1
  1639     0029                     _mode:
  1640     0029                     	ds	1
  1641     002A                     _fColorSeletDisable:
  1642     002A                     	ds	1
  1643                           
  1644                           	psect	cstackCOMMON
  1645     0070                     __pcstackCOMMON:
  1646     0070                     ?_OSCILLATOR_Initialize:
  1647     0070                     ??_OSCILLATOR_Initialize:	
  1648                           ; 1 bytes @ 0x0
  1649                           
  1650     0070                     ?_WDT_Initialize:	
  1651                           ; 1 bytes @ 0x0
  1652                           
  1653     0070                     ??_WDT_Initialize:	
  1654                           ; 1 bytes @ 0x0
  1655                           
  1656     0070                     ?_TMR6_Initialize:	
  1657                           ; 1 bytes @ 0x0
  1658                           
  1659     0070                     ??_TMR6_Initialize:	
  1660                           ; 1 bytes @ 0x0
  1661                           
  1662     0070                     ?_PWM5_Initialize:	
  1663                           ; 1 bytes @ 0x0
  1664                           
  1665     0070                     ??_PWM5_Initialize:	
  1666                           ; 1 bytes @ 0x0
  1667                           
  1668     0070                     ?_TMR2_Initialize:	
  1669                           ; 1 bytes @ 0x0
  1670                           
  1671     0070                     ??_TMR2_Initialize:	
  1672                           ; 1 bytes @ 0x0
  1673                           
  1674     0070                     ?_Timer_TESTMODE:	
  1675                           ; 1 bytes @ 0x0
  1676                           
  1677     0070                     ??_Timer_TESTMODE:	
  1678                           ; 1 bytes @ 0x0
  1679                           
  1680     0070                     ?_LED_OFF:	
  1681                           ; 1 bytes @ 0x0
  1682                           
  1683     0070                     ?_LED_ON:	
  1684                           ; 1 bytes @ 0x0
  1685                           
  1686     0070                     ?_Streamer_SEG1_TEST:	
  1687                           ; 1 bytes @ 0x0
  1688                           
  1689     0070                     ?_Streamer_SEG2_TEST:	
  1690                           ; 1 bytes @ 0x0
  1691                           
  1692     0070                     ?_LED_SET_Gradually_ON:	
  1693                           ; 1 bytes @ 0x0
  1694                           
  1695     0070                     ?_WelcomeLight:	
  1696                           ; 1 bytes @ 0x0
  1697                           
  1698     0070                     ?_TrunLight:	
  1699                           ; 1 bytes @ 0x0
  1700                           
  1701     0070                     ?_CheckGPIO:	
  1702                           ; 1 bytes @ 0x0
  1703                           
  1704     0070                     ??_CheckGPIO:	
  1705                           ; 1 bytes @ 0x0
  1706                           
  1707     0070                     ?_PIN_MANAGER_Initialize:	
  1708                           ; 1 bytes @ 0x0
  1709                           
  1710     0070                     ??_PIN_MANAGER_Initialize:	
  1711                           ; 1 bytes @ 0x0
  1712                           
  1713     0070                     ?_SYSTEM_Initialize:	
  1714                           ; 1 bytes @ 0x0
  1715                           
  1716     0070                     ??_SYSTEM_Initialize:	
  1717                           ; 1 bytes @ 0x0
  1718                           
  1719     0070                     ?_testmode:	
  1720                           ; 1 bytes @ 0x0
  1721                           
  1722     0070                     ?_todo:	
  1723                           ; 1 bytes @ 0x0
  1724                           
  1725     0070                     ?_PWM_SendData:	
  1726                           ; 1 bytes @ 0x0
  1727                           
  1728     0070                     ??_PWM_SendData:	
  1729                           ; 1 bytes @ 0x0
  1730                           
  1731     0070                     ?_Streamer_SEG1_ON:	
  1732                           ; 1 bytes @ 0x0
  1733                           
  1734     0070                     ?_Streamer_SEG1_OFF:	
  1735                           ; 1 bytes @ 0x0
  1736                           
  1737     0070                     ?_Streamer_SEG2_ON:	
  1738                           ; 1 bytes @ 0x0
  1739                           
  1740     0070                     ?_Timer:	
  1741                           ; 1 bytes @ 0x0
  1742                           
  1743     0070                     ??_Timer:	
  1744                           ; 1 bytes @ 0x0
  1745                           
  1746     0070                     ?_main:	
  1747                           ; 1 bytes @ 0x0
  1748                           
  1749     0070                     PWM_SendData@InputData:	
  1750                           ; 2 bytes @ 0x0
  1751                           
  1752     0070                     WelcomeLight@InputData:	
  1753                           ; 1 bytes @ 0x0
  1754                           
  1755                           
  1756                           ; 1 bytes @ 0x0
  1757     0070                     	ds	1
  1758     0071                     ?_Delay_ms:
  1759     0071                     PWM_SendData@data:	
  1760                           ; 1 bytes @ 0x1
  1761                           
  1762     0071                     Delay_ms@input_ms:	
  1763                           ; 1 bytes @ 0x1
  1764                           
  1765                           
  1766                           ; 2 bytes @ 0x1
  1767     0071                     	ds	1
  1768     0072                     PWM_SendData@bitmask:
  1769                           
  1770                           ; 1 bytes @ 0x2
  1771     0072                     	ds	1
  1772     0073                     ??_Delay_ms:
  1773     0073                     ?_LED_SET:	
  1774                           ; 1 bytes @ 0x3
  1775                           
  1776     0073                     LED_SET@InputData:	
  1777                           ; 1 bytes @ 0x3
  1778                           
  1779     0073                     Delay_ms@ms:	
  1780                           ; 1 bytes @ 0x3
  1781                           
  1782                           
  1783                           ; 2 bytes @ 0x3
  1784     0073                     	ds	1
  1785     0074                     ??_LED_SET:
  1786                           
  1787                           ; 1 bytes @ 0x4
  1788     0074                     	ds	1
  1789     0075                     LED_SET@LED_num:
  1790                           
  1791                           ; 1 bytes @ 0x5
  1792     0075                     	ds	1
  1793     0076                     LED_SET@data:
  1794                           
  1795                           ; 1 bytes @ 0x6
  1796     0076                     	ds	1
  1797     0077                     LED_SET@num:
  1798                           
  1799                           ; 1 bytes @ 0x7
  1800     0077                     	ds	1
  1801     0078                     LED_SET@i:
  1802                           
  1803                           ; 1 bytes @ 0x8
  1804     0078                     	ds	1
  1805     0079                     ??_LED_OFF:
  1806     0079                     ??_LED_ON:	
  1807                           ; 1 bytes @ 0x9
  1808                           
  1809     0079                     ??_Streamer_SEG1_TEST:	
  1810                           ; 1 bytes @ 0x9
  1811                           
  1812     0079                     ??_Streamer_SEG2_TEST:	
  1813                           ; 1 bytes @ 0x9
  1814                           
  1815     0079                     ??_LED_SET_Gradually_ON:	
  1816                           ; 1 bytes @ 0x9
  1817                           
  1818     0079                     ??_TrunLight:	
  1819                           ; 1 bytes @ 0x9
  1820                           
  1821     0079                     ??_Streamer_SEG1_ON:	
  1822                           ; 1 bytes @ 0x9
  1823                           
  1824     0079                     ??_Streamer_SEG1_OFF:	
  1825                           ; 1 bytes @ 0x9
  1826                           
  1827     0079                     ??_Streamer_SEG2_ON:	
  1828                           ; 1 bytes @ 0x9
  1829                           
  1830     0079                     LED_ON@InputData:	
  1831                           ; 1 bytes @ 0x9
  1832                           
  1833                           
  1834                           ; 1 bytes @ 0x9
  1835     0079                     	ds	1
  1836     007A                     LED_ON@data:
  1837     007A                     LED_SET_Gradually_ON@InputData:	
  1838                           ; 1 bytes @ 0xA
  1839                           
  1840     007A                     Streamer_SEG1_ON@InputData:	
  1841                           ; 1 bytes @ 0xA
  1842                           
  1843     007A                     Streamer_SEG1_TEST@InputData:	
  1844                           ; 1 bytes @ 0xA
  1845                           
  1846     007A                     Streamer_SEG1_OFF@InputData:	
  1847                           ; 1 bytes @ 0xA
  1848                           
  1849     007A                     Streamer_SEG2_ON@InputData:	
  1850                           ; 1 bytes @ 0xA
  1851                           
  1852     007A                     Streamer_SEG2_TEST@InputData:	
  1853                           ; 1 bytes @ 0xA
  1854                           
  1855                           
  1856                           ; 1 bytes @ 0xA
  1857     007A                     	ds	1
  1858     007B                     Streamer_SEG1_ON@data:
  1859     007B                     Streamer_SEG1_TEST@data:	
  1860                           ; 1 bytes @ 0xB
  1861                           
  1862     007B                     Streamer_SEG1_OFF@data:	
  1863                           ; 1 bytes @ 0xB
  1864                           
  1865     007B                     Streamer_SEG2_ON@data:	
  1866                           ; 1 bytes @ 0xB
  1867                           
  1868     007B                     Streamer_SEG2_TEST@data:	
  1869                           ; 1 bytes @ 0xB
  1870                           
  1871     007B                     LED_SET_Gradually_ON@j:	
  1872                           ; 1 bytes @ 0xB
  1873                           
  1874                           
  1875                           ; 2 bytes @ 0xB
  1876     007B                     	ds	1
  1877     007C                     Streamer_SEG1_ON@num:
  1878     007C                     Streamer_SEG1_TEST@num:	
  1879                           ; 1 bytes @ 0xC
  1880                           
  1881     007C                     Streamer_SEG1_OFF@num:	
  1882                           ; 1 bytes @ 0xC
  1883                           
  1884     007C                     Streamer_SEG2_ON@num:	
  1885                           ; 1 bytes @ 0xC
  1886                           
  1887     007C                     Streamer_SEG2_TEST@num:	
  1888                           ; 1 bytes @ 0xC
  1889                           
  1890                           
  1891                           ; 1 bytes @ 0xC
  1892     007C                     	ds	1
  1893     007D                     Streamer_SEG1_ON@i:
  1894     007D                     Streamer_SEG1_TEST@i:	
  1895                           ; 1 bytes @ 0xD
  1896                           
  1897     007D                     Streamer_SEG1_OFF@i:	
  1898                           ; 1 bytes @ 0xD
  1899                           
  1900     007D                     Streamer_SEG2_ON@i:	
  1901                           ; 1 bytes @ 0xD
  1902                           
  1903     007D                     Streamer_SEG2_TEST@i:	
  1904                           ; 1 bytes @ 0xD
  1905                           
  1906                           
  1907                           ; 1 bytes @ 0xD
  1908     007D                     	ds	1
  1909     007E                     ??_WelcomeLight:
  1910     007E                     ??_testmode:	
  1911                           ; 1 bytes @ 0xE
  1912                           
  1913     007E                     ??_todo:	
  1914                           ; 1 bytes @ 0xE
  1915                           
  1916     007E                     ??_main:	
  1917                           ; 1 bytes @ 0xE
  1918                           
  1919                           
  1920                           	psect	cstackBANK0
  1921     002B                     __pcstackBANK0:	
  1922                           ; 1 bytes @ 0xE
  1923                           
  1924     002B                     testmode@fTurn_old:
  1925     002B                     TrunLight@InputData:	
  1926                           ; 1 bytes @ 0x0
  1927                           
  1928                           
  1929                           ; 1 bytes @ 0x0
  1930     002B                     	ds	1
  1931     002C                     testmode@mode_old:
  1932     002C                     TrunLight@i:	
  1933                           ; 1 bytes @ 0x1
  1934                           
  1935                           
  1936                           ; 1 bytes @ 0x1
  1937     002C                     	ds	1
  1938     002D                     TrunLight@data:
  1939                           
  1940                           ; 1 bytes @ 0x2
  1941     002D                     	ds	1
  1942     002E                     TrunLight@seg1_num:
  1943                           
  1944                           ; 1 bytes @ 0x3
  1945     002E                     	ds	1
  1946     002F                     TrunLight@seg2_num:
  1947                           
  1948                           ; 1 bytes @ 0x4
  1949     002F                     	ds	1
  1950                           
  1951                           	psect	maintext
  1952     04EC                     __pmaintext:	
  1953 ;;
  1954 ;;Main: autosize = 0, tempsize = 0, incstack = 0, save=0
  1955 ;;
  1956 ;; *************** function _main *****************
  1957 ;; Defined at:
  1958 ;;		line 225 in file "main.c"
  1959 ;; Parameters:    Size  Location     Type
  1960 ;;		None
  1961 ;; Auto vars:     Size  Location     Type
  1962 ;;  UART_CNT        1    0        unsigned char 
  1963 ;; Return value:  Size  Location     Type
  1964 ;;                  2  178[None  ] int 
  1965 ;; Registers used:
  1966 ;;		wreg, status,2, status,0, pclath, cstack
  1967 ;; Tracked objects:
  1968 ;;		On entry : B1F/0
  1969 ;;		On exit  : 0/0
  1970 ;;		Unchanged: 0/0
  1971 ;; Data sizes:     COMMON   BANK0   BANK1   BANK2   BANK3   BANK4   BANK5   BANK6
  1972 ;;      Params:         0       0       0       0       0       0       0       0
  1973 ;;      Locals:         0       0       0       0       0       0       0       0
  1974 ;;      Temps:          0       0       0       0       0       0       0       0
  1975 ;;      Totals:         0       0       0       0       0       0       0       0
  1976 ;;Total ram usage:        0 bytes
  1977 ;; Hardware stack levels required when called: 5
  1978 ;; This function calls:
  1979 ;;		_CheckGPIO
  1980 ;;		_Delay_ms
  1981 ;;		_LED_OFF
  1982 ;;		_SYSTEM_Initialize
  1983 ;;		_TrunLight
  1984 ;;		_testmode
  1985 ;;		_todo
  1986 ;; This function is called by:
  1987 ;;		Startup code after reset
  1988 ;; This function uses a non-reentrant model
  1989 ;;
  1990                           
  1991     04EC                     _main:	
  1992                           ;psect for function _main
  1993                           
  1994     04EC                     l1958:	
  1995                           ;incstack = 0
  1996                           ; Regs used in _main: [wreg+status,2+status,0+pclath+cstack]
  1997                           
  1998     04EC                     l1960:
  1999                           
  2000                           ;main.c: 228:   SYSTEM_Initialize();
  2001     04EC  3183  239A  3184   	fcall	_SYSTEM_Initialize
  2002     04EF                     l1962:
  2003                           
  2004                           ;main.c: 231:   Delay_ms(2);
  2005     04EF  3002               	movlw	2
  2006     04F0  00F1               	movwf	Delay_ms@input_ms
  2007     04F1  3000               	movlw	0
  2008     04F2  00F2               	movwf	Delay_ms@input_ms+1
  2009     04F3  3183  23DE  3184   	fcall	_Delay_ms
  2010     04F6                     l1964:
  2011                           
  2012                           ;main.c: 232:   LED_OFF();
  2013     04F6  3183  238D  3184   	fcall	_LED_OFF
  2014     04F9                     l1966:
  2015                           
  2016                           ;main.c: 233:   if (PORTBbits.RB2 == 1) {
  2017     04F9  0020               	movlb	0	; select bank0
  2018     04FA  1D0D               	btfss	13,2	;volatile
  2019     04FB  2CFD               	goto	u931
  2020     04FC  2CFE               	goto	u930
  2021     04FD                     u931:
  2022     04FD  2D01               	goto	l179
  2023     04FE                     u930:
  2024     04FE                     l1968:
  2025                           
  2026                           ;main.c: 234:     testmode();
  2027     04FE  3187  270E  3184   	fcall	_testmode
  2028     0501                     l179:	
  2029                           ;main.c: 235:   }
  2030                           
  2031                           
  2032                           ;main.c: 248:   todo();
  2033     0501  3183  2355  3184   	fcall	_todo
  2034     0504                     l180:	
  2035                           ;main.c: 249:   while (1) {
  2036                           
  2037                           
  2038                           ;main.c: 251:     CheckGPIO();
  2039     0504  3185  2545  3184   	fcall	_CheckGPIO
  2040     0507                     l1970:
  2041                           
  2042                           ;main.c: 252:     if(fTurn==1){
  2043     0507  0020               	movlb	0	; select bank0
  2044     0508  0327               	decf	_fTurn,w
  2045     0509  1D03               	btfss	3,2
  2046     050A  2D0C               	goto	u941
  2047     050B  2D0D               	goto	u940
  2048     050C                     u941:
  2049     050C  2D12               	goto	l1974
  2050     050D                     u940:
  2051     050D                     l1972:
  2052                           
  2053                           ;main.c: 253:       TrunLight(25);
  2054     050D  3019               	movlw	25
  2055     050E  3186  2681  3184   	fcall	_TrunLight
  2056                           
  2057                           ;main.c: 254:     }
  2058     0511  2D04               	goto	l180
  2059     0512                     l1974:
  2060                           
  2061                           ;main.c: 256:       LED_OFF();
  2062     0512  3183  238D  3184   	fcall	_LED_OFF
  2063     0515  2D04               	goto	l180
  2064     0516  3180  2802         	ljmp	start
  2065     0518                     __end_of_main:
  2066                           
  2067                           	psect	text1
  2068     0355                     __ptext1:	
  2069 ;; *************** function _todo *****************
  2070 ;; Defined at:
  2071 ;;		line 212 in file "main.c"
  2072 ;; Parameters:    Size  Location     Type
  2073 ;;		None
  2074 ;; Auto vars:     Size  Location     Type
  2075 ;;  i               1    0        unsigned char 
  2076 ;; Return value:  Size  Location     Type
  2077 ;;                  1    wreg      void 
  2078 ;; Registers used:
  2079 ;;		wreg, status,2, status,0, pclath, cstack
  2080 ;; Tracked objects:
  2081 ;;		On entry : 0/0
  2082 ;;		On exit  : 0/0
  2083 ;;		Unchanged: 0/0
  2084 ;; Data sizes:     COMMON   BANK0   BANK1   BANK2   BANK3   BANK4   BANK5   BANK6
  2085 ;;      Params:         0       0       0       0       0       0       0       0
  2086 ;;      Locals:         0       0       0       0       0       0       0       0
  2087 ;;      Temps:          0       0       0       0       0       0       0       0
  2088 ;;      Totals:         0       0       0       0       0       0       0       0
  2089 ;;Total ram usage:        0 bytes
  2090 ;; Hardware stack levels used: 1
  2091 ;; Hardware stack levels required when called: 4
  2092 ;; This function calls:
  2093 ;;		_LED_SET_Gradually_ON
  2094 ;;		_TrunLight
  2095 ;;		_WelcomeLight
  2096 ;; This function is called by:
  2097 ;;		_main
  2098 ;; This function uses a non-reentrant model
  2099 ;;
  2100                           
  2101     0355                     _todo:	
  2102                           ;psect for function _todo
  2103                           
  2104     0355                     l1920:	
  2105                           ;incstack = 0
  2106                           ; Regs used in _todo: [wreg+status,2+status,0+pclath+cstack]
  2107                           
  2108     0355                     l174:
  2109     0355  0008               	return
  2110     0356                     __end_of_todo:
  2111                           
  2112                           	psect	text2
  2113     061C                     __ptext2:	
  2114 ;; *************** function _WelcomeLight *****************
  2115 ;; Defined at:
  2116 ;;		line 176 in file "PWM.c"
  2117 ;; Parameters:    Size  Location     Type
  2118 ;;  InputData       1    wreg     unsigned char 
  2119 ;; Auto vars:     Size  Location     Type
  2120 ;;  InputData       1    0[COMMON] unsigned char 
  2121 ;; Return value:  Size  Location     Type
  2122 ;;                  1    wreg      void 
  2123 ;; Registers used:
  2124 ;;		wreg, status,2, status,0, pclath, cstack
  2125 ;; Tracked objects:
  2126 ;;		On entry : 0/0
  2127 ;;		On exit  : 0/0
  2128 ;;		Unchanged: 0/0
  2129 ;; Data sizes:     COMMON   BANK0   BANK1   BANK2   BANK3   BANK4   BANK5   BANK6
  2130 ;;      Params:         0       0       0       0       0       0       0       0
  2131 ;;      Locals:         0       0       0       0       0       0       0       0
  2132 ;;      Temps:          0       0       0       0       0       0       0       0
  2133 ;;      Totals:         0       0       0       0       0       0       0       0
  2134 ;;Total ram usage:        0 bytes
  2135 ;; Hardware stack levels used: 1
  2136 ;; Hardware stack levels required when called: 3
  2137 ;; This function calls:
  2138 ;;		_Delay_ms
  2139 ;;		_LED_OFF
  2140 ;;		_LED_ON
  2141 ;;		_LED_SET_Gradually_ON
  2142 ;;		_Streamer_SEG1_OFF
  2143 ;;		_Streamer_SEG1_ON
  2144 ;;		_Streamer_SEG2_ON
  2145 ;; This function is called by:
  2146 ;;		_todo
  2147 ;; This function uses a non-reentrant model
  2148 ;;
  2149                           
  2150     061C                     _WelcomeLight:	
  2151                           ;psect for function _WelcomeLight
  2152                           
  2153     061C                     l1738:	
  2154                           ;incstack = 0
  2155                           ; Regs used in _WelcomeLight: [wreg+status,2+status,0+pclath+cstack]
  2156                           
  2157                           
  2158                           ;PWM.c: 177:   fColorSeletDisable = 1;
  2159     061C  0020               	movlb	0	; select bank0
  2160     061D  01AA               	clrf	_fColorSeletDisable
  2161     061E  0AAA               	incf	_fColorSeletDisable,f
  2162                           
  2163                           ;PWM.c: 179:   LATCbits.LATC5 = 1;
  2164     061F  0022               	movlb	2	; select bank2
  2165     0620  168E               	bsf	14,5	;volatile
  2166                           
  2167                           ;PWM.c: 180:   LATCbits.LATC4 = 0;
  2168     0621  120E               	bcf	14,4	;volatile
  2169     0622                     l1740:
  2170                           
  2171                           ;PWM.c: 182:   LED_OFF();
  2172     0622  3183  238D  3186   	fcall	_LED_OFF
  2173                           
  2174                           ;PWM.c: 183:   Delay_ms(1);
  2175     0625  3001               	movlw	1
  2176     0626  00F1               	movwf	Delay_ms@input_ms
  2177     0627  3000               	movlw	0
  2178     0628  00F2               	movwf	Delay_ms@input_ms+1
  2179     0629  3183  23DE  3186   	fcall	_Delay_ms
  2180                           
  2181                           ;PWM.c: 185:   Streamer_SEG1_ON(255);
  2182     062C  30FF               	movlw	255
  2183     062D  3184  2494  3186   	fcall	_Streamer_SEG1_ON
  2184                           
  2185                           ;PWM.c: 186:   Delay_ms(250);
  2186     0630  30FA               	movlw	250
  2187     0631  00F1               	movwf	Delay_ms@input_ms
  2188     0632  3000               	movlw	0
  2189     0633  00F2               	movwf	Delay_ms@input_ms+1
  2190     0634  3183  23DE  3186   	fcall	_Delay_ms
  2191                           
  2192                           ;PWM.c: 187:   Streamer_SEG1_OFF(255);
  2193     0637  30FF               	movlw	255
  2194     0638  3184  2441  3186   	fcall	_Streamer_SEG1_OFF
  2195                           
  2196                           ;PWM.c: 188:   Delay_ms(250);
  2197     063B  30FA               	movlw	250
  2198     063C  00F1               	movwf	Delay_ms@input_ms
  2199     063D  3000               	movlw	0
  2200     063E  00F2               	movwf	Delay_ms@input_ms+1
  2201     063F  3183  23DE  3186   	fcall	_Delay_ms
  2202                           
  2203                           ;PWM.c: 190:   Streamer_SEG2_ON(255);
  2204     0642  30FF               	movlw	255
  2205     0643  3184  24C0  3186   	fcall	_Streamer_SEG2_ON
  2206                           
  2207                           ;PWM.c: 191:   Delay_ms(250);
  2208     0646  30FA               	movlw	250
  2209     0647  00F1               	movwf	Delay_ms@input_ms
  2210     0648  3000               	movlw	0
  2211     0649  00F2               	movwf	Delay_ms@input_ms+1
  2212     064A  3183  23DE  3186   	fcall	_Delay_ms
  2213                           
  2214                           ;PWM.c: 192:   LED_OFF();
  2215     064D  3183  238D  3186   	fcall	_LED_OFF
  2216                           
  2217                           ;PWM.c: 193:   Delay_ms(1);
  2218     0650  3001               	movlw	1
  2219     0651  00F1               	movwf	Delay_ms@input_ms
  2220     0652  3000               	movlw	0
  2221     0653  00F2               	movwf	Delay_ms@input_ms+1
  2222     0654  3183  23DE  3186   	fcall	_Delay_ms
  2223                           
  2224                           ;PWM.c: 195:   LED_SET_Gradually_ON(255);
  2225     0657  30FF               	movlw	255
  2226     0658  3183  23F9  3186   	fcall	_LED_SET_Gradually_ON
  2227                           
  2228                           ;PWM.c: 197:   LED_OFF();
  2229     065B  3183  238D  3186   	fcall	_LED_OFF
  2230                           
  2231                           ;PWM.c: 199:   Delay_ms(250);
  2232     065E  30FA               	movlw	250
  2233     065F  00F1               	movwf	Delay_ms@input_ms
  2234     0660  3000               	movlw	0
  2235     0661  00F2               	movwf	Delay_ms@input_ms+1
  2236     0662  3183  23DE  3186   	fcall	_Delay_ms
  2237     0665                     l1742:
  2238                           
  2239                           ;PWM.c: 202:   fColorSeletDisable = 1;
  2240     0665  0020               	movlb	0	; select bank0
  2241     0666  01AA               	clrf	_fColorSeletDisable
  2242     0667  0AAA               	incf	_fColorSeletDisable,f
  2243     0668                     l1744:
  2244                           
  2245                           ;PWM.c: 203:   LATCbits.LATC5 = 0;
  2246     0668  0022               	movlb	2	; select bank2
  2247     0669  128E               	bcf	14,5	;volatile
  2248     066A                     l1746:
  2249                           
  2250                           ;PWM.c: 204:   LATCbits.LATC4 = 1;
  2251     066A  160E               	bsf	14,4	;volatile
  2252                           
  2253                           ;PWM.c: 205:   LED_ON(255);
  2254     066B  30FF               	movlw	255
  2255     066C  3183  236C  3186   	fcall	_LED_ON
  2256                           
  2257                           ;PWM.c: 206:   Delay_ms(1000);
  2258     066F  30E8               	movlw	232
  2259     0670  00F1               	movwf	Delay_ms@input_ms
  2260     0671  3003               	movlw	3
  2261     0672  00F2               	movwf	Delay_ms@input_ms+1
  2262     0673  3183  23DE  3186   	fcall	_Delay_ms
  2263                           
  2264                           ;PWM.c: 207:   LED_OFF();
  2265     0676  3183  238D  3186   	fcall	_LED_OFF
  2266                           
  2267                           ;PWM.c: 208:   Delay_ms(250);
  2268     0679  30FA               	movlw	250
  2269     067A  00F1               	movwf	Delay_ms@input_ms
  2270     067B  3000               	movlw	0
  2271     067C  00F2               	movwf	Delay_ms@input_ms+1
  2272     067D  3183  23DE  3186   	fcall	_Delay_ms
  2273     0680                     l254:
  2274     0680  0008               	return
  2275     0681                     __end_of_WelcomeLight:
  2276                           
  2277                           	psect	text3
  2278     04C0                     __ptext3:	
  2279 ;; *************** function _Streamer_SEG2_ON *****************
  2280 ;; Defined at:
  2281 ;;		line 145 in file "PWM.c"
  2282 ;; Parameters:    Size  Location     Type
  2283 ;;  InputData       1    wreg     unsigned char 
  2284 ;; Auto vars:     Size  Location     Type
  2285 ;;  InputData       1   10[COMMON] unsigned char 
  2286 ;;  i               1   13[COMMON] unsigned char 
  2287 ;;  num             1   12[COMMON] unsigned char 
  2288 ;;  data            1   11[COMMON] unsigned char 
  2289 ;; Return value:  Size  Location     Type
  2290 ;;                  1    wreg      void 
  2291 ;; Registers used:
  2292 ;;		wreg, status,2, status,0, pclath, cstack
  2293 ;; Tracked objects:
  2294 ;;		On entry : 0/0
  2295 ;;		On exit  : 0/0
  2296 ;;		Unchanged: 0/0
  2297 ;; Data sizes:     COMMON   BANK0   BANK1   BANK2   BANK3   BANK4   BANK5   BANK6
  2298 ;;      Params:         0       0       0       0       0       0       0       0
  2299 ;;      Locals:         4       0       0       0       0       0       0       0
  2300 ;;      Temps:          1       0       0       0       0       0       0       0
  2301 ;;      Totals:         5       0       0       0       0       0       0       0
  2302 ;;Total ram usage:        5 bytes
  2303 ;; Hardware stack levels used: 1
  2304 ;; Hardware stack levels required when called: 2
  2305 ;; This function calls:
  2306 ;;		_Delay_ms
  2307 ;;		_LED_SET
  2308 ;; This function is called by:
  2309 ;;		_WelcomeLight
  2310 ;; This function uses a non-reentrant model
  2311 ;;
  2312                           
  2313     04C0                     _Streamer_SEG2_ON:	
  2314                           ;psect for function _Streamer_SEG2_ON
  2315                           
  2316                           
  2317                           ;incstack = 0
  2318                           ; Regs used in _Streamer_SEG2_ON: [wreg+status,2+status,0+pclath+cstack]
  2319                           ;Streamer_SEG2_ON@InputData stored from wreg
  2320     04C0  00FA               	movwf	Streamer_SEG2_ON@InputData
  2321     04C1                     l1590:
  2322                           
  2323                           ;PWM.c: 146:   uint8_t data = InputData;
  2324     04C1  087A               	movf	Streamer_SEG2_ON@InputData,w
  2325     04C2  00FB               	movwf	Streamer_SEG2_ON@data
  2326     04C3                     l1592:
  2327                           
  2328                           ;PWM.c: 147:   uint8_t num = 0;
  2329     04C3  01FC               	clrf	Streamer_SEG2_ON@num
  2330     04C4                     l1594:
  2331                           
  2332                           ;PWM.c: 149:   for (uint8_t i = 0; i < (2 * 3); i++) {
  2333     04C4  01FD               	clrf	Streamer_SEG2_ON@i
  2334     04C5                     l1598:
  2335                           
  2336                           ;PWM.c: 151:     LED_SET((4 * 3), 0x00);
  2337     04C5  01F3               	clrf	LED_SET@InputData
  2338     04C6  300C               	movlw	12
  2339     04C7  3183  23AD  3184   	fcall	_LED_SET
  2340     04CA                     l1600:
  2341                           
  2342                           ;PWM.c: 153:     num += 1;
  2343     04CA  3001               	movlw	1
  2344     04CB  00F9               	movwf	??_Streamer_SEG2_ON
  2345     04CC  0879               	movf	??_Streamer_SEG2_ON,w
  2346     04CD  07FC               	addwf	Streamer_SEG2_ON@num,f
  2347     04CE                     l1602:
  2348                           
  2349                           ;PWM.c: 154:     LED_SET(num, data);
  2350     04CE  087B               	movf	Streamer_SEG2_ON@data,w
  2351     04CF  00F3               	movwf	LED_SET@InputData
  2352     04D0  087C               	movf	Streamer_SEG2_ON@num,w
  2353     04D1  3183  23AD  3184   	fcall	_LED_SET
  2354     04D4                     l1604:
  2355                           
  2356                           ;PWM.c: 155:     LED_SET((2 * 3) - num, 0x00);
  2357     04D4  01F3               	clrf	LED_SET@InputData
  2358     04D5  087C               	movf	Streamer_SEG2_ON@num,w
  2359     04D6  3C06               	sublw	6
  2360     04D7  3183  23AD  3184   	fcall	_LED_SET
  2361     04DA                     l1606:
  2362                           
  2363                           ;PWM.c: 156:     Delay_ms(75);
  2364     04DA  304B               	movlw	75
  2365     04DB  00F1               	movwf	Delay_ms@input_ms
  2366     04DC  3000               	movlw	0
  2367     04DD  00F2               	movwf	Delay_ms@input_ms+1
  2368     04DE  3183  23DE  3184   	fcall	_Delay_ms
  2369                           
  2370                           ;PWM.c: 157:   }
  2371     04E1  3001               	movlw	1
  2372     04E2  00F9               	movwf	??_Streamer_SEG2_ON
  2373     04E3  0879               	movf	??_Streamer_SEG2_ON,w
  2374     04E4  07FD               	addwf	Streamer_SEG2_ON@i,f
  2375     04E5                     l1608:
  2376     04E5  3006               	movlw	6
  2377     04E6  027D               	subwf	Streamer_SEG2_ON@i,w
  2378     04E7  1C03               	skipc
  2379     04E8  2CEA               	goto	u571
  2380     04E9  2CEB               	goto	u570
  2381     04EA                     u571:
  2382     04EA  2CC5               	goto	l1598
  2383     04EB                     u570:
  2384     04EB                     l246:
  2385     04EB  0008               	return
  2386     04EC                     __end_of_Streamer_SEG2_ON:
  2387                           
  2388                           	psect	text4
  2389     0494                     __ptext4:	
  2390 ;; *************** function _Streamer_SEG1_ON *****************
  2391 ;; Defined at:
  2392 ;;		line 98 in file "PWM.c"
  2393 ;; Parameters:    Size  Location     Type
  2394 ;;  InputData       1    wreg     unsigned char 
  2395 ;; Auto vars:     Size  Location     Type
  2396 ;;  InputData       1   10[COMMON] unsigned char 
  2397 ;;  i               1   13[COMMON] unsigned char 
  2398 ;;  num             1   12[COMMON] unsigned char 
  2399 ;;  data            1   11[COMMON] unsigned char 
  2400 ;; Return value:  Size  Location     Type
  2401 ;;                  1    wreg      void 
  2402 ;; Registers used:
  2403 ;;		wreg, status,2, status,0, pclath, cstack
  2404 ;; Tracked objects:
  2405 ;;		On entry : 0/0
  2406 ;;		On exit  : 0/0
  2407 ;;		Unchanged: 0/0
  2408 ;; Data sizes:     COMMON   BANK0   BANK1   BANK2   BANK3   BANK4   BANK5   BANK6
  2409 ;;      Params:         0       0       0       0       0       0       0       0
  2410 ;;      Locals:         4       0       0       0       0       0       0       0
  2411 ;;      Temps:          1       0       0       0       0       0       0       0
  2412 ;;      Totals:         5       0       0       0       0       0       0       0
  2413 ;;Total ram usage:        5 bytes
  2414 ;; Hardware stack levels used: 1
  2415 ;; Hardware stack levels required when called: 2
  2416 ;; This function calls:
  2417 ;;		_Delay_ms
  2418 ;;		_LED_SET
  2419 ;; This function is called by:
  2420 ;;		_WelcomeLight
  2421 ;; This function uses a non-reentrant model
  2422 ;;
  2423                           
  2424     0494                     _Streamer_SEG1_ON:	
  2425                           ;psect for function _Streamer_SEG1_ON
  2426                           
  2427                           
  2428                           ;incstack = 0
  2429                           ; Regs used in _Streamer_SEG1_ON: [wreg+status,2+status,0+pclath+cstack]
  2430                           ;Streamer_SEG1_ON@InputData stored from wreg
  2431     0494  00FA               	movwf	Streamer_SEG1_ON@InputData
  2432     0495                     l1550:
  2433                           
  2434                           ;PWM.c: 99:   uint8_t data = InputData;
  2435     0495  087A               	movf	Streamer_SEG1_ON@InputData,w
  2436     0496  00FB               	movwf	Streamer_SEG1_ON@data
  2437     0497                     l1552:
  2438                           
  2439                           ;PWM.c: 100:   uint8_t num = 0;
  2440     0497  01FC               	clrf	Streamer_SEG1_ON@num
  2441     0498                     l1554:
  2442                           
  2443                           ;PWM.c: 102:   for (uint8_t i = 0; i < (4 * 3); i++) {
  2444     0498  01FD               	clrf	Streamer_SEG1_ON@i
  2445     0499                     l1558:
  2446                           
  2447                           ;PWM.c: 103:     num += 1;
  2448     0499  3001               	movlw	1
  2449     049A  00F9               	movwf	??_Streamer_SEG1_ON
  2450     049B  0879               	movf	??_Streamer_SEG1_ON,w
  2451     049C  07FC               	addwf	Streamer_SEG1_ON@num,f
  2452     049D                     l1560:
  2453                           
  2454                           ;PWM.c: 105:     LED_SET(num, data);
  2455     049D  087B               	movf	Streamer_SEG1_ON@data,w
  2456     049E  00F3               	movwf	LED_SET@InputData
  2457     049F  087C               	movf	Streamer_SEG1_ON@num,w
  2458     04A0  3183  23AD  3184   	fcall	_LED_SET
  2459     04A3                     l1562:
  2460                           
  2461                           ;PWM.c: 106:     LED_SET((4 * 3) - num, 0x00);
  2462     04A3  01F3               	clrf	LED_SET@InputData
  2463     04A4  087C               	movf	Streamer_SEG1_ON@num,w
  2464     04A5  3C0C               	sublw	12
  2465     04A6  3183  23AD  3184   	fcall	_LED_SET
  2466     04A9                     l1564:
  2467                           
  2468                           ;PWM.c: 108:     LED_SET((2 * 3), 0x00);
  2469     04A9  01F3               	clrf	LED_SET@InputData
  2470     04AA  3006               	movlw	6
  2471     04AB  3183  23AD  3184   	fcall	_LED_SET
  2472     04AE                     l1566:
  2473                           
  2474                           ;PWM.c: 109:     Delay_ms(75);
  2475     04AE  304B               	movlw	75
  2476     04AF  00F1               	movwf	Delay_ms@input_ms
  2477     04B0  3000               	movlw	0
  2478     04B1  00F2               	movwf	Delay_ms@input_ms+1
  2479     04B2  3183  23DE  3184   	fcall	_Delay_ms
  2480                           
  2481                           ;PWM.c: 110:   }
  2482     04B5  3001               	movlw	1
  2483     04B6  00F9               	movwf	??_Streamer_SEG1_ON
  2484     04B7  0879               	movf	??_Streamer_SEG1_ON,w
  2485     04B8  07FD               	addwf	Streamer_SEG1_ON@i,f
  2486     04B9                     l1568:
  2487     04B9  300C               	movlw	12
  2488     04BA  027D               	subwf	Streamer_SEG1_ON@i,w
  2489     04BB  1C03               	skipc
  2490     04BC  2CBE               	goto	u551
  2491     04BD  2CBF               	goto	u550
  2492     04BE                     u551:
  2493     04BE  2C99               	goto	l1558
  2494     04BF                     u550:
  2495     04BF                     l231:
  2496     04BF  0008               	return
  2497     04C0                     __end_of_Streamer_SEG1_ON:
  2498                           
  2499                           	psect	text5
  2500     0441                     __ptext5:	
  2501 ;; *************** function _Streamer_SEG1_OFF *****************
  2502 ;; Defined at:
  2503 ;;		line 129 in file "PWM.c"
  2504 ;; Parameters:    Size  Location     Type
  2505 ;;  InputData       1    wreg     unsigned char 
  2506 ;; Auto vars:     Size  Location     Type
  2507 ;;  InputData       1   10[COMMON] unsigned char 
  2508 ;;  i               1   13[COMMON] unsigned char 
  2509 ;;  num             1   12[COMMON] unsigned char 
  2510 ;;  data            1   11[COMMON] unsigned char 
  2511 ;; Return value:  Size  Location     Type
  2512 ;;                  1    wreg      void 
  2513 ;; Registers used:
  2514 ;;		wreg, status,2, status,0, pclath, cstack
  2515 ;; Tracked objects:
  2516 ;;		On entry : 0/0
  2517 ;;		On exit  : 0/0
  2518 ;;		Unchanged: 0/0
  2519 ;; Data sizes:     COMMON   BANK0   BANK1   BANK2   BANK3   BANK4   BANK5   BANK6
  2520 ;;      Params:         0       0       0       0       0       0       0       0
  2521 ;;      Locals:         4       0       0       0       0       0       0       0
  2522 ;;      Temps:          1       0       0       0       0       0       0       0
  2523 ;;      Totals:         5       0       0       0       0       0       0       0
  2524 ;;Total ram usage:        5 bytes
  2525 ;; Hardware stack levels used: 1
  2526 ;; Hardware stack levels required when called: 2
  2527 ;; This function calls:
  2528 ;;		_Delay_ms
  2529 ;;		_LED_SET
  2530 ;; This function is called by:
  2531 ;;		_WelcomeLight
  2532 ;; This function uses a non-reentrant model
  2533 ;;
  2534                           
  2535     0441                     _Streamer_SEG1_OFF:	
  2536                           ;psect for function _Streamer_SEG1_OFF
  2537                           
  2538                           
  2539                           ;incstack = 0
  2540                           ; Regs used in _Streamer_SEG1_OFF: [wreg+status,2+status,0+pclath+cstack]
  2541                           ;Streamer_SEG1_OFF@InputData stored from wreg
  2542     0441  00FA               	movwf	Streamer_SEG1_OFF@InputData
  2543     0442                     l1570:
  2544                           
  2545                           ;PWM.c: 130:   uint8_t data = InputData;
  2546     0442  087A               	movf	Streamer_SEG1_OFF@InputData,w
  2547     0443  00FB               	movwf	Streamer_SEG1_OFF@data
  2548     0444                     l1572:
  2549                           
  2550                           ;PWM.c: 131:   uint8_t num = 0;
  2551     0444  01FC               	clrf	Streamer_SEG1_OFF@num
  2552     0445                     l1574:
  2553                           
  2554                           ;PWM.c: 133:   for (uint8_t i = 0; i < (4 * 3); i++) {
  2555     0445  01FD               	clrf	Streamer_SEG1_OFF@i
  2556     0446                     l1578:
  2557                           
  2558                           ;PWM.c: 134:     num += 1;
  2559     0446  3001               	movlw	1
  2560     0447  00F9               	movwf	??_Streamer_SEG1_OFF
  2561     0448  0879               	movf	??_Streamer_SEG1_OFF,w
  2562     0449  07FC               	addwf	Streamer_SEG1_OFF@num,f
  2563     044A                     l1580:
  2564                           
  2565                           ;PWM.c: 136:     LED_SET((4 * 3) - num, data);
  2566     044A  087B               	movf	Streamer_SEG1_OFF@data,w
  2567     044B  00F3               	movwf	LED_SET@InputData
  2568     044C  087C               	movf	Streamer_SEG1_OFF@num,w
  2569     044D  3C0C               	sublw	12
  2570     044E  3183  23AD  3184   	fcall	_LED_SET
  2571     0451                     l1582:
  2572                           
  2573                           ;PWM.c: 137:     LED_SET(num, 0x00);
  2574     0451  01F3               	clrf	LED_SET@InputData
  2575     0452  087C               	movf	Streamer_SEG1_OFF@num,w
  2576     0453  3183  23AD  3184   	fcall	_LED_SET
  2577     0456                     l1584:
  2578                           
  2579                           ;PWM.c: 140:     Delay_ms(75);
  2580     0456  304B               	movlw	75
  2581     0457  00F1               	movwf	Delay_ms@input_ms
  2582     0458  3000               	movlw	0
  2583     0459  00F2               	movwf	Delay_ms@input_ms+1
  2584     045A  3183  23DE  3184   	fcall	_Delay_ms
  2585     045D                     l1586:
  2586                           
  2587                           ;PWM.c: 141:   }
  2588     045D  3001               	movlw	1
  2589     045E  00F9               	movwf	??_Streamer_SEG1_OFF
  2590     045F  0879               	movf	??_Streamer_SEG1_OFF,w
  2591     0460  07FD               	addwf	Streamer_SEG1_OFF@i,f
  2592     0461                     l1588:
  2593     0461  300C               	movlw	12
  2594     0462  027D               	subwf	Streamer_SEG1_OFF@i,w
  2595     0463  1C03               	skipc
  2596     0464  2C66               	goto	u561
  2597     0465  2C67               	goto	u560
  2598     0466                     u561:
  2599     0466  2C46               	goto	l1578
  2600     0467                     u560:
  2601     0467                     l241:
  2602     0467  0008               	return
  2603     0468                     __end_of_Streamer_SEG1_OFF:
  2604                           
  2605                           	psect	text6
  2606     03F9                     __ptext6:	
  2607 ;; *************** function _LED_SET_Gradually_ON *****************
  2608 ;; Defined at:
  2609 ;;		line 86 in file "PWM.c"
  2610 ;; Parameters:    Size  Location     Type
  2611 ;;  InputData       1    wreg     unsigned char 
  2612 ;; Auto vars:     Size  Location     Type
  2613 ;;  InputData       1   10[COMMON] unsigned char 
  2614 ;;  j               2   11[COMMON] int 
  2615 ;;  temp            2    0        int 
  2616 ;;  brighten        1    0        unsigned char 
  2617 ;;  data            1    0        unsigned char 
  2618 ;; Return value:  Size  Location     Type
  2619 ;;                  1    wreg      void 
  2620 ;; Registers used:
  2621 ;;		wreg, status,2, status,0, pclath, cstack
  2622 ;; Tracked objects:
  2623 ;;		On entry : 0/0
  2624 ;;		On exit  : 0/0
  2625 ;;		Unchanged: 0/0
  2626 ;; Data sizes:     COMMON   BANK0   BANK1   BANK2   BANK3   BANK4   BANK5   BANK6
  2627 ;;      Params:         0       0       0       0       0       0       0       0
  2628 ;;      Locals:         3       0       0       0       0       0       0       0
  2629 ;;      Temps:          1       0       0       0       0       0       0       0
  2630 ;;      Totals:         4       0       0       0       0       0       0       0
  2631 ;;Total ram usage:        4 bytes
  2632 ;; Hardware stack levels used: 1
  2633 ;; Hardware stack levels required when called: 2
  2634 ;; This function calls:
  2635 ;;		_Delay_ms
  2636 ;;		_LED_SET
  2637 ;; This function is called by:
  2638 ;;		_todo
  2639 ;;		_WelcomeLight
  2640 ;; This function uses a non-reentrant model
  2641 ;;
  2642                           
  2643     03F9                     _LED_SET_Gradually_ON:	
  2644                           ;psect for function _LED_SET_Gradually_ON
  2645                           
  2646                           
  2647                           ;incstack = 0
  2648                           ; Regs used in _LED_SET_Gradually_ON: [wreg+status,2+status,0+pclath+cstack]
  2649                           ;LED_SET_Gradually_ON@InputData stored from wreg
  2650     03F9  00FA               	movwf	LED_SET_Gradually_ON@InputData
  2651     03FA                     l1536:
  2652     03FA                     l1538:
  2653     03FA                     l1540:
  2654                           
  2655                           ;PWM.c: 90:   for (int j = 0; j < 250; j += 1) {
  2656     03FA  01FB               	clrf	LED_SET_Gradually_ON@j
  2657     03FB  01FC               	clrf	LED_SET_Gradually_ON@j+1
  2658     03FC                     l1544:
  2659                           
  2660                           ;PWM.c: 91:     LED_SET(((4 * 3) + (2 * 3)), (uint8_t)(j & 0xFF));
  2661     03FC  087B               	movf	LED_SET_Gradually_ON@j,w
  2662     03FD  00F3               	movwf	LED_SET@InputData
  2663     03FE  3012               	movlw	18
  2664     03FF  3183  23AD  3183   	fcall	_LED_SET
  2665                           
  2666                           ;PWM.c: 92:     Delay_ms(12);
  2667     0402  300C               	movlw	12
  2668     0403  00F1               	movwf	Delay_ms@input_ms
  2669     0404  3000               	movlw	0
  2670     0405  00F2               	movwf	Delay_ms@input_ms+1
  2671     0406  3183  23DE  3183   	fcall	_Delay_ms
  2672     0409                     l1546:
  2673                           
  2674                           ;PWM.c: 93:   }
  2675     0409  3001               	movlw	1
  2676     040A  07FB               	addwf	LED_SET_Gradually_ON@j,f
  2677     040B  3000               	movlw	0
  2678     040C  3DFC               	addwfc	LED_SET_Gradually_ON@j+1,f
  2679     040D                     l1548:
  2680     040D  087C               	movf	LED_SET_Gradually_ON@j+1,w
  2681     040E  3A80               	xorlw	128
  2682     040F  00F9               	movwf	??_LED_SET_Gradually_ON
  2683     0410  3080               	movlw	128
  2684     0411  0279               	subwf	??_LED_SET_Gradually_ON,w
  2685     0412  1D03               	skipz
  2686     0413  2C16               	goto	u545
  2687     0414  30FA               	movlw	250
  2688     0415  027B               	subwf	LED_SET_Gradually_ON@j,w
  2689     0416                     u545:
  2690     0416  1C03               	skipc
  2691     0417  2C19               	goto	u541
  2692     0418  2C1A               	goto	u540
  2693     0419                     u541:
  2694     0419  2BFC               	goto	l1544
  2695     041A                     u540:
  2696     041A                     l226:
  2697     041A  0008               	return
  2698     041B                     __end_of_LED_SET_Gradually_ON:
  2699                           
  2700                           	psect	text7
  2701     0681                     __ptext7:	
  2702 ;; *************** function _TrunLight *****************
  2703 ;; Defined at:
  2704 ;;		line 213 in file "PWM.c"
  2705 ;; Parameters:    Size  Location     Type
  2706 ;;  InputData       1    wreg     unsigned char 
  2707 ;; Auto vars:     Size  Location     Type
  2708 ;;  InputData       1    0[BANK0 ] unsigned char 
  2709 ;;  i               1    1[BANK0 ] unsigned char 
  2710 ;;  seg2_num        1    4[BANK0 ] unsigned char 
  2711 ;;  seg1_num        1    3[BANK0 ] unsigned char 
  2712 ;;  data            1    2[BANK0 ] unsigned char 
  2713 ;; Return value:  Size  Location     Type
  2714 ;;                  1    wreg      void 
  2715 ;; Registers used:
  2716 ;;		wreg, status,2, status,0, pclath, cstack
  2717 ;; Tracked objects:
  2718 ;;		On entry : 0/0
  2719 ;;		On exit  : 0/0
  2720 ;;		Unchanged: 0/0
  2721 ;; Data sizes:     COMMON   BANK0   BANK1   BANK2   BANK3   BANK4   BANK5   BANK6
  2722 ;;      Params:         0       0       0       0       0       0       0       0
  2723 ;;      Locals:         0       5       0       0       0       0       0       0
  2724 ;;      Temps:          1       0       0       0       0       0       0       0
  2725 ;;      Totals:         1       5       0       0       0       0       0       0
  2726 ;;Total ram usage:        6 bytes
  2727 ;; Hardware stack levels used: 1
  2728 ;; Hardware stack levels required when called: 3
  2729 ;; This function calls:
  2730 ;;		_Delay_ms
  2731 ;;		_LED_OFF
  2732 ;;		_LED_SET
  2733 ;; This function is called by:
  2734 ;;		_todo
  2735 ;;		_main
  2736 ;; This function uses a non-reentrant model
  2737 ;;
  2738                           
  2739     0681                     _TrunLight:	
  2740                           ;psect for function _TrunLight
  2741                           
  2742                           
  2743                           ;incstack = 0
  2744                           ; Regs used in _TrunLight: [wreg+status,2+status,0+pclath+cstack]
  2745                           ;TrunLight@InputData stored from wreg
  2746     0681  0020               	movlb	0	; select bank0
  2747     0682  00AB               	movwf	TrunLight@InputData
  2748     0683                     l1748:
  2749                           
  2750                           ;PWM.c: 214:   uint8_t data = InputData;
  2751     0683  082B               	movf	TrunLight@InputData,w
  2752     0684  00AD               	movwf	TrunLight@data
  2753     0685                     l1750:
  2754                           
  2755                           ;PWM.c: 215:   uint8_t seg1_num = 0;
  2756     0685  01AE               	clrf	TrunLight@seg1_num
  2757     0686                     l1752:
  2758                           
  2759                           ;PWM.c: 216:   uint8_t seg2_num = 1;
  2760     0686  01AF               	clrf	TrunLight@seg2_num
  2761     0687  0AAF               	incf	TrunLight@seg2_num,f
  2762     0688                     l1754:
  2763                           
  2764                           ;PWM.c: 217:   fColorSeletDisable = 1;
  2765     0688  01AA               	clrf	_fColorSeletDisable
  2766     0689  0AAA               	incf	_fColorSeletDisable,f
  2767     068A                     l1756:
  2768                           
  2769                           ;PWM.c: 219:   LATCbits.LATC5 = 1;
  2770     068A  0022               	movlb	2	; select bank2
  2771     068B  168E               	bsf	14,5	;volatile
  2772     068C                     l1758:
  2773                           
  2774                           ;PWM.c: 220:   LATCbits.LATC4 = 0;
  2775     068C  120E               	bcf	14,4	;volatile
  2776     068D                     l1760:
  2777                           
  2778                           ;PWM.c: 222:   LED_OFF();
  2779     068D  3183  238D  3186   	fcall	_LED_OFF
  2780     0690                     l1762:
  2781                           
  2782                           ;PWM.c: 223:   Delay_ms(1);
  2783     0690  3001               	movlw	1
  2784     0691  00F1               	movwf	Delay_ms@input_ms
  2785     0692  3000               	movlw	0
  2786     0693  00F2               	movwf	Delay_ms@input_ms+1
  2787     0694  3183  23DE  3186   	fcall	_Delay_ms
  2788     0697                     l1764:
  2789                           
  2790                           ;PWM.c: 225:   LED_SET(seg1_num, data);
  2791     0697  0020               	movlb	0	; select bank0
  2792     0698  082D               	movf	TrunLight@data,w
  2793     0699  00F3               	movwf	LED_SET@InputData
  2794     069A  3000               	movlw	0
  2795     069B  3183  23AD  3186   	fcall	_LED_SET
  2796     069E                     l1766:
  2797                           
  2798                           ;PWM.c: 226:   LED_SET((4 * 3) - seg1_num, 0x00);
  2799     069E  01F3               	clrf	LED_SET@InputData
  2800     069F  300C               	movlw	12
  2801     06A0  3183  23AD  3186   	fcall	_LED_SET
  2802     06A3                     l1768:
  2803                           
  2804                           ;PWM.c: 227:   LED_SET(seg2_num, data);
  2805     06A3  0020               	movlb	0	; select bank0
  2806     06A4  082D               	movf	TrunLight@data,w
  2807     06A5  00F3               	movwf	LED_SET@InputData
  2808     06A6  3001               	movlw	1
  2809     06A7  3183  23AD  3186   	fcall	_LED_SET
  2810     06AA                     l1770:
  2811                           
  2812                           ;PWM.c: 228:   LED_SET((2 * 3) - seg2_num, 0x00);
  2813     06AA  01F3               	clrf	LED_SET@InputData
  2814     06AB  3005               	movlw	5
  2815     06AC  3183  23AD  3186   	fcall	_LED_SET
  2816     06AF                     l1772:
  2817                           
  2818                           ;PWM.c: 229:   Delay_ms(50);
  2819     06AF  3032               	movlw	50
  2820     06B0  00F1               	movwf	Delay_ms@input_ms
  2821     06B1  3000               	movlw	0
  2822     06B2  00F2               	movwf	Delay_ms@input_ms+1
  2823     06B3  3183  23DE  3186   	fcall	_Delay_ms
  2824     06B6                     l1774:
  2825                           
  2826                           ;PWM.c: 232:   for (uint8_t i = 0; i < (2 * 3) - 2; i++) {
  2827     06B6  0020               	movlb	0	; select bank0
  2828     06B7  01AC               	clrf	TrunLight@i
  2829     06B8                     l1780:
  2830                           
  2831                           ;PWM.c: 233:     seg1_num += 1;
  2832     06B8  3001               	movlw	1
  2833     06B9  00F9               	movwf	??_TrunLight
  2834     06BA  0879               	movf	??_TrunLight,w
  2835     06BB  07AE               	addwf	TrunLight@seg1_num,f
  2836                           
  2837                           ;PWM.c: 234:     seg2_num += 1;
  2838     06BC  3001               	movlw	1
  2839     06BD  00F9               	movwf	??_TrunLight
  2840     06BE  0879               	movf	??_TrunLight,w
  2841     06BF  07AF               	addwf	TrunLight@seg2_num,f
  2842     06C0                     l1782:
  2843                           
  2844                           ;PWM.c: 235:     LED_SET(seg1_num, data);
  2845     06C0  082D               	movf	TrunLight@data,w
  2846     06C1  00F3               	movwf	LED_SET@InputData
  2847     06C2  082E               	movf	TrunLight@seg1_num,w
  2848     06C3  3183  23AD  3186   	fcall	_LED_SET
  2849     06C6                     l1784:
  2850                           
  2851                           ;PWM.c: 236:     LED_SET((4 * 3) - seg1_num, 0x00);
  2852     06C6  01F3               	clrf	LED_SET@InputData
  2853     06C7  0020               	movlb	0	; select bank0
  2854     06C8  082E               	movf	TrunLight@seg1_num,w
  2855     06C9  3C0C               	sublw	12
  2856     06CA  3183  23AD  3186   	fcall	_LED_SET
  2857     06CD                     l1786:
  2858                           
  2859                           ;PWM.c: 237:     LED_SET(seg2_num, data);
  2860     06CD  0020               	movlb	0	; select bank0
  2861     06CE  082D               	movf	TrunLight@data,w
  2862     06CF  00F3               	movwf	LED_SET@InputData
  2863     06D0  082F               	movf	TrunLight@seg2_num,w
  2864     06D1  3183  23AD  3186   	fcall	_LED_SET
  2865     06D4                     l1788:
  2866                           
  2867                           ;PWM.c: 238:     LED_SET((2 * 3) - seg2_num, 0x00);
  2868     06D4  01F3               	clrf	LED_SET@InputData
  2869     06D5  0020               	movlb	0	; select bank0
  2870     06D6  082F               	movf	TrunLight@seg2_num,w
  2871     06D7  3C06               	sublw	6
  2872     06D8  3183  23AD  3186   	fcall	_LED_SET
  2873     06DB                     l1790:
  2874                           
  2875                           ;PWM.c: 239:     Delay_ms(50);
  2876     06DB  3032               	movlw	50
  2877     06DC  00F1               	movwf	Delay_ms@input_ms
  2878     06DD  3000               	movlw	0
  2879     06DE  00F2               	movwf	Delay_ms@input_ms+1
  2880     06DF  3183  23DE  3186   	fcall	_Delay_ms
  2881     06E2                     l1792:
  2882                           
  2883                           ;PWM.c: 240:   }
  2884     06E2  3001               	movlw	1
  2885     06E3  00F9               	movwf	??_TrunLight
  2886     06E4  0879               	movf	??_TrunLight,w
  2887     06E5  0020               	movlb	0	; select bank0
  2888     06E6  07AC               	addwf	TrunLight@i,f
  2889     06E7                     l1794:
  2890     06E7  3004               	movlw	4
  2891     06E8  022C               	subwf	TrunLight@i,w
  2892     06E9  1C03               	skipc
  2893     06EA  2EEC               	goto	u691
  2894     06EB  2EED               	goto	u690
  2895     06EC                     u691:
  2896     06EC  2EB8               	goto	l1780
  2897     06ED                     u690:
  2898     06ED                     l1796:
  2899                           
  2900                           ;PWM.c: 244:   seg2_num = 6;
  2901     06ED  3006               	movlw	6
  2902     06EE  00AF               	movwf	TrunLight@seg2_num
  2903     06EF                     l1798:
  2904                           
  2905                           ;PWM.c: 245:   LED_SET(seg1_num, data);
  2906     06EF  082D               	movf	TrunLight@data,w
  2907     06F0  00F3               	movwf	LED_SET@InputData
  2908     06F1  300C               	movlw	12
  2909     06F2  3183  23AD  3186   	fcall	_LED_SET
  2910     06F5                     l1800:
  2911                           
  2912                           ;PWM.c: 246:   LED_SET((4 * 3) - seg1_num, 0x00);
  2913     06F5  01F3               	clrf	LED_SET@InputData
  2914     06F6  3000               	movlw	0
  2915     06F7  3183  23AD  3186   	fcall	_LED_SET
  2916     06FA                     l1802:
  2917                           
  2918                           ;PWM.c: 247:   LED_SET(seg2_num, data);
  2919     06FA  0020               	movlb	0	; select bank0
  2920     06FB  082D               	movf	TrunLight@data,w
  2921     06FC  00F3               	movwf	LED_SET@InputData
  2922     06FD  3006               	movlw	6
  2923     06FE  3183  23AD  3186   	fcall	_LED_SET
  2924     0701                     l1804:
  2925                           
  2926                           ;PWM.c: 248:   LED_SET((2 * 3) - seg2_num, 0x00);
  2927     0701  01F3               	clrf	LED_SET@InputData
  2928     0702  3000               	movlw	0
  2929     0703  3183  23AD  3186   	fcall	_LED_SET
  2930     0706                     l1806:
  2931                           
  2932                           ;PWM.c: 249:   Delay_ms(100);
  2933     0706  3064               	movlw	100
  2934     0707  00F1               	movwf	Delay_ms@input_ms
  2935     0708  3000               	movlw	0
  2936     0709  00F2               	movwf	Delay_ms@input_ms+1
  2937     070A  3183  23DE  3186   	fcall	_Delay_ms
  2938     070D                     l259:
  2939     070D  0008               	return
  2940     070E                     __end_of_TrunLight:
  2941                           
  2942                           	psect	text8
  2943     070E                     __ptext8:	
  2944 ;; *************** function _testmode *****************
  2945 ;; Defined at:
  2946 ;;		line 126 in file "main.c"
  2947 ;; Parameters:    Size  Location     Type
  2948 ;;		None
  2949 ;; Auto vars:     Size  Location     Type
  2950 ;;  mode_old        1    1[BANK0 ] unsigned char 
  2951 ;;  fTurn_old       1    0[BANK0 ] _Bool 
  2952 ;; Return value:  Size  Location     Type
  2953 ;;                  1    wreg      void 
  2954 ;; Registers used:
  2955 ;;		wreg, status,2, status,0, pclath, cstack
  2956 ;; Tracked objects:
  2957 ;;		On entry : 0/0
  2958 ;;		On exit  : 0/0
  2959 ;;		Unchanged: 0/0
  2960 ;; Data sizes:     COMMON   BANK0   BANK1   BANK2   BANK3   BANK4   BANK5   BANK6
  2961 ;;      Params:         0       0       0       0       0       0       0       0
  2962 ;;      Locals:         0       2       0       0       0       0       0       0
  2963 ;;      Temps:          0       0       0       0       0       0       0       0
  2964 ;;      Totals:         0       2       0       0       0       0       0       0
  2965 ;;Total ram usage:        2 bytes
  2966 ;; Hardware stack levels used: 1
  2967 ;; Hardware stack levels required when called: 3
  2968 ;; This function calls:
  2969 ;;		_Delay_ms
  2970 ;;		_LED_OFF
  2971 ;;		_LED_ON
  2972 ;;		_Streamer_SEG1_TEST
  2973 ;;		_Streamer_SEG2_TEST
  2974 ;;		_Timer_TESTMODE
  2975 ;; This function is called by:
  2976 ;;		_main
  2977 ;; This function uses a non-reentrant model
  2978 ;;
  2979                           
  2980     070E                     _testmode:	
  2981                           ;psect for function _testmode
  2982                           
  2983     070E                     l1810:	
  2984                           ;incstack = 0
  2985                           ; Regs used in _testmode: [wreg+status,2+status,0+pclath+cstack]
  2986                           
  2987                           
  2988                           ;main.c: 127:   _Bool fTurn_old = 0;
  2989     070E  0020               	movlb	0	; select bank0
  2990     070F  01AB               	clrf	testmode@fTurn_old
  2991                           
  2992                           ;main.c: 128:   uint8_t mode_old = 0;
  2993     0710  01AC               	clrf	testmode@mode_old
  2994     0711                     l1812:
  2995                           
  2996                           ;main.c: 130:   fColorSeletDisable = 1;
  2997     0711  01AA               	clrf	_fColorSeletDisable
  2998     0712  0AAA               	incf	_fColorSeletDisable,f
  2999     0713                     l1814:
  3000                           
  3001                           ;main.c: 131:   LATBbits.LATB4 = 1;
  3002     0713  0022               	movlb	2	; select bank2
  3003     0714  160D               	bsf	13,4	;volatile
  3004     0715                     l1816:
  3005                           
  3006                           ;main.c: 132:   LATBbits.LATB5 = 1;
  3007     0715  168D               	bsf	13,5	;volatile
  3008                           
  3009                           ;main.c: 134:   while (PORTBbits.RB2 == 1) {
  3010     0716  2FDD               	goto	l1916
  3011     0717                     l1818:
  3012                           
  3013                           ;main.c: 135:     Timer_TESTMODE();
  3014     0717  3185  2575  3187   	fcall	_Timer_TESTMODE
  3015     071A                     l1820:
  3016                           
  3017                           ;main.c: 139:     if (PORTCbits.RC2 == 1) {
  3018     071A  0020               	movlb	0	; select bank0
  3019     071B  1D0E               	btfss	14,2	;volatile
  3020     071C  2F1E               	goto	u701
  3021     071D  2F1F               	goto	u700
  3022     071E                     u701:
  3023     071E  2F23               	goto	l141
  3024     071F                     u700:
  3025     071F                     l1822:
  3026                           
  3027                           ;main.c: 140:       LATCbits.LATC5 = 1;
  3028     071F  0022               	movlb	2	; select bank2
  3029     0720  168E               	bsf	14,5	;volatile
  3030                           
  3031                           ;main.c: 141:       LATCbits.LATC4 = 0;
  3032     0721  120E               	bcf	14,4	;volatile
  3033                           
  3034                           ;main.c: 142:     } else {
  3035     0722  2F26               	goto	l1824
  3036     0723                     l141:
  3037                           
  3038                           ;main.c: 143:       LATCbits.LATC5 = 0;
  3039     0723  0022               	movlb	2	; select bank2
  3040     0724  128E               	bcf	14,5	;volatile
  3041                           
  3042                           ;main.c: 144:       LATCbits.LATC4 = 1;
  3043     0725  160E               	bsf	14,4	;volatile
  3044     0726                     l1824:
  3045                           
  3046                           ;main.c: 148:     if ((mode == 0) && (mode != mode_old)) {
  3047     0726  0020               	movlb	0	; select bank0
  3048     0727  0829               	movf	_mode,w
  3049     0728  1D03               	btfss	3,2
  3050     0729  2F2B               	goto	u711
  3051     072A  2F2C               	goto	u710
  3052     072B                     u711:
  3053     072B  2F48               	goto	l1844
  3054     072C                     u710:
  3055     072C                     l1826:
  3056     072C  0829               	movf	_mode,w
  3057     072D  062C               	xorwf	testmode@mode_old,w
  3058     072E  1903               	skipnz
  3059     072F  2F31               	goto	u721
  3060     0730  2F32               	goto	u720
  3061     0731                     u721:
  3062     0731  2F48               	goto	l1844
  3063     0732                     u720:
  3064     0732                     l1828:
  3065                           
  3066                           ;main.c: 149:       mode_old = 0;
  3067     0732  01AC               	clrf	testmode@mode_old
  3068     0733                     l1830:
  3069                           
  3070                           ;main.c: 150:       LATBbits.LATB4 = 1;
  3071     0733  0022               	movlb	2	; select bank2
  3072     0734  160D               	bsf	13,4	;volatile
  3073     0735                     l1832:
  3074                           
  3075                           ;main.c: 151:       LATBbits.LATB5 = 1;
  3076     0735  168D               	bsf	13,5	;volatile
  3077     0736                     l1834:
  3078                           
  3079                           ;main.c: 152:       LATBbits.LATB1 = 0;
  3080     0736  108D               	bcf	13,1	;volatile
  3081     0737                     l1836:
  3082                           
  3083                           ;main.c: 153:       LED_OFF();
  3084     0737  3183  238D  3187   	fcall	_LED_OFF
  3085     073A                     l1838:
  3086                           
  3087                           ;main.c: 154:       T250MS_cnt = 0;
  3088     073A  0020               	movlb	0	; select bank0
  3089     073B  01A8               	clrf	_T250MS_cnt
  3090                           
  3091                           ;main.c: 155:       while (T250MS_cnt > 1) {
  3092     073C  2F40               	goto	l1842
  3093     073D                     l1840:
  3094                           
  3095                           ;main.c: 156:         Timer_TESTMODE();
  3096     073D  3185  2575  3187   	fcall	_Timer_TESTMODE
  3097     0740                     l1842:
  3098                           
  3099                           ;main.c: 155:       while (T250MS_cnt > 1) {
  3100     0740  3002               	movlw	2
  3101     0741  0020               	movlb	0	; select bank0
  3102     0742  0228               	subwf	_T250MS_cnt,w
  3103     0743  1803               	skipnc
  3104     0744  2F46               	goto	u731
  3105     0745  2F47               	goto	u730
  3106     0746                     u731:
  3107     0746  2F3D               	goto	l1840
  3108     0747                     u730:
  3109     0747  2FB1               	goto	l147
  3110     0748                     l1844:
  3111     0748  0329               	decf	_mode,w
  3112     0749  1D03               	btfss	3,2
  3113     074A  2F4C               	goto	u741
  3114     074B  2F4D               	goto	u740
  3115     074C                     u741:
  3116     074C  2F6A               	goto	l1858
  3117     074D                     u740:
  3118     074D                     l1846:
  3119     074D  0829               	movf	_mode,w
  3120     074E  062C               	xorwf	testmode@mode_old,w
  3121     074F  1903               	skipnz
  3122     0750  2F52               	goto	u751
  3123     0751  2F53               	goto	u750
  3124     0752                     u751:
  3125     0752  2F6A               	goto	l1858
  3126     0753                     u750:
  3127     0753                     l1848:
  3128                           
  3129                           ;main.c: 159:       mode_old = 1;
  3130     0753  01AC               	clrf	testmode@mode_old
  3131     0754  0AAC               	incf	testmode@mode_old,f
  3132                           
  3133                           ;main.c: 160:       LATBbits.LATB4 = 1;
  3134     0755  0022               	movlb	2	; select bank2
  3135     0756  160D               	bsf	13,4	;volatile
  3136                           
  3137                           ;main.c: 161:       LATBbits.LATB5 = 1;
  3138     0757  168D               	bsf	13,5	;volatile
  3139                           
  3140                           ;main.c: 162:       LATBbits.LATB1 = 1;
  3141     0758  148D               	bsf	13,1	;volatile
  3142     0759                     l1850:
  3143                           
  3144                           ;main.c: 163:       LED_OFF();
  3145     0759  3183  238D  3187   	fcall	_LED_OFF
  3146     075C                     l1852:
  3147                           
  3148                           ;main.c: 164:       T250MS_cnt = 0;
  3149     075C  0020               	movlb	0	; select bank0
  3150     075D  01A8               	clrf	_T250MS_cnt
  3151                           
  3152                           ;main.c: 165:       while (T250MS_cnt > 1) {
  3153     075E  2F62               	goto	l1856
  3154     075F                     l1854:
  3155                           
  3156                           ;main.c: 166:         Timer_TESTMODE();
  3157     075F  3185  2575  3187   	fcall	_Timer_TESTMODE
  3158     0762                     l1856:
  3159                           
  3160                           ;main.c: 165:       while (T250MS_cnt > 1) {
  3161     0762  3002               	movlw	2
  3162     0763  0020               	movlb	0	; select bank0
  3163     0764  0228               	subwf	_T250MS_cnt,w
  3164     0765  1803               	skipnc
  3165     0766  2F68               	goto	u761
  3166     0767  2F69               	goto	u760
  3167     0768                     u761:
  3168     0768  2F5F               	goto	l1854
  3169     0769                     u760:
  3170     0769  2FB1               	goto	l147
  3171     076A                     l1858:
  3172     076A  3002               	movlw	2
  3173     076B  0629               	xorwf	_mode,w
  3174     076C  1D03               	btfss	3,2
  3175     076D  2F6F               	goto	u771
  3176     076E  2F70               	goto	u770
  3177     076F                     u771:
  3178     076F  2F8E               	goto	l1878
  3179     0770                     u770:
  3180     0770                     l1860:
  3181     0770  0829               	movf	_mode,w
  3182     0771  062C               	xorwf	testmode@mode_old,w
  3183     0772  1903               	skipnz
  3184     0773  2F75               	goto	u781
  3185     0774  2F76               	goto	u780
  3186     0775                     u781:
  3187     0775  2F8E               	goto	l1878
  3188     0776                     u780:
  3189     0776                     l1862:
  3190                           
  3191                           ;main.c: 169:       mode_old = 2;
  3192     0776  3002               	movlw	2
  3193     0777  00AC               	movwf	testmode@mode_old
  3194     0778                     l1864:
  3195                           
  3196                           ;main.c: 170:       LATBbits.LATB4 = 0;
  3197     0778  0022               	movlb	2	; select bank2
  3198     0779  120D               	bcf	13,4	;volatile
  3199     077A                     l1866:
  3200                           
  3201                           ;main.c: 171:       LATBbits.LATB5 = 0;
  3202     077A  128D               	bcf	13,5	;volatile
  3203     077B                     l1868:
  3204                           
  3205                           ;main.c: 172:       LATBbits.LATB1 = 0;
  3206     077B  108D               	bcf	13,1	;volatile
  3207     077C                     l1870:
  3208                           
  3209                           ;main.c: 173:       LED_ON(25);
  3210     077C  3019               	movlw	25
  3211     077D  3183  236C  3187   	fcall	_LED_ON
  3212     0780                     l1872:
  3213                           
  3214                           ;main.c: 174:       T250MS_cnt = 0;
  3215     0780  0020               	movlb	0	; select bank0
  3216     0781  01A8               	clrf	_T250MS_cnt
  3217                           
  3218                           ;main.c: 175:       while (T250MS_cnt > 1) {
  3219     0782  2F86               	goto	l1876
  3220     0783                     l1874:
  3221                           
  3222                           ;main.c: 176:         Timer_TESTMODE();
  3223     0783  3185  2575  3187   	fcall	_Timer_TESTMODE
  3224     0786                     l1876:
  3225                           
  3226                           ;main.c: 175:       while (T250MS_cnt > 1) {
  3227     0786  3002               	movlw	2
  3228     0787  0020               	movlb	0	; select bank0
  3229     0788  0228               	subwf	_T250MS_cnt,w
  3230     0789  1803               	skipnc
  3231     078A  2F8C               	goto	u791
  3232     078B  2F8D               	goto	u790
  3233     078C                     u791:
  3234     078C  2F83               	goto	l1874
  3235     078D                     u790:
  3236     078D  2FB1               	goto	l147
  3237     078E                     l1878:
  3238     078E  3003               	movlw	3
  3239     078F  0629               	xorwf	_mode,w
  3240     0790  1D03               	btfss	3,2
  3241     0791  2F93               	goto	u801
  3242     0792  2F94               	goto	u800
  3243     0793                     u801:
  3244     0793  2FB1               	goto	l147
  3245     0794                     u800:
  3246     0794                     l1880:
  3247     0794  0829               	movf	_mode,w
  3248     0795  062C               	xorwf	testmode@mode_old,w
  3249     0796  1903               	skipnz
  3250     0797  2F99               	goto	u811
  3251     0798  2F9A               	goto	u810
  3252     0799                     u811:
  3253     0799  2FB1               	goto	l147
  3254     079A                     u810:
  3255     079A                     l1882:
  3256                           
  3257                           ;main.c: 179:       mode_old = 3;
  3258     079A  3003               	movlw	3
  3259     079B  00AC               	movwf	testmode@mode_old
  3260     079C                     l1884:
  3261                           
  3262                           ;main.c: 180:       LATBbits.LATB4 = 0;
  3263     079C  0022               	movlb	2	; select bank2
  3264     079D  120D               	bcf	13,4	;volatile
  3265     079E                     l1886:
  3266                           
  3267                           ;main.c: 181:       LATBbits.LATB5 = 0;
  3268     079E  128D               	bcf	13,5	;volatile
  3269     079F                     l1888:
  3270                           
  3271                           ;main.c: 182:       LATBbits.LATB1 = 0;
  3272     079F  108D               	bcf	13,1	;volatile
  3273     07A0                     l1890:
  3274                           
  3275                           ;main.c: 183:       LED_ON(255);
  3276     07A0  30FF               	movlw	255
  3277     07A1  3183  236C  3187   	fcall	_LED_ON
  3278     07A4                     l1892:
  3279                           
  3280                           ;main.c: 184:       T250MS_cnt = 0;
  3281     07A4  0020               	movlb	0	; select bank0
  3282     07A5  01A8               	clrf	_T250MS_cnt
  3283                           
  3284                           ;main.c: 185:       while (T250MS_cnt > 1) {
  3285     07A6  2FAA               	goto	l1896
  3286     07A7                     l1894:
  3287                           
  3288                           ;main.c: 186:         Timer_TESTMODE();
  3289     07A7  3185  2575  3187   	fcall	_Timer_TESTMODE
  3290     07AA                     l1896:
  3291                           
  3292                           ;main.c: 185:       while (T250MS_cnt > 1) {
  3293     07AA  3002               	movlw	2
  3294     07AB  0020               	movlb	0	; select bank0
  3295     07AC  0228               	subwf	_T250MS_cnt,w
  3296     07AD  1803               	skipnc
  3297     07AE  2FB0               	goto	u821
  3298     07AF  2FB1               	goto	u820
  3299     07B0                     u821:
  3300     07B0  2FA7               	goto	l1894
  3301     07B1                     u820:
  3302     07B1                     l147:
  3303                           
  3304                           ;main.c: 190:     if ((PORTCbits.RC2 == 1) && (fTurn_old == 0)) {
  3305     07B1  1D0E               	btfss	14,2	;volatile
  3306     07B2  2FB4               	goto	u831
  3307     07B3  2FB5               	goto	u830
  3308     07B4                     u831:
  3309     07B4  2FC8               	goto	l162
  3310     07B5                     u830:
  3311     07B5                     l1898:
  3312     07B5  082B               	movf	testmode@fTurn_old,w
  3313     07B6  1D03               	btfss	3,2
  3314     07B7  2FB9               	goto	u841
  3315     07B8  2FBA               	goto	u840
  3316     07B9                     u841:
  3317     07B9  2FC8               	goto	l162
  3318     07BA                     u840:
  3319     07BA                     l1900:
  3320                           
  3321                           ;main.c: 191:      fTurn_old = 1;
  3322     07BA  01AB               	clrf	testmode@fTurn_old
  3323     07BB  0AAB               	incf	testmode@fTurn_old,f
  3324                           
  3325                           ;main.c: 192:       LATCbits.LATC5 = 1;
  3326     07BC  0022               	movlb	2	; select bank2
  3327     07BD  168E               	bsf	14,5	;volatile
  3328                           
  3329                           ;main.c: 193:       LATCbits.LATC4 = 0;
  3330     07BE  120E               	bcf	14,4	;volatile
  3331     07BF                     l1902:
  3332                           
  3333                           ;main.c: 194:       Streamer_SEG1_TEST(5);
  3334     07BF  3005               	movlw	5
  3335     07C0  3184  2468  3187   	fcall	_Streamer_SEG1_TEST
  3336                           
  3337                           ;main.c: 195:       Streamer_SEG2_TEST(5);
  3338     07C3  3005               	movlw	5
  3339     07C4  3185  2518  3187   	fcall	_Streamer_SEG2_TEST
  3340                           
  3341                           ;main.c: 196:     } else if ((PORTCbits.RC2 == 0) && (fTurn_old == 1)) {
  3342     07C7  2FDD               	goto	l1916
  3343     07C8                     l162:
  3344     07C8  190E               	btfsc	14,2	;volatile
  3345     07C9  2FCB               	goto	u851
  3346     07CA  2FCC               	goto	u850
  3347     07CB                     u851:
  3348     07CB  2FDD               	goto	l1916
  3349     07CC                     u850:
  3350     07CC                     l1904:
  3351     07CC  032B               	decf	testmode@fTurn_old,w
  3352     07CD  1D03               	btfss	3,2
  3353     07CE  2FD0               	goto	u861
  3354     07CF  2FD1               	goto	u860
  3355     07D0                     u861:
  3356     07D0  2FDD               	goto	l1916
  3357     07D1                     u860:
  3358     07D1                     l1906:
  3359                           
  3360                           ;main.c: 197:      fTurn_old = 0;
  3361     07D1  01AB               	clrf	testmode@fTurn_old
  3362     07D2                     l1908:
  3363                           
  3364                           ;main.c: 198:       LATCbits.LATC5 = 0;
  3365     07D2  0022               	movlb	2	; select bank2
  3366     07D3  128E               	bcf	14,5	;volatile
  3367     07D4                     l1910:
  3368                           
  3369                           ;main.c: 199:       LATCbits.LATC4 = 1;
  3370     07D4  160E               	bsf	14,4	;volatile
  3371     07D5                     l1912:
  3372                           
  3373                           ;main.c: 200:       Streamer_SEG1_TEST(5);
  3374     07D5  3005               	movlw	5
  3375     07D6  3184  2468  3187   	fcall	_Streamer_SEG1_TEST
  3376     07D9                     l1914:
  3377                           
  3378                           ;main.c: 201:       Streamer_SEG2_TEST(5);
  3379     07D9  3005               	movlw	5
  3380     07DA  3185  2518  3187   	fcall	_Streamer_SEG2_TEST
  3381     07DD                     l1916:
  3382                           
  3383                           ;main.c: 134:   while (PORTBbits.RB2 == 1) {
  3384     07DD  0020               	movlb	0	; select bank0
  3385     07DE  190D               	btfsc	13,2	;volatile
  3386     07DF  2FE1               	goto	u871
  3387     07E0  2FE2               	goto	u870
  3388     07E1                     u871:
  3389     07E1  2F17               	goto	l1818
  3390     07E2                     u870:
  3391     07E2                     l165:
  3392                           
  3393                           ;main.c: 204:   LATBbits.LATB4 = 0;
  3394     07E2  0022               	movlb	2	; select bank2
  3395     07E3  120D               	bcf	13,4	;volatile
  3396                           
  3397                           ;main.c: 205:   LATBbits.LATB5 = 0;
  3398     07E4  128D               	bcf	13,5	;volatile
  3399                           
  3400                           ;main.c: 206:   LATBbits.LATB1 = 0;
  3401     07E5  108D               	bcf	13,1	;volatile
  3402     07E6                     l1918:
  3403                           
  3404                           ;main.c: 207:   LED_OFF();
  3405     07E6  3183  238D  3187   	fcall	_LED_OFF
  3406                           
  3407                           ;main.c: 208:   Delay_ms(1);
  3408     07E9  3001               	movlw	1
  3409     07EA  00F1               	movwf	Delay_ms@input_ms
  3410     07EB  3000               	movlw	0
  3411     07EC  00F2               	movwf	Delay_ms@input_ms+1
  3412     07ED  3183  23DE  3187   	fcall	_Delay_ms
  3413     07F0                     l166:
  3414     07F0  0008               	return
  3415     07F1                     __end_of_testmode:
  3416                           
  3417                           	psect	text9
  3418     0575                     __ptext9:	
  3419 ;; *************** function _Timer_TESTMODE *****************
  3420 ;; Defined at:
  3421 ;;		line 70 in file "timer.c"
  3422 ;; Parameters:    Size  Location     Type
  3423 ;;		None
  3424 ;; Auto vars:     Size  Location     Type
  3425 ;;		None
  3426 ;; Return value:  Size  Location     Type
  3427 ;;                  1    wreg      void 
  3428 ;; Registers used:
  3429 ;;		wreg, status,2, status,0
  3430 ;; Tracked objects:
  3431 ;;		On entry : 0/0
  3432 ;;		On exit  : 0/0
  3433 ;;		Unchanged: 0/0
  3434 ;; Data sizes:     COMMON   BANK0   BANK1   BANK2   BANK3   BANK4   BANK5   BANK6
  3435 ;;      Params:         0       0       0       0       0       0       0       0
  3436 ;;      Locals:         0       0       0       0       0       0       0       0
  3437 ;;      Temps:          1       0       0       0       0       0       0       0
  3438 ;;      Totals:         1       0       0       0       0       0       0       0
  3439 ;;Total ram usage:        1 bytes
  3440 ;; Hardware stack levels used: 1
  3441 ;; This function calls:
  3442 ;;		Nothing
  3443 ;; This function is called by:
  3444 ;;		_testmode
  3445 ;; This function uses a non-reentrant model
  3446 ;;
  3447                           
  3448     0575                     _Timer_TESTMODE:	
  3449                           ;psect for function _Timer_TESTMODE
  3450                           
  3451     0575                     l1660:	
  3452                           ;incstack = 0
  3453                           ; Regs used in _Timer_TESTMODE: [wreg+status,2+status,0]
  3454                           
  3455     0575                     l312:	
  3456                           ;timer.c: 72:   };
  3457                           
  3458                           
  3459                           ;timer.c: 71:   while (!TMR2IF) {
  3460     0575  0020               	movlb	0	; select bank0
  3461     0576  1C91               	btfss	17,1	;volatile
  3462     0577  2D79               	goto	u591
  3463     0578  2D7A               	goto	u590
  3464     0579                     u591:
  3465     0579  2D75               	goto	l312
  3466     057A                     u590:
  3467     057A                     l314:
  3468                           
  3469                           ;timer.c: 73:   TMR2IF = 0;
  3470     057A  1091               	bcf	17,1	;volatile
  3471     057B                     l1662:
  3472                           
  3473                           ;timer.c: 74:   T100us_cnt++;
  3474     057B  3001               	movlw	1
  3475     057C  00F0               	movwf	??_Timer_TESTMODE
  3476     057D  0870               	movf	??_Timer_TESTMODE,w
  3477     057E  07A6               	addwf	_T100us_cnt,f
  3478                           
  3479                           ;timer.c: 75:   T100us_cnt1++;
  3480     057F  3001               	movlw	1
  3481     0580  00F0               	movwf	??_Timer_TESTMODE
  3482     0581  0870               	movf	??_Timer_TESTMODE,w
  3483     0582  07A5               	addwf	_T100us_cnt1,f
  3484     0583                     l1664:
  3485                           
  3486                           ;timer.c: 76:   if (T100us_cnt1 >= 10) {
  3487     0583  300A               	movlw	10
  3488     0584  0225               	subwf	_T100us_cnt1,w
  3489     0585  1C03               	skipc
  3490     0586  2D88               	goto	u601
  3491     0587  2D89               	goto	u600
  3492     0588                     u601:
  3493     0588  2D8E               	goto	l1670
  3494     0589                     u600:
  3495     0589                     l1666:
  3496                           
  3497                           ;timer.c: 77:     T100us_cnt1 = 0;
  3498     0589  01A5               	clrf	_T100us_cnt1
  3499     058A                     l1668:
  3500                           
  3501                           ;timer.c: 78:     T1MS_cnt++;
  3502     058A  3001               	movlw	1
  3503     058B  07A0               	addwf	_T1MS_cnt,f
  3504     058C  3000               	movlw	0
  3505     058D  3DA1               	addwfc	_T1MS_cnt+1,f
  3506     058E                     l1670:
  3507                           
  3508                           ;timer.c: 81:   if (T100us_cnt >= 50) {
  3509     058E  3032               	movlw	50
  3510     058F  0226               	subwf	_T100us_cnt,w
  3511     0590  1C03               	skipc
  3512     0591  2D93               	goto	u611
  3513     0592  2D94               	goto	u610
  3514     0593                     u611:
  3515     0593  2D99               	goto	l1676
  3516     0594                     u610:
  3517     0594                     l1672:
  3518                           
  3519                           ;timer.c: 82:     T100us_cnt = 0;
  3520     0594  01A6               	clrf	_T100us_cnt
  3521     0595                     l1674:
  3522                           
  3523                           ;timer.c: 83:     T5MS_cnt++;
  3524     0595  3001               	movlw	1
  3525     0596  00F0               	movwf	??_Timer_TESTMODE
  3526     0597  0870               	movf	??_Timer_TESTMODE,w
  3527     0598  07A4               	addwf	_T5MS_cnt,f
  3528     0599                     l1676:
  3529                           
  3530                           ;timer.c: 85:   if (T5MS_cnt >= 50) {
  3531     0599  3032               	movlw	50
  3532     059A  0224               	subwf	_T5MS_cnt,w
  3533     059B  1C03               	skipc
  3534     059C  2D9E               	goto	u621
  3535     059D  2D9F               	goto	u620
  3536     059E                     u621:
  3537     059E  2DA4               	goto	l1682
  3538     059F                     u620:
  3539     059F                     l1678:
  3540                           
  3541                           ;timer.c: 86:     T5MS_cnt = 0;
  3542     059F  01A4               	clrf	_T5MS_cnt
  3543     05A0                     l1680:
  3544                           
  3545                           ;timer.c: 87:     T250MS_cnt++;
  3546     05A0  3001               	movlw	1
  3547     05A1  00F0               	movwf	??_Timer_TESTMODE
  3548     05A2  0870               	movf	??_Timer_TESTMODE,w
  3549     05A3  07A8               	addwf	_T250MS_cnt,f
  3550     05A4                     l1682:
  3551                           
  3552                           ;timer.c: 90:   if ((PORTAbits.RA3 == 1) && (fLoBeam == 0)) {
  3553     05A4  1D8C               	btfss	12,3	;volatile
  3554     05A5  2DA7               	goto	u631
  3555     05A6  2DA8               	goto	u630
  3556     05A7                     u631:
  3557     05A7  2DB9               	goto	l1692
  3558     05A8                     u630:
  3559     05A8                     l1684:
  3560     05A8  0823               	movf	_fLoBeam,w
  3561     05A9  1D03               	btfss	3,2
  3562     05AA  2DAC               	goto	u641
  3563     05AB  2DAD               	goto	u640
  3564     05AC                     u641:
  3565     05AC  2DB9               	goto	l1692
  3566     05AD                     u640:
  3567     05AD                     l1686:
  3568                           
  3569                           ;timer.c: 91:     if (mode < 3) {
  3570     05AD  3003               	movlw	3
  3571     05AE  0229               	subwf	_mode,w
  3572     05AF  1803               	skipnc
  3573     05B0  2DB2               	goto	u651
  3574     05B1  2DB3               	goto	u650
  3575     05B2                     u651:
  3576     05B2  2DB8               	goto	l1690
  3577     05B3                     u650:
  3578     05B3                     l1688:
  3579                           
  3580                           ;timer.c: 92:       mode++;
  3581     05B3  3001               	movlw	1
  3582     05B4  00F0               	movwf	??_Timer_TESTMODE
  3583     05B5  0870               	movf	??_Timer_TESTMODE,w
  3584     05B6  07A9               	addwf	_mode,f
  3585                           
  3586                           ;timer.c: 93:     } else {
  3587     05B7  2DB9               	goto	l1692
  3588     05B8                     l1690:
  3589                           
  3590                           ;timer.c: 94:       mode = 0;
  3591     05B8  01A9               	clrf	_mode
  3592     05B9                     l1692:
  3593                           
  3594                           ;timer.c: 98:   if (PORTAbits.RA3 == 1) {
  3595     05B9  1D8C               	btfss	12,3	;volatile
  3596     05BA  2DBC               	goto	u661
  3597     05BB  2DBD               	goto	u660
  3598     05BC                     u661:
  3599     05BC  2DC0               	goto	l1696
  3600     05BD                     u660:
  3601     05BD                     l1694:
  3602                           
  3603                           ;timer.c: 99:     fLoBeam = 1;
  3604     05BD  01A3               	clrf	_fLoBeam
  3605     05BE  0AA3               	incf	_fLoBeam,f
  3606                           
  3607                           ;timer.c: 100:   } else {
  3608     05BF  2DC1               	goto	l323
  3609     05C0                     l1696:
  3610                           
  3611                           ;timer.c: 101:     fLoBeam = 0;
  3612     05C0  01A3               	clrf	_fLoBeam
  3613     05C1                     l323:
  3614     05C1  0008               	return
  3615     05C2                     __end_of_Timer_TESTMODE:
  3616                           
  3617                           	psect	text10
  3618     0518                     __ptext10:	
  3619 ;; *************** function _Streamer_SEG2_TEST *****************
  3620 ;; Defined at:
  3621 ;;		line 160 in file "PWM.c"
  3622 ;; Parameters:    Size  Location     Type
  3623 ;;  InputData       1    wreg     unsigned char 
  3624 ;; Auto vars:     Size  Location     Type
  3625 ;;  InputData       1   10[COMMON] unsigned char 
  3626 ;;  i               1   13[COMMON] unsigned char 
  3627 ;;  num             1   12[COMMON] unsigned char 
  3628 ;;  data            1   11[COMMON] unsigned char 
  3629 ;; Return value:  Size  Location     Type
  3630 ;;                  1    wreg      void 
  3631 ;; Registers used:
  3632 ;;		wreg, status,2, status,0, pclath, cstack
  3633 ;; Tracked objects:
  3634 ;;		On entry : 0/0
  3635 ;;		On exit  : 0/0
  3636 ;;		Unchanged: 0/0
  3637 ;; Data sizes:     COMMON   BANK0   BANK1   BANK2   BANK3   BANK4   BANK5   BANK6
  3638 ;;      Params:         0       0       0       0       0       0       0       0
  3639 ;;      Locals:         4       0       0       0       0       0       0       0
  3640 ;;      Temps:          1       0       0       0       0       0       0       0
  3641 ;;      Totals:         5       0       0       0       0       0       0       0
  3642 ;;Total ram usage:        5 bytes
  3643 ;; Hardware stack levels used: 1
  3644 ;; Hardware stack levels required when called: 2
  3645 ;; This function calls:
  3646 ;;		_Delay_ms
  3647 ;;		_LED_SET
  3648 ;; This function is called by:
  3649 ;;		_testmode
  3650 ;; This function uses a non-reentrant model
  3651 ;;
  3652                           
  3653     0518                     _Streamer_SEG2_TEST:	
  3654                           ;psect for function _Streamer_SEG2_TEST
  3655                           
  3656                           
  3657                           ;incstack = 0
  3658                           ; Regs used in _Streamer_SEG2_TEST: [wreg+status,2+status,0+pclath+cstack]
  3659                           ;Streamer_SEG2_TEST@InputData stored from wreg
  3660     0518  00FA               	movwf	Streamer_SEG2_TEST@InputData
  3661     0519                     l1718:
  3662                           
  3663                           ;PWM.c: 161:   uint8_t data = InputData;
  3664     0519  087A               	movf	Streamer_SEG2_TEST@InputData,w
  3665     051A  00FB               	movwf	Streamer_SEG2_TEST@data
  3666     051B                     l1720:
  3667                           
  3668                           ;PWM.c: 162:   uint8_t num = 0;
  3669     051B  01FC               	clrf	Streamer_SEG2_TEST@num
  3670     051C                     l1722:
  3671                           
  3672                           ;PWM.c: 164:   for (uint8_t i = 0; i < (2 * 3); i++) {
  3673     051C  01FD               	clrf	Streamer_SEG2_TEST@i
  3674     051D                     l1726:
  3675                           
  3676                           ;PWM.c: 166:     LED_SET((4 * 3), data);
  3677     051D  087B               	movf	Streamer_SEG2_TEST@data,w
  3678     051E  00F3               	movwf	LED_SET@InputData
  3679     051F  300C               	movlw	12
  3680     0520  3183  23AD  3185   	fcall	_LED_SET
  3681     0523                     l1728:
  3682                           
  3683                           ;PWM.c: 168:     num += 1;
  3684     0523  3001               	movlw	1
  3685     0524  00F9               	movwf	??_Streamer_SEG2_TEST
  3686     0525  0879               	movf	??_Streamer_SEG2_TEST,w
  3687     0526  07FC               	addwf	Streamer_SEG2_TEST@num,f
  3688     0527                     l1730:
  3689                           
  3690                           ;PWM.c: 169:     LED_SET(num, data);
  3691     0527  087B               	movf	Streamer_SEG2_TEST@data,w
  3692     0528  00F3               	movwf	LED_SET@InputData
  3693     0529  087C               	movf	Streamer_SEG2_TEST@num,w
  3694     052A  3183  23AD  3185   	fcall	_LED_SET
  3695     052D                     l1732:
  3696                           
  3697                           ;PWM.c: 170:     LED_SET((2 * 3) - num, 0x00);
  3698     052D  01F3               	clrf	LED_SET@InputData
  3699     052E  087C               	movf	Streamer_SEG2_TEST@num,w
  3700     052F  3C06               	sublw	6
  3701     0530  3183  23AD  3185   	fcall	_LED_SET
  3702     0533                     l1734:
  3703                           
  3704                           ;PWM.c: 171:     Delay_ms(500);
  3705     0533  30F4               	movlw	244
  3706     0534  00F1               	movwf	Delay_ms@input_ms
  3707     0535  3001               	movlw	1
  3708     0536  00F2               	movwf	Delay_ms@input_ms+1
  3709     0537  3183  23DE  3185   	fcall	_Delay_ms
  3710                           
  3711                           ;PWM.c: 172:   }
  3712     053A  3001               	movlw	1
  3713     053B  00F9               	movwf	??_Streamer_SEG2_TEST
  3714     053C  0879               	movf	??_Streamer_SEG2_TEST,w
  3715     053D  07FD               	addwf	Streamer_SEG2_TEST@i,f
  3716     053E                     l1736:
  3717     053E  3006               	movlw	6
  3718     053F  027D               	subwf	Streamer_SEG2_TEST@i,w
  3719     0540  1C03               	skipc
  3720     0541  2D43               	goto	u681
  3721     0542  2D44               	goto	u680
  3722     0543                     u681:
  3723     0543  2D1D               	goto	l1726
  3724     0544                     u680:
  3725     0544                     l251:
  3726     0544  0008               	return
  3727     0545                     __end_of_Streamer_SEG2_TEST:
  3728                           
  3729                           	psect	text11
  3730     0468                     __ptext11:	
  3731 ;; *************** function _Streamer_SEG1_TEST *****************
  3732 ;; Defined at:
  3733 ;;		line 113 in file "PWM.c"
  3734 ;; Parameters:    Size  Location     Type
  3735 ;;  InputData       1    wreg     unsigned char 
  3736 ;; Auto vars:     Size  Location     Type
  3737 ;;  InputData       1   10[COMMON] unsigned char 
  3738 ;;  i               1   13[COMMON] unsigned char 
  3739 ;;  num             1   12[COMMON] unsigned char 
  3740 ;;  data            1   11[COMMON] unsigned char 
  3741 ;; Return value:  Size  Location     Type
  3742 ;;                  1    wreg      void 
  3743 ;; Registers used:
  3744 ;;		wreg, status,2, status,0, pclath, cstack
  3745 ;; Tracked objects:
  3746 ;;		On entry : 0/0
  3747 ;;		On exit  : 0/0
  3748 ;;		Unchanged: 0/0
  3749 ;; Data sizes:     COMMON   BANK0   BANK1   BANK2   BANK3   BANK4   BANK5   BANK6
  3750 ;;      Params:         0       0       0       0       0       0       0       0
  3751 ;;      Locals:         4       0       0       0       0       0       0       0
  3752 ;;      Temps:          1       0       0       0       0       0       0       0
  3753 ;;      Totals:         5       0       0       0       0       0       0       0
  3754 ;;Total ram usage:        5 bytes
  3755 ;; Hardware stack levels used: 1
  3756 ;; Hardware stack levels required when called: 2
  3757 ;; This function calls:
  3758 ;;		_Delay_ms
  3759 ;;		_LED_SET
  3760 ;; This function is called by:
  3761 ;;		_testmode
  3762 ;; This function uses a non-reentrant model
  3763 ;;
  3764                           
  3765     0468                     _Streamer_SEG1_TEST:	
  3766                           ;psect for function _Streamer_SEG1_TEST
  3767                           
  3768                           
  3769                           ;incstack = 0
  3770                           ; Regs used in _Streamer_SEG1_TEST: [wreg+status,2+status,0+pclath+cstack]
  3771                           ;Streamer_SEG1_TEST@InputData stored from wreg
  3772     0468  00FA               	movwf	Streamer_SEG1_TEST@InputData
  3773     0469                     l1698:
  3774                           
  3775                           ;PWM.c: 114:   uint8_t data = InputData;
  3776     0469  087A               	movf	Streamer_SEG1_TEST@InputData,w
  3777     046A  00FB               	movwf	Streamer_SEG1_TEST@data
  3778     046B                     l1700:
  3779                           
  3780                           ;PWM.c: 115:   uint8_t num = 0;
  3781     046B  01FC               	clrf	Streamer_SEG1_TEST@num
  3782     046C                     l1702:
  3783                           
  3784                           ;PWM.c: 117:   for (uint8_t i = 0; i < (4 * 3); i++) {
  3785     046C  01FD               	clrf	Streamer_SEG1_TEST@i
  3786     046D                     l1706:
  3787                           
  3788                           ;PWM.c: 118:     num += 1;
  3789     046D  3001               	movlw	1
  3790     046E  00F9               	movwf	??_Streamer_SEG1_TEST
  3791     046F  0879               	movf	??_Streamer_SEG1_TEST,w
  3792     0470  07FC               	addwf	Streamer_SEG1_TEST@num,f
  3793     0471                     l1708:
  3794                           
  3795                           ;PWM.c: 120:     LED_SET(num, data);
  3796     0471  087B               	movf	Streamer_SEG1_TEST@data,w
  3797     0472  00F3               	movwf	LED_SET@InputData
  3798     0473  087C               	movf	Streamer_SEG1_TEST@num,w
  3799     0474  3183  23AD  3184   	fcall	_LED_SET
  3800     0477                     l1710:
  3801                           
  3802                           ;PWM.c: 121:     LED_SET((4 * 3) - num, 0x00);
  3803     0477  01F3               	clrf	LED_SET@InputData
  3804     0478  087C               	movf	Streamer_SEG1_TEST@num,w
  3805     0479  3C0C               	sublw	12
  3806     047A  3183  23AD  3184   	fcall	_LED_SET
  3807     047D                     l1712:
  3808                           
  3809                           ;PWM.c: 123:     LED_SET((2 * 3), 0x00);
  3810     047D  01F3               	clrf	LED_SET@InputData
  3811     047E  3006               	movlw	6
  3812     047F  3183  23AD  3184   	fcall	_LED_SET
  3813     0482                     l1714:
  3814                           
  3815                           ;PWM.c: 124:     Delay_ms(500);
  3816     0482  30F4               	movlw	244
  3817     0483  00F1               	movwf	Delay_ms@input_ms
  3818     0484  3001               	movlw	1
  3819     0485  00F2               	movwf	Delay_ms@input_ms+1
  3820     0486  3183  23DE  3184   	fcall	_Delay_ms
  3821                           
  3822                           ;PWM.c: 125:   }
  3823     0489  3001               	movlw	1
  3824     048A  00F9               	movwf	??_Streamer_SEG1_TEST
  3825     048B  0879               	movf	??_Streamer_SEG1_TEST,w
  3826     048C  07FD               	addwf	Streamer_SEG1_TEST@i,f
  3827     048D                     l1716:
  3828     048D  300C               	movlw	12
  3829     048E  027D               	subwf	Streamer_SEG1_TEST@i,w
  3830     048F  1C03               	skipc
  3831     0490  2C92               	goto	u671
  3832     0491  2C93               	goto	u670
  3833     0492                     u671:
  3834     0492  2C6D               	goto	l1706
  3835     0493                     u670:
  3836     0493                     l236:
  3837     0493  0008               	return
  3838     0494                     __end_of_Streamer_SEG1_TEST:
  3839                           
  3840                           	psect	text12
  3841     036C                     __ptext12:	
  3842 ;; *************** function _LED_ON *****************
  3843 ;; Defined at:
  3844 ;;		line 79 in file "PWM.c"
  3845 ;; Parameters:    Size  Location     Type
  3846 ;;  InputData       1    wreg     unsigned char 
  3847 ;; Auto vars:     Size  Location     Type
  3848 ;;  InputData       1    9[COMMON] unsigned char 
  3849 ;;  data            1   10[COMMON] unsigned char 
  3850 ;; Return value:  Size  Location     Type
  3851 ;;                  1    wreg      void 
  3852 ;; Registers used:
  3853 ;;		wreg, status,2, status,0, pclath, cstack
  3854 ;; Tracked objects:
  3855 ;;		On entry : 0/0
  3856 ;;		On exit  : 0/0
  3857 ;;		Unchanged: 0/0
  3858 ;; Data sizes:     COMMON   BANK0   BANK1   BANK2   BANK3   BANK4   BANK5   BANK6
  3859 ;;      Params:         0       0       0       0       0       0       0       0
  3860 ;;      Locals:         2       0       0       0       0       0       0       0
  3861 ;;      Temps:          0       0       0       0       0       0       0       0
  3862 ;;      Totals:         2       0       0       0       0       0       0       0
  3863 ;;Total ram usage:        2 bytes
  3864 ;; Hardware stack levels used: 1
  3865 ;; Hardware stack levels required when called: 2
  3866 ;; This function calls:
  3867 ;;		_LED_SET
  3868 ;; This function is called by:
  3869 ;;		_testmode
  3870 ;;		_WelcomeLight
  3871 ;; This function uses a non-reentrant model
  3872 ;;
  3873                           
  3874     036C                     _LED_ON:	
  3875                           ;psect for function _LED_ON
  3876                           
  3877                           
  3878                           ;incstack = 0
  3879                           ; Regs used in _LED_ON: [wreg+status,2+status,0+pclath+cstack]
  3880                           ;LED_ON@InputData stored from wreg
  3881     036C  00F9               	movwf	LED_ON@InputData
  3882     036D                     l1532:
  3883                           
  3884                           ;PWM.c: 80:     uint8_t data = InputData;
  3885     036D  0879               	movf	LED_ON@InputData,w
  3886     036E  00FA               	movwf	LED_ON@data
  3887     036F                     l1534:
  3888                           
  3889                           ;PWM.c: 81:     LED_SET(((4 * 3) + (2 * 3)), data);
  3890     036F  087A               	movf	LED_ON@data,w
  3891     0370  00F3               	movwf	LED_SET@InputData
  3892     0371  3012               	movlw	18
  3893     0372  3183  23AD  3183   	fcall	_LED_SET
  3894     0375                     l221:
  3895     0375  0008               	return
  3896     0376                     __end_of_LED_ON:
  3897                           
  3898                           	psect	text13
  3899     038D                     __ptext13:	
  3900 ;; *************** function _LED_OFF *****************
  3901 ;; Defined at:
  3902 ;;		line 73 in file "PWM.c"
  3903 ;; Parameters:    Size  Location     Type
  3904 ;;		None
  3905 ;; Auto vars:     Size  Location     Type
  3906 ;;		None
  3907 ;; Return value:  Size  Location     Type
  3908 ;;                  1    wreg      void 
  3909 ;; Registers used:
  3910 ;;		wreg, status,2, status,0, pclath, cstack
  3911 ;; Tracked objects:
  3912 ;;		On entry : 0/0
  3913 ;;		On exit  : 0/0
  3914 ;;		Unchanged: 0/0
  3915 ;; Data sizes:     COMMON   BANK0   BANK1   BANK2   BANK3   BANK4   BANK5   BANK6
  3916 ;;      Params:         0       0       0       0       0       0       0       0
  3917 ;;      Locals:         0       0       0       0       0       0       0       0
  3918 ;;      Temps:          0       0       0       0       0       0       0       0
  3919 ;;      Totals:         0       0       0       0       0       0       0       0
  3920 ;;Total ram usage:        0 bytes
  3921 ;; Hardware stack levels used: 1
  3922 ;; Hardware stack levels required when called: 2
  3923 ;; This function calls:
  3924 ;;		_Delay_ms
  3925 ;;		_LED_SET
  3926 ;; This function is called by:
  3927 ;;		_testmode
  3928 ;;		_main
  3929 ;;		_WelcomeLight
  3930 ;;		_TrunLight
  3931 ;; This function uses a non-reentrant model
  3932 ;;
  3933                           
  3934     038D                     _LED_OFF:	
  3935                           ;psect for function _LED_OFF
  3936                           
  3937     038D                     l1530:	
  3938                           ;incstack = 0
  3939                           ; Regs used in _LED_OFF: [wreg+status,2+status,0+pclath+cstack]
  3940                           
  3941                           
  3942                           ;PWM.c: 74:   Delay_ms(2);
  3943     038D  3002               	movlw	2
  3944     038E  00F1               	movwf	Delay_ms@input_ms
  3945     038F  3000               	movlw	0
  3946     0390  00F2               	movwf	Delay_ms@input_ms+1
  3947     0391  3183  23DE  3183   	fcall	_Delay_ms
  3948                           
  3949                           ;PWM.c: 75:   LED_SET(((4 * 3) + (2 * 3)), 0x00);
  3950     0394  01F3               	clrf	LED_SET@InputData
  3951     0395  3012               	movlw	18
  3952     0396  3183  23AD  3183   	fcall	_LED_SET
  3953     0399                     l218:
  3954     0399  0008               	return
  3955     039A                     __end_of_LED_OFF:
  3956                           
  3957                           	psect	text14
  3958     03AD                     __ptext14:	
  3959 ;; *************** function _LED_SET *****************
  3960 ;; Defined at:
  3961 ;;		line 63 in file "PWM.c"
  3962 ;; Parameters:    Size  Location     Type
  3963 ;;  LED_num         1    wreg     unsigned char 
  3964 ;;  InputData       1    3[COMMON] unsigned char 
  3965 ;; Auto vars:     Size  Location     Type
  3966 ;;  LED_num         1    5[COMMON] unsigned char 
  3967 ;;  i               1    8[COMMON] unsigned char 
  3968 ;;  num             1    7[COMMON] unsigned char 
  3969 ;;  data            1    6[COMMON] unsigned char 
  3970 ;; Return value:  Size  Location     Type
  3971 ;;                  1    wreg      void 
  3972 ;; Registers used:
  3973 ;;		wreg, status,2, status,0, pclath, cstack
  3974 ;; Tracked objects:
  3975 ;;		On entry : 0/0
  3976 ;;		On exit  : 0/0
  3977 ;;		Unchanged: 0/0
  3978 ;; Data sizes:     COMMON   BANK0   BANK1   BANK2   BANK3   BANK4   BANK5   BANK6
  3979 ;;      Params:         1       0       0       0       0       0       0       0
  3980 ;;      Locals:         4       0       0       0       0       0       0       0
  3981 ;;      Temps:          1       0       0       0       0       0       0       0
  3982 ;;      Totals:         6       0       0       0       0       0       0       0
  3983 ;;Total ram usage:        6 bytes
  3984 ;; Hardware stack levels used: 1
  3985 ;; Hardware stack levels required when called: 1
  3986 ;; This function calls:
  3987 ;;		_PWM_SendData
  3988 ;; This function is called by:
  3989 ;;		_LED_OFF
  3990 ;;		_LED_ON
  3991 ;;		_LED_SET_Gradually_ON
  3992 ;;		_Streamer_SEG1_ON
  3993 ;;		_Streamer_SEG1_TEST
  3994 ;;		_Streamer_SEG1_OFF
  3995 ;;		_Streamer_SEG2_ON
  3996 ;;		_Streamer_SEG2_TEST
  3997 ;;		_TrunLight
  3998 ;; This function uses a non-reentrant model
  3999 ;;
  4000                           
  4001     03AD                     _LED_SET:	
  4002                           ;psect for function _LED_SET
  4003                           
  4004                           
  4005                           ;incstack = 0
  4006                           ; Regs used in _LED_SET: [wreg+status,2+status,0+pclath+cstack]
  4007                           ;LED_SET@LED_num stored from wreg
  4008     03AD  00F5               	movwf	LED_SET@LED_num
  4009     03AE                     l1520:
  4010                           
  4011                           ;PWM.c: 64:   uint8_t data = InputData;
  4012     03AE  0873               	movf	LED_SET@InputData,w
  4013     03AF  00F6               	movwf	LED_SET@data
  4014                           
  4015                           ;PWM.c: 65:   uint8_t num = LED_num;
  4016     03B0  0875               	movf	LED_SET@LED_num,w
  4017     03B1  00F7               	movwf	LED_SET@num
  4018     03B2                     l1522:
  4019                           
  4020                           ;PWM.c: 67:   for (uint8_t i = 0; i < num; i++) {
  4021     03B2  01F8               	clrf	LED_SET@i
  4022     03B3  2BBC               	goto	l1528
  4023     03B4                     l1524:
  4024                           
  4025                           ;PWM.c: 68:     PWM_SendData(data);
  4026     03B4  0876               	movf	LED_SET@data,w
  4027     03B5  3184  241B  3183   	fcall	_PWM_SendData
  4028     03B8                     l1526:
  4029                           
  4030                           ;PWM.c: 69:   }
  4031     03B8  3001               	movlw	1
  4032     03B9  00F4               	movwf	??_LED_SET
  4033     03BA  0874               	movf	??_LED_SET,w
  4034     03BB  07F8               	addwf	LED_SET@i,f
  4035     03BC                     l1528:
  4036     03BC  0877               	movf	LED_SET@num,w
  4037     03BD  0278               	subwf	LED_SET@i,w
  4038     03BE  1C03               	skipc
  4039     03BF  2BC1               	goto	u531
  4040     03C0  2BC2               	goto	u530
  4041     03C1                     u531:
  4042     03C1  2BB4               	goto	l1524
  4043     03C2                     u530:
  4044     03C2                     l215:
  4045     03C2  0008               	return
  4046     03C3                     __end_of_LED_SET:
  4047                           
  4048                           	psect	text15
  4049     041B                     __ptext15:	
  4050 ;; *************** function _PWM_SendData *****************
  4051 ;; Defined at:
  4052 ;;		line 40 in file "PWM.c"
  4053 ;; Parameters:    Size  Location     Type
  4054 ;;  InputData       1    wreg     unsigned char 
  4055 ;; Auto vars:     Size  Location     Type
  4056 ;;  InputData       1    0[COMMON] unsigned char 
  4057 ;;  bitmask         1    2[COMMON] unsigned char 
  4058 ;;  data            1    1[COMMON] unsigned char 
  4059 ;; Return value:  Size  Location     Type
  4060 ;;                  1    wreg      void 
  4061 ;; Registers used:
  4062 ;;		wreg, status,2, status,0
  4063 ;; Tracked objects:
  4064 ;;		On entry : 0/0
  4065 ;;		On exit  : 0/0
  4066 ;;		Unchanged: 0/0
  4067 ;; Data sizes:     COMMON   BANK0   BANK1   BANK2   BANK3   BANK4   BANK5   BANK6
  4068 ;;      Params:         0       0       0       0       0       0       0       0
  4069 ;;      Locals:         3       0       0       0       0       0       0       0
  4070 ;;      Temps:          0       0       0       0       0       0       0       0
  4071 ;;      Totals:         3       0       0       0       0       0       0       0
  4072 ;;Total ram usage:        3 bytes
  4073 ;; Hardware stack levels used: 1
  4074 ;; This function calls:
  4075 ;;		Nothing
  4076 ;; This function is called by:
  4077 ;;		_LED_SET
  4078 ;; This function uses a non-reentrant model
  4079 ;;
  4080                           
  4081     041B                     _PWM_SendData:	
  4082                           ;psect for function _PWM_SendData
  4083                           
  4084                           
  4085                           ;incstack = 0
  4086                           ; Regs used in _PWM_SendData: [wreg+status,2+status,0]
  4087                           ;PWM_SendData@InputData stored from wreg
  4088     041B  00F0               	movwf	PWM_SendData@InputData
  4089     041C                     l1456:
  4090                           
  4091                           ;PWM.c: 41:   uint8_t bitmask = 0x80;
  4092     041C  3080               	movlw	128
  4093     041D  00F2               	movwf	PWM_SendData@bitmask
  4094                           
  4095                           ;PWM.c: 42:   uint8_t data = InputData;
  4096     041E  0870               	movf	PWM_SendData@InputData,w
  4097     041F  00F1               	movwf	PWM_SendData@data
  4098     0420                     l1458:
  4099                           
  4100                           ;PWM.c: 45:   TMR6 = PR6 - 10;
  4101     0420  0028               	movlb	8	; select bank8
  4102     0421  081D               	movf	29,w	;volatile
  4103     0422  3EF6               	addlw	246
  4104     0423  009C               	movwf	28	;volatile
  4105     0424                     l1460:
  4106                           
  4107                           ;PWM.c: 48:     if (data & bitmask) {
  4108     0424  0871               	movf	PWM_SendData@data,w
  4109     0425  0572               	andwf	PWM_SendData@bitmask,w
  4110     0426  1903               	btfsc	3,2
  4111     0427  2C29               	goto	u401
  4112     0428  2C2A               	goto	u400
  4113     0429                     u401:
  4114     0429  2C2E               	goto	l1464
  4115     042A                     u400:
  4116     042A                     l1462:
  4117                           
  4118                           ;PWM.c: 49:       CCPR5L = 6;
  4119     042A  3006               	movlw	6
  4120     042B  0026               	movlb	6	; select bank6
  4121     042C  009C               	movwf	28	;volatile
  4122                           
  4123                           ;PWM.c: 50:     } else {
  4124     042D  2C31               	goto	l205
  4125     042E                     l1464:
  4126                           
  4127                           ;PWM.c: 51:       CCPR5L = 3;
  4128     042E  3003               	movlw	3
  4129     042F  0026               	movlb	6	; select bank6
  4130     0430  009C               	movwf	28	;volatile
  4131     0431                     l205:	
  4132                           ;PWM.c: 54:     };
  4133                           
  4134                           
  4135                           ;PWM.c: 53:     while (!PIR3bits.TMR6IF) {
  4136     0431  0020               	movlb	0	; select bank0
  4137     0432  1D93               	btfss	19,3	;volatile
  4138     0433  2C35               	goto	u411
  4139     0434  2C36               	goto	u410
  4140     0435                     u411:
  4141     0435  2C31               	goto	l205
  4142     0436                     u410:
  4143     0436                     l207:
  4144                           
  4145                           ;PWM.c: 55:     PIR3bits.TMR6IF = 0;
  4146     0436  1193               	bcf	19,3	;volatile
  4147     0437                     l1466:
  4148                           
  4149                           ;PWM.c: 56:     bitmask = bitmask >> 1;
  4150     0437  3672               	lsrf	PWM_SendData@bitmask,w
  4151     0438  00F2               	movwf	PWM_SendData@bitmask
  4152                           
  4153                           ;PWM.c: 57:   } while (bitmask);
  4154     0439  0872               	movf	PWM_SendData@bitmask,w
  4155     043A  1D03               	btfss	3,2
  4156     043B  2C3D               	goto	u421
  4157     043C  2C3E               	goto	u420
  4158     043D                     u421:
  4159     043D  2C24               	goto	l1460
  4160     043E                     u420:
  4161     043E                     l1468:
  4162                           
  4163                           ;PWM.c: 59:   CCPR5L = 0;
  4164     043E  0026               	movlb	6	; select bank6
  4165     043F  019C               	clrf	28	;volatile
  4166     0440                     l209:
  4167     0440  0008               	return
  4168     0441                     __end_of_PWM_SendData:
  4169                           
  4170                           	psect	text16
  4171     03DE                     __ptext16:	
  4172 ;; *************** function _Delay_ms *****************
  4173 ;; Defined at:
  4174 ;;		line 105 in file "timer.c"
  4175 ;; Parameters:    Size  Location     Type
  4176 ;;  input_ms        2    1[COMMON] unsigned short 
  4177 ;; Auto vars:     Size  Location     Type
  4178 ;;  ms              2    3[COMMON] unsigned short 
  4179 ;; Return value:  Size  Location     Type
  4180 ;;                  1    wreg      void 
  4181 ;; Registers used:
  4182 ;;		wreg, status,2, status,0, pclath, cstack
  4183 ;; Tracked objects:
  4184 ;;		On entry : 0/0
  4185 ;;		On exit  : 0/0
  4186 ;;		Unchanged: 0/0
  4187 ;; Data sizes:     COMMON   BANK0   BANK1   BANK2   BANK3   BANK4   BANK5   BANK6
  4188 ;;      Params:         2       0       0       0       0       0       0       0
  4189 ;;      Locals:         2       0       0       0       0       0       0       0
  4190 ;;      Temps:          0       0       0       0       0       0       0       0
  4191 ;;      Totals:         4       0       0       0       0       0       0       0
  4192 ;;Total ram usage:        4 bytes
  4193 ;; Hardware stack levels used: 1
  4194 ;; Hardware stack levels required when called: 1
  4195 ;; This function calls:
  4196 ;;		_Timer
  4197 ;; This function is called by:
  4198 ;;		_testmode
  4199 ;;		_main
  4200 ;;		_LED_OFF
  4201 ;;		_LED_SET_Gradually_ON
  4202 ;;		_Streamer_SEG1_ON
  4203 ;;		_Streamer_SEG1_TEST
  4204 ;;		_Streamer_SEG1_OFF
  4205 ;;		_Streamer_SEG2_ON
  4206 ;;		_Streamer_SEG2_TEST
  4207 ;;		_WelcomeLight
  4208 ;;		_TrunLight
  4209 ;; This function uses a non-reentrant model
  4210 ;;
  4211                           
  4212     03DE                     _Delay_ms:	
  4213                           ;psect for function _Delay_ms
  4214                           
  4215     03DE                     l1508:	
  4216                           ;incstack = 0
  4217                           ; Regs used in _Delay_ms: [wreg+status,2+status,0+pclath+cstack]
  4218                           
  4219                           
  4220                           ;timer.c: 106:   uint16_t ms = input_ms - 1;
  4221     03DE  0871               	movf	Delay_ms@input_ms,w
  4222     03DF  3EFF               	addlw	255
  4223     03E0  00F3               	movwf	Delay_ms@ms
  4224     03E1  30FF               	movlw	255
  4225     03E2  3D72               	addwfc	Delay_ms@input_ms+1,w
  4226     03E3  00F4               	movwf	Delay_ms@ms+1
  4227     03E4                     l1510:
  4228                           
  4229                           ;timer.c: 107:   TMR0 = 56;
  4230     03E4  3038               	movlw	56
  4231     03E5  0020               	movlb	0	; select bank0
  4232     03E6  0095               	movwf	21	;volatile
  4233     03E7                     l1512:
  4234                           
  4235                           ;timer.c: 108:   T100us_cnt1 = 0;
  4236     03E7  01A5               	clrf	_T100us_cnt1
  4237     03E8                     l1514:
  4238                           
  4239                           ;timer.c: 109:   T1MS_cnt = 0;
  4240     03E8  01A0               	clrf	_T1MS_cnt
  4241     03E9  01A1               	clrf	_T1MS_cnt+1
  4242     03EA                     l1516:
  4243                           
  4244                           ;timer.c: 111:     Timer();
  4245     03EA  3185  25C2  3183   	fcall	_Timer
  4246     03ED                     l1518:
  4247                           
  4248                           ;timer.c: 112:   } while (T1MS_cnt < ms);
  4249     03ED  0874               	movf	Delay_ms@ms+1,w
  4250     03EE  0020               	movlb	0	; select bank0
  4251     03EF  0221               	subwf	_T1MS_cnt+1,w
  4252     03F0  1D03               	skipz
  4253     03F1  2BF4               	goto	u525
  4254     03F2  0873               	movf	Delay_ms@ms,w
  4255     03F3  0220               	subwf	_T1MS_cnt,w
  4256     03F4                     u525:
  4257     03F4  1C03               	skipc
  4258     03F5  2BF7               	goto	u521
  4259     03F6  2BF8               	goto	u520
  4260     03F7                     u521:
  4261     03F7  2BEA               	goto	l1516
  4262     03F8                     u520:
  4263     03F8                     l328:
  4264     03F8  0008               	return
  4265     03F9                     __end_of_Delay_ms:
  4266                           
  4267                           	psect	text17
  4268     05C2                     __ptext17:	
  4269 ;; *************** function _Timer *****************
  4270 ;; Defined at:
  4271 ;;		line 27 in file "timer.c"
  4272 ;; Parameters:    Size  Location     Type
  4273 ;;		None
  4274 ;; Auto vars:     Size  Location     Type
  4275 ;;		None
  4276 ;; Return value:  Size  Location     Type
  4277 ;;                  1    wreg      void 
  4278 ;; Registers used:
  4279 ;;		wreg, status,2, status,0
  4280 ;; Tracked objects:
  4281 ;;		On entry : 0/0
  4282 ;;		On exit  : 0/0
  4283 ;;		Unchanged: 0/0
  4284 ;; Data sizes:     COMMON   BANK0   BANK1   BANK2   BANK3   BANK4   BANK5   BANK6
  4285 ;;      Params:         0       0       0       0       0       0       0       0
  4286 ;;      Locals:         0       0       0       0       0       0       0       0
  4287 ;;      Temps:          1       0       0       0       0       0       0       0
  4288 ;;      Totals:         1       0       0       0       0       0       0       0
  4289 ;;Total ram usage:        1 bytes
  4290 ;; Hardware stack levels used: 1
  4291 ;; This function calls:
  4292 ;;		Nothing
  4293 ;; This function is called by:
  4294 ;;		_Delay_ms
  4295 ;; This function uses a non-reentrant model
  4296 ;;
  4297                           
  4298     05C2                     _Timer:	
  4299                           ;psect for function _Timer
  4300                           
  4301     05C2                     l1470:	
  4302                           ;incstack = 0
  4303                           ; Regs used in _Timer: [wreg+status,2+status,0]
  4304                           
  4305     05C2                     l296:	
  4306                           ;timer.c: 29:   };
  4307                           
  4308                           
  4309                           ;timer.c: 28:   while (!TMR2IF) {
  4310     05C2  0020               	movlb	0	; select bank0
  4311     05C3  1C91               	btfss	17,1	;volatile
  4312     05C4  2DC6               	goto	u431
  4313     05C5  2DC7               	goto	u430
  4314     05C6                     u431:
  4315     05C6  2DC2               	goto	l296
  4316     05C7                     u430:
  4317     05C7                     l298:
  4318                           
  4319                           ;timer.c: 30:   TMR2IF = 0;
  4320     05C7  1091               	bcf	17,1	;volatile
  4321     05C8                     l1472:
  4322     05C8  1003               	clrc
  4323     05C9  0022               	movlb	2	; select bank2
  4324     05CA  1D8E               	btfss	14,3	;volatile
  4325     05CB  1403               	setc
  4326     05CC  1803               	btfsc	3,0
  4327     05CD  2DCF               	goto	u441
  4328     05CE  2DD2               	goto	u440
  4329     05CF                     u441:
  4330     05CF  0022               	movlb	2	; select bank2
  4331     05D0  158E               	bsf	14,3	;volatile
  4332     05D1  2DD4               	goto	u454
  4333     05D2                     u440:
  4334     05D2  0022               	movlb	2	; select bank2
  4335     05D3  118E               	bcf	14,3	;volatile
  4336     05D4                     u454:
  4337     05D4                     l1474:
  4338                           
  4339                           ;timer.c: 32:   T100us_cnt++;
  4340     05D4  3001               	movlw	1
  4341     05D5  00F0               	movwf	??_Timer
  4342     05D6  0870               	movf	??_Timer,w
  4343     05D7  0020               	movlb	0	; select bank0
  4344     05D8  07A6               	addwf	_T100us_cnt,f
  4345     05D9                     l1476:
  4346                           
  4347                           ;timer.c: 33:   T100us_cnt1++;
  4348     05D9  3001               	movlw	1
  4349     05DA  00F0               	movwf	??_Timer
  4350     05DB  0870               	movf	??_Timer,w
  4351     05DC  07A5               	addwf	_T100us_cnt1,f
  4352     05DD                     l1478:
  4353                           
  4354                           ;timer.c: 34:   if (T100us_cnt1 >= 10) {
  4355     05DD  300A               	movlw	10
  4356     05DE  0225               	subwf	_T100us_cnt1,w
  4357     05DF  1C03               	skipc
  4358     05E0  2DE2               	goto	u461
  4359     05E1  2DE3               	goto	u460
  4360     05E2                     u461:
  4361     05E2  2DE8               	goto	l1484
  4362     05E3                     u460:
  4363     05E3                     l1480:
  4364                           
  4365                           ;timer.c: 35:     T100us_cnt1 = 0;
  4366     05E3  01A5               	clrf	_T100us_cnt1
  4367     05E4                     l1482:
  4368                           
  4369                           ;timer.c: 36:     T1MS_cnt++;
  4370     05E4  3001               	movlw	1
  4371     05E5  07A0               	addwf	_T1MS_cnt,f
  4372     05E6  3000               	movlw	0
  4373     05E7  3DA1               	addwfc	_T1MS_cnt+1,f
  4374     05E8                     l1484:
  4375                           
  4376                           ;timer.c: 39:   if (T100us_cnt >= 50) {
  4377     05E8  3032               	movlw	50
  4378     05E9  0226               	subwf	_T100us_cnt,w
  4379     05EA  1C03               	skipc
  4380     05EB  2DED               	goto	u471
  4381     05EC  2DEE               	goto	u470
  4382     05ED                     u471:
  4383     05ED  2DF3               	goto	l1490
  4384     05EE                     u470:
  4385     05EE                     l1486:
  4386                           
  4387                           ;timer.c: 40:     T100us_cnt = 0;
  4388     05EE  01A6               	clrf	_T100us_cnt
  4389     05EF                     l1488:
  4390                           
  4391                           ;timer.c: 41:     T5MS_cnt++;
  4392     05EF  3001               	movlw	1
  4393     05F0  00F0               	movwf	??_Timer
  4394     05F1  0870               	movf	??_Timer,w
  4395     05F2  07A4               	addwf	_T5MS_cnt,f
  4396     05F3                     l1490:
  4397                           
  4398                           ;timer.c: 43:   if (T5MS_cnt >= 50) {
  4399     05F3  3032               	movlw	50
  4400     05F4  0224               	subwf	_T5MS_cnt,w
  4401     05F5  1C03               	skipc
  4402     05F6  2DF8               	goto	u481
  4403     05F7  2DF9               	goto	u480
  4404     05F8                     u481:
  4405     05F8  2DFE               	goto	l1496
  4406     05F9                     u480:
  4407     05F9                     l1492:
  4408                           
  4409                           ;timer.c: 44:     T5MS_cnt = 0;
  4410     05F9  01A4               	clrf	_T5MS_cnt
  4411     05FA                     l1494:
  4412                           
  4413                           ;timer.c: 45:     T250MS_cnt++;
  4414     05FA  3001               	movlw	1
  4415     05FB  00F0               	movwf	??_Timer
  4416     05FC  0870               	movf	??_Timer,w
  4417     05FD  07A8               	addwf	_T250MS_cnt,f
  4418     05FE                     l1496:
  4419                           
  4420                           ;timer.c: 48:   if (!fColorSeletDisable) {
  4421     05FE  082A               	movf	_fColorSeletDisable,w
  4422     05FF  1D03               	btfss	3,2
  4423     0600  2E02               	goto	u491
  4424     0601  2E03               	goto	u490
  4425     0602                     u491:
  4426     0602  2E0E               	goto	l304
  4427     0603                     u490:
  4428     0603                     l1498:
  4429                           
  4430                           ;timer.c: 49:     if (PORTBbits.RB2 == COLOR_YELLOW) {
  4431     0603  190D               	btfsc	13,2	;volatile
  4432     0604  2E06               	goto	u501
  4433     0605  2E07               	goto	u500
  4434     0606                     u501:
  4435     0606  2E0B               	goto	l305
  4436     0607                     u500:
  4437     0607                     l1500:
  4438                           
  4439                           ;timer.c: 51:       LATCbits.LATC5 = 1;
  4440     0607  0022               	movlb	2	; select bank2
  4441     0608  168E               	bsf	14,5	;volatile
  4442                           
  4443                           ;timer.c: 52:       LATCbits.LATC4 = 0;
  4444     0609  120E               	bcf	14,4	;volatile
  4445                           
  4446                           ;timer.c: 53:     } else {
  4447     060A  2E0E               	goto	l304
  4448     060B                     l305:
  4449                           
  4450                           ;timer.c: 55:       LATCbits.LATC5 = 0;
  4451     060B  0022               	movlb	2	; select bank2
  4452     060C  128E               	bcf	14,5	;volatile
  4453                           
  4454                           ;timer.c: 56:       LATCbits.LATC4 = 1;
  4455     060D  160E               	bsf	14,4	;volatile
  4456     060E                     l304:	
  4457                           ;timer.c: 58:   }
  4458                           
  4459                           
  4460                           ;timer.c: 61:   if (PORTAbits.RA3 == 1) {
  4461     060E  0020               	movlb	0	; select bank0
  4462     060F  1D8C               	btfss	12,3	;volatile
  4463     0610  2E12               	goto	u511
  4464     0611  2E13               	goto	u510
  4465     0612                     u511:
  4466     0612  2E18               	goto	l1504
  4467     0613                     u510:
  4468     0613                     l1502:
  4469                           
  4470                           ;timer.c: 62:     fLoBeam = 1;
  4471     0613  01A3               	clrf	_fLoBeam
  4472     0614  0AA3               	incf	_fLoBeam,f
  4473                           
  4474                           ;timer.c: 63:     LATBbits.LATB1 = 1;
  4475     0615  0022               	movlb	2	; select bank2
  4476     0616  148D               	bsf	13,1	;volatile
  4477                           
  4478                           ;timer.c: 64:   } else {
  4479     0617  2E1B               	goto	l309
  4480     0618                     l1504:
  4481                           
  4482                           ;timer.c: 65:     fLoBeam = 0;
  4483     0618  01A3               	clrf	_fLoBeam
  4484     0619                     l1506:
  4485                           
  4486                           ;timer.c: 66:     LATBbits.LATB1 = 0;
  4487     0619  0022               	movlb	2	; select bank2
  4488     061A  108D               	bcf	13,1	;volatile
  4489     061B                     l309:
  4490     061B  0008               	return
  4491     061C                     __end_of_Timer:
  4492                           
  4493                           	psect	text18
  4494     039A                     __ptext18:	
  4495 ;; *************** function _SYSTEM_Initialize *****************
  4496 ;; Defined at:
  4497 ;;		line 50 in file "mcc_generated_files/mcc.c"
  4498 ;; Parameters:    Size  Location     Type
  4499 ;;		None
  4500 ;; Auto vars:     Size  Location     Type
  4501 ;;		None
  4502 ;; Return value:  Size  Location     Type
  4503 ;;                  1    wreg      void 
  4504 ;; Registers used:
  4505 ;;		wreg, status,2, status,0, pclath, cstack
  4506 ;; Tracked objects:
  4507 ;;		On entry : 0/0
  4508 ;;		On exit  : 0/0
  4509 ;;		Unchanged: 0/0
  4510 ;; Data sizes:     COMMON   BANK0   BANK1   BANK2   BANK3   BANK4   BANK5   BANK6
  4511 ;;      Params:         0       0       0       0       0       0       0       0
  4512 ;;      Locals:         0       0       0       0       0       0       0       0
  4513 ;;      Temps:          0       0       0       0       0       0       0       0
  4514 ;;      Totals:         0       0       0       0       0       0       0       0
  4515 ;;Total ram usage:        0 bytes
  4516 ;; Hardware stack levels used: 1
  4517 ;; Hardware stack levels required when called: 1
  4518 ;; This function calls:
  4519 ;;		_OSCILLATOR_Initialize
  4520 ;;		_PIN_MANAGER_Initialize
  4521 ;;		_PWM5_Initialize
  4522 ;;		_TMR2_Initialize
  4523 ;;		_TMR6_Initialize
  4524 ;;		_WDT_Initialize
  4525 ;; This function is called by:
  4526 ;;		_main
  4527 ;; This function uses a non-reentrant model
  4528 ;;
  4529                           
  4530     039A                     _SYSTEM_Initialize:	
  4531                           ;psect for function _SYSTEM_Initialize
  4532                           
  4533     039A                     l1808:	
  4534                           ;incstack = 0
  4535                           ; Regs used in _SYSTEM_Initialize: [wreg+status,2+status,0+pclath+cstack]
  4536                           
  4537                           
  4538                           ;mcc_generated_files/mcc.c: 53:     PIN_MANAGER_Initialize();
  4539     039A  3183  23C3  3183   	fcall	_PIN_MANAGER_Initialize
  4540                           
  4541                           ;mcc_generated_files/mcc.c: 54:     OSCILLATOR_Initialize();
  4542     039D  3183  2381  3183   	fcall	_OSCILLATOR_Initialize
  4543                           
  4544                           ;mcc_generated_files/mcc.c: 55:     WDT_Initialize();
  4545     03A0  3183  2356  3183   	fcall	_WDT_Initialize
  4546                           
  4547                           ;mcc_generated_files/mcc.c: 56:     TMR6_Initialize();
  4548     03A3  3183  2362  3183   	fcall	_TMR6_Initialize
  4549                           
  4550                           ;mcc_generated_files/mcc.c: 57:     PWM5_Initialize();
  4551     03A6  3183  2376  3183   	fcall	_PWM5_Initialize
  4552                           
  4553                           ;mcc_generated_files/mcc.c: 58:     TMR2_Initialize();
  4554     03A9  3183  235A  3183   	fcall	_TMR2_Initialize
  4555     03AC                     l56:
  4556     03AC  0008               	return
  4557     03AD                     __end_of_SYSTEM_Initialize:
  4558                           
  4559                           	psect	text19
  4560     0356                     __ptext19:	
  4561 ;; *************** function _WDT_Initialize *****************
  4562 ;; Defined at:
  4563 ;;		line 75 in file "mcc_generated_files/mcc.c"
  4564 ;; Parameters:    Size  Location     Type
  4565 ;;		None
  4566 ;; Auto vars:     Size  Location     Type
  4567 ;;		None
  4568 ;; Return value:  Size  Location     Type
  4569 ;;                  1    wreg      void 
  4570 ;; Registers used:
  4571 ;;		wreg
  4572 ;; Tracked objects:
  4573 ;;		On entry : 0/0
  4574 ;;		On exit  : 0/0
  4575 ;;		Unchanged: 0/0
  4576 ;; Data sizes:     COMMON   BANK0   BANK1   BANK2   BANK3   BANK4   BANK5   BANK6
  4577 ;;      Params:         0       0       0       0       0       0       0       0
  4578 ;;      Locals:         0       0       0       0       0       0       0       0
  4579 ;;      Temps:          0       0       0       0       0       0       0       0
  4580 ;;      Totals:         0       0       0       0       0       0       0       0
  4581 ;;Total ram usage:        0 bytes
  4582 ;; Hardware stack levels used: 1
  4583 ;; This function calls:
  4584 ;;		Nothing
  4585 ;; This function is called by:
  4586 ;;		_SYSTEM_Initialize
  4587 ;; This function uses a non-reentrant model
  4588 ;;
  4589                           
  4590     0356                     _WDT_Initialize:	
  4591                           ;psect for function _WDT_Initialize
  4592                           
  4593     0356                     l1634:	
  4594                           ;incstack = 0
  4595                           ; Regs used in _WDT_Initialize: [wreg]
  4596                           
  4597                           
  4598                           ;mcc_generated_files/mcc.c: 78:     WDTCON = 0x16;
  4599     0356  3016               	movlw	22
  4600     0357  0021               	movlb	1	; select bank1
  4601     0358  0097               	movwf	23	;volatile
  4602     0359                     l65:
  4603     0359  0008               	return
  4604     035A                     __end_of_WDT_Initialize:
  4605                           
  4606                           	psect	text20
  4607     0362                     __ptext20:	
  4608 ;; *************** function _TMR6_Initialize *****************
  4609 ;; Defined at:
  4610 ;;		line 62 in file "mcc_generated_files/tmr6.c"
  4611 ;; Parameters:    Size  Location     Type
  4612 ;;		None
  4613 ;; Auto vars:     Size  Location     Type
  4614 ;;		None
  4615 ;; Return value:  Size  Location     Type
  4616 ;;                  1    wreg      void 
  4617 ;; Registers used:
  4618 ;;		wreg, status,2
  4619 ;; Tracked objects:
  4620 ;;		On entry : 0/0
  4621 ;;		On exit  : 0/0
  4622 ;;		Unchanged: 0/0
  4623 ;; Data sizes:     COMMON   BANK0   BANK1   BANK2   BANK3   BANK4   BANK5   BANK6
  4624 ;;      Params:         0       0       0       0       0       0       0       0
  4625 ;;      Locals:         0       0       0       0       0       0       0       0
  4626 ;;      Temps:          0       0       0       0       0       0       0       0
  4627 ;;      Totals:         0       0       0       0       0       0       0       0
  4628 ;;Total ram usage:        0 bytes
  4629 ;; Hardware stack levels used: 1
  4630 ;; This function calls:
  4631 ;;		Nothing
  4632 ;; This function is called by:
  4633 ;;		_SYSTEM_Initialize
  4634 ;; This function uses a non-reentrant model
  4635 ;;
  4636                           
  4637     0362                     _TMR6_Initialize:	
  4638                           ;psect for function _TMR6_Initialize
  4639                           
  4640     0362                     l1636:	
  4641                           ;incstack = 0
  4642                           ; Regs used in _TMR6_Initialize: [wreg+status,2]
  4643                           
  4644                           
  4645                           ;mcc_generated_files/tmr6.c: 67:     PR6 = 0x27;
  4646     0362  3027               	movlw	39
  4647     0363  0028               	movlb	8	; select bank8
  4648     0364  009D               	movwf	29	;volatile
  4649     0365                     l1638:
  4650                           
  4651                           ;mcc_generated_files/tmr6.c: 70:     TMR6 = 0x00;
  4652     0365  019C               	clrf	28	;volatile
  4653     0366                     l1640:
  4654                           
  4655                           ;mcc_generated_files/tmr6.c: 73:     PIR3bits.TMR6IF = 0;
  4656     0366  0020               	movlb	0	; select bank0
  4657     0367  1193               	bcf	19,3	;volatile
  4658     0368                     l1642:
  4659                           
  4660                           ;mcc_generated_files/tmr6.c: 76:     T6CON = 0x04;
  4661     0368  3004               	movlw	4
  4662     0369  0028               	movlb	8	; select bank8
  4663     036A  009E               	movwf	30	;volatile
  4664     036B                     l98:
  4665     036B  0008               	return
  4666     036C                     __end_of_TMR6_Initialize:
  4667                           
  4668                           	psect	text21
  4669     035A                     __ptext21:	
  4670 ;; *************** function _TMR2_Initialize *****************
  4671 ;; Defined at:
  4672 ;;		line 62 in file "mcc_generated_files/tmr2.c"
  4673 ;; Parameters:    Size  Location     Type
  4674 ;;		None
  4675 ;; Auto vars:     Size  Location     Type
  4676 ;;		None
  4677 ;; Return value:  Size  Location     Type
  4678 ;;                  1    wreg      void 
  4679 ;; Registers used:
  4680 ;;		wreg, status,2
  4681 ;; Tracked objects:
  4682 ;;		On entry : 0/0
  4683 ;;		On exit  : 0/0
  4684 ;;		Unchanged: 0/0
  4685 ;; Data sizes:     COMMON   BANK0   BANK1   BANK2   BANK3   BANK4   BANK5   BANK6
  4686 ;;      Params:         0       0       0       0       0       0       0       0
  4687 ;;      Locals:         0       0       0       0       0       0       0       0
  4688 ;;      Temps:          0       0       0       0       0       0       0       0
  4689 ;;      Totals:         0       0       0       0       0       0       0       0
  4690 ;;Total ram usage:        0 bytes
  4691 ;; Hardware stack levels used: 1
  4692 ;; This function calls:
  4693 ;;		Nothing
  4694 ;; This function is called by:
  4695 ;;		_SYSTEM_Initialize
  4696 ;; This function uses a non-reentrant model
  4697 ;;
  4698                           
  4699     035A                     _TMR2_Initialize:	
  4700                           ;psect for function _TMR2_Initialize
  4701                           
  4702     035A                     l1652:	
  4703                           ;incstack = 0
  4704                           ; Regs used in _TMR2_Initialize: [wreg+status,2]
  4705                           
  4706                           
  4707                           ;mcc_generated_files/tmr2.c: 67:     PR2 = 0xC7;
  4708     035A  30C7               	movlw	199
  4709     035B  0020               	movlb	0	; select bank0
  4710     035C  009B               	movwf	27	;volatile
  4711     035D                     l1654:
  4712                           
  4713                           ;mcc_generated_files/tmr2.c: 70:     TMR2 = 0x00;
  4714     035D  019A               	clrf	26	;volatile
  4715     035E                     l1656:
  4716                           
  4717                           ;mcc_generated_files/tmr2.c: 73:     PIR1bits.TMR2IF = 0;
  4718     035E  1091               	bcf	17,1	;volatile
  4719     035F                     l1658:
  4720                           
  4721                           ;mcc_generated_files/tmr2.c: 76:     T2CON = 0x1C;
  4722     035F  301C               	movlw	28
  4723     0360  009C               	movwf	28	;volatile
  4724     0361                     l76:
  4725     0361  0008               	return
  4726     0362                     __end_of_TMR2_Initialize:
  4727                           
  4728                           	psect	text22
  4729     0376                     __ptext22:	
  4730 ;; *************** function _PWM5_Initialize *****************
  4731 ;; Defined at:
  4732 ;;		line 64 in file "mcc_generated_files/pwm5.c"
  4733 ;; Parameters:    Size  Location     Type
  4734 ;;		None
  4735 ;; Auto vars:     Size  Location     Type
  4736 ;;		None
  4737 ;; Return value:  Size  Location     Type
  4738 ;;                  1    wreg      void 
  4739 ;; Registers used:
  4740 ;;		wreg, status,2, status,0
  4741 ;; Tracked objects:
  4742 ;;		On entry : 0/0
  4743 ;;		On exit  : 0/0
  4744 ;;		Unchanged: 0/0
  4745 ;; Data sizes:     COMMON   BANK0   BANK1   BANK2   BANK3   BANK4   BANK5   BANK6
  4746 ;;      Params:         0       0       0       0       0       0       0       0
  4747 ;;      Locals:         0       0       0       0       0       0       0       0
  4748 ;;      Temps:          0       0       0       0       0       0       0       0
  4749 ;;      Totals:         0       0       0       0       0       0       0       0
  4750 ;;Total ram usage:        0 bytes
  4751 ;; Hardware stack levels used: 1
  4752 ;; This function calls:
  4753 ;;		Nothing
  4754 ;; This function is called by:
  4755 ;;		_SYSTEM_Initialize
  4756 ;; This function uses a non-reentrant model
  4757 ;;
  4758                           
  4759     0376                     _PWM5_Initialize:	
  4760                           ;psect for function _PWM5_Initialize
  4761                           
  4762     0376                     l1644:	
  4763                           ;incstack = 0
  4764                           ; Regs used in _PWM5_Initialize: [wreg+status,2+status,0]
  4765                           
  4766                           
  4767                           ;mcc_generated_files/pwm5.c: 69:  CCP5CON = 0x0C;
  4768     0376  300C               	movlw	12
  4769     0377  0026               	movlb	6	; select bank6
  4770     0378  009E               	movwf	30	;volatile
  4771     0379                     l1646:
  4772                           
  4773                           ;mcc_generated_files/pwm5.c: 72:  CCPR5L = 0x00;
  4774     0379  019C               	clrf	28	;volatile
  4775     037A                     l1648:
  4776                           
  4777                           ;mcc_generated_files/pwm5.c: 75:  CCPR5H = 0x00;
  4778     037A  019D               	clrf	29	;volatile
  4779     037B                     l1650:
  4780                           
  4781                           ;mcc_generated_files/pwm5.c: 78:  CCPTMRS1bits.C5TSEL = 0x2;
  4782     037B  0025               	movlb	5	; select bank5
  4783     037C  081F               	movf	31,w	;volatile
  4784     037D  39FC               	andlw	-4
  4785     037E  3802               	iorlw	2
  4786     037F  009F               	movwf	31	;volatile
  4787     0380                     l87:
  4788     0380  0008               	return
  4789     0381                     __end_of_PWM5_Initialize:
  4790                           
  4791                           	psect	text23
  4792     03C3                     __ptext23:	
  4793 ;; *************** function _PIN_MANAGER_Initialize *****************
  4794 ;; Defined at:
  4795 ;;		line 55 in file "mcc_generated_files/pin_manager.c"
  4796 ;; Parameters:    Size  Location     Type
  4797 ;;		None
  4798 ;; Auto vars:     Size  Location     Type
  4799 ;;		None
  4800 ;; Return value:  Size  Location     Type
  4801 ;;                  1    wreg      void 
  4802 ;; Registers used:
  4803 ;;		wreg, status,2
  4804 ;; Tracked objects:
  4805 ;;		On entry : 0/0
  4806 ;;		On exit  : 0/0
  4807 ;;		Unchanged: 0/0
  4808 ;; Data sizes:     COMMON   BANK0   BANK1   BANK2   BANK3   BANK4   BANK5   BANK6
  4809 ;;      Params:         0       0       0       0       0       0       0       0
  4810 ;;      Locals:         0       0       0       0       0       0       0       0
  4811 ;;      Temps:          0       0       0       0       0       0       0       0
  4812 ;;      Totals:         0       0       0       0       0       0       0       0
  4813 ;;Total ram usage:        0 bytes
  4814 ;; Hardware stack levels used: 1
  4815 ;; This function calls:
  4816 ;;		Nothing
  4817 ;; This function is called by:
  4818 ;;		_SYSTEM_Initialize
  4819 ;; This function uses a non-reentrant model
  4820 ;;
  4821                           
  4822     03C3                     _PIN_MANAGER_Initialize:	
  4823                           ;psect for function _PIN_MANAGER_Initialize
  4824                           
  4825     03C3                     l1610:	
  4826                           ;incstack = 0
  4827                           ; Regs used in _PIN_MANAGER_Initialize: [wreg+status,2]
  4828                           
  4829                           
  4830                           ;mcc_generated_files/pin_manager.c: 60:     LATE = 0x00;
  4831     03C3  0022               	movlb	2	; select bank2
  4832     03C4  0190               	clrf	16	;volatile
  4833                           
  4834                           ;mcc_generated_files/pin_manager.c: 61:     LATA = 0x00;
  4835     03C5  018C               	clrf	12	;volatile
  4836                           
  4837                           ;mcc_generated_files/pin_manager.c: 62:     LATB = 0x00;
  4838     03C6  018D               	clrf	13	;volatile
  4839                           
  4840                           ;mcc_generated_files/pin_manager.c: 63:     LATC = 0x00;
  4841     03C7  018E               	clrf	14	;volatile
  4842     03C8                     l1612:
  4843                           
  4844                           ;mcc_generated_files/pin_manager.c: 68:     TRISE = 0x08;
  4845     03C8  3008               	movlw	8
  4846     03C9  0021               	movlb	1	; select bank1
  4847     03CA  0090               	movwf	16	;volatile
  4848     03CB                     l1614:
  4849                           
  4850                           ;mcc_generated_files/pin_manager.c: 69:     TRISA = 0xEF;
  4851     03CB  30EF               	movlw	239
  4852     03CC  008C               	movwf	12	;volatile
  4853     03CD                     l1616:
  4854                           
  4855                           ;mcc_generated_files/pin_manager.c: 70:     TRISB = 0xCD;
  4856     03CD  30CD               	movlw	205
  4857     03CE  008D               	movwf	13	;volatile
  4858     03CF                     l1618:
  4859                           
  4860                           ;mcc_generated_files/pin_manager.c: 71:     TRISC = 0xC7;
  4861     03CF  30C7               	movlw	199
  4862     03D0  008E               	movwf	14	;volatile
  4863                           
  4864                           ;mcc_generated_files/pin_manager.c: 76:     ANSELB = 0x00;
  4865     03D1  0023               	movlb	3	; select bank3
  4866     03D2  018D               	clrf	13	;volatile
  4867     03D3                     l1620:
  4868                           
  4869                           ;mcc_generated_files/pin_manager.c: 77:     ANSELA = 0x37;
  4870     03D3  3037               	movlw	55
  4871     03D4  008C               	movwf	12	;volatile
  4872     03D5                     l1622:
  4873                           
  4874                           ;mcc_generated_files/pin_manager.c: 82:     WPUE = 0x00;
  4875     03D5  0024               	movlb	4	; select bank4
  4876     03D6  0190               	clrf	16	;volatile
  4877                           
  4878                           ;mcc_generated_files/pin_manager.c: 83:     WPUB = 0x08;
  4879     03D7  3008               	movlw	8
  4880     03D8  008D               	movwf	13	;volatile
  4881     03D9                     l1624:
  4882                           
  4883                           ;mcc_generated_files/pin_manager.c: 84:     OPTION_REGbits.nWPUEN = 0;
  4884     03D9  0021               	movlb	1	; select bank1
  4885     03DA  1395               	bcf	21,7	;volatile
  4886     03DB                     l1626:
  4887                           
  4888                           ;mcc_generated_files/pin_manager.c: 90:     APFCON = 0x00;
  4889     03DB  0022               	movlb	2	; select bank2
  4890     03DC  019D               	clrf	29	;volatile
  4891     03DD                     l31:
  4892     03DD  0008               	return
  4893     03DE                     __end_of_PIN_MANAGER_Initialize:
  4894                           
  4895                           	psect	text24
  4896     0381                     __ptext24:	
  4897 ;; *************** function _OSCILLATOR_Initialize *****************
  4898 ;; Defined at:
  4899 ;;		line 61 in file "mcc_generated_files/mcc.c"
  4900 ;; Parameters:    Size  Location     Type
  4901 ;;		None
  4902 ;; Auto vars:     Size  Location     Type
  4903 ;;		None
  4904 ;; Return value:  Size  Location     Type
  4905 ;;                  1    wreg      void 
  4906 ;; Registers used:
  4907 ;;		wreg, status,2
  4908 ;; Tracked objects:
  4909 ;;		On entry : 0/0
  4910 ;;		On exit  : 0/0
  4911 ;;		Unchanged: 0/0
  4912 ;; Data sizes:     COMMON   BANK0   BANK1   BANK2   BANK3   BANK4   BANK5   BANK6
  4913 ;;      Params:         0       0       0       0       0       0       0       0
  4914 ;;      Locals:         0       0       0       0       0       0       0       0
  4915 ;;      Temps:          0       0       0       0       0       0       0       0
  4916 ;;      Totals:         0       0       0       0       0       0       0       0
  4917 ;;Total ram usage:        0 bytes
  4918 ;; Hardware stack levels used: 1
  4919 ;; This function calls:
  4920 ;;		Nothing
  4921 ;; This function is called by:
  4922 ;;		_SYSTEM_Initialize
  4923 ;; This function uses a non-reentrant model
  4924 ;;
  4925                           
  4926     0381                     _OSCILLATOR_Initialize:	
  4927                           ;psect for function _OSCILLATOR_Initialize
  4928                           
  4929     0381                     l1628:	
  4930                           ;incstack = 0
  4931                           ; Regs used in _OSCILLATOR_Initialize: [wreg+status,2]
  4932                           
  4933                           
  4934                           ;mcc_generated_files/mcc.c: 64:     OSCCON = 0x70;
  4935     0381  3070               	movlw	112
  4936     0382  0021               	movlb	1	; select bank1
  4937     0383  0099               	movwf	25	;volatile
  4938     0384                     l1630:
  4939                           
  4940                           ;mcc_generated_files/mcc.c: 66:     OSCTUNE = 0x00;
  4941     0384  0198               	clrf	24	;volatile
  4942     0385                     l1632:
  4943                           
  4944                           ;mcc_generated_files/mcc.c: 68:     BORCON = 0x00;
  4945     0385  0022               	movlb	2	; select bank2
  4946     0386  0196               	clrf	22	;volatile
  4947     0387                     l59:	
  4948                           ;mcc_generated_files/mcc.c: 71:     {;mcc_generated_files/mcc.c: 72:     }
  4949                           
  4950                           
  4951                           ;mcc_generated_files/mcc.c: 70:     while(PLLR == 0)
  4952     0387  0021               	movlb	1	; select bank1
  4953     0388  1F1A               	btfss	26,6	;volatile
  4954     0389  2B8B               	goto	u581
  4955     038A  2B8C               	goto	u580
  4956     038B                     u581:
  4957     038B  2B87               	goto	l59
  4958     038C                     u580:
  4959     038C                     l62:
  4960     038C  0008               	return
  4961     038D                     __end_of_OSCILLATOR_Initialize:
  4962                           
  4963                           	psect	text25
  4964     0545                     __ptext25:	
  4965 ;; *************** function _CheckGPIO *****************
  4966 ;; Defined at:
  4967 ;;		line 115 in file "timer.c"
  4968 ;; Parameters:    Size  Location     Type
  4969 ;;		None
  4970 ;; Auto vars:     Size  Location     Type
  4971 ;;		None
  4972 ;; Return value:  Size  Location     Type
  4973 ;;                  1    wreg      void 
  4974 ;; Registers used:
  4975 ;;		wreg, status,2, status,0
  4976 ;; Tracked objects:
  4977 ;;		On entry : 0/0
  4978 ;;		On exit  : 0/0
  4979 ;;		Unchanged: 0/0
  4980 ;; Data sizes:     COMMON   BANK0   BANK1   BANK2   BANK3   BANK4   BANK5   BANK6
  4981 ;;      Params:         0       0       0       0       0       0       0       0
  4982 ;;      Locals:         0       0       0       0       0       0       0       0
  4983 ;;      Temps:          0       0       0       0       0       0       0       0
  4984 ;;      Totals:         0       0       0       0       0       0       0       0
  4985 ;;Total ram usage:        0 bytes
  4986 ;; Hardware stack levels used: 1
  4987 ;; This function calls:
  4988 ;;		Nothing
  4989 ;; This function is called by:
  4990 ;;		_main
  4991 ;; This function uses a non-reentrant model
  4992 ;;
  4993                           
  4994     0545                     _CheckGPIO:	
  4995                           ;psect for function _CheckGPIO
  4996                           
  4997     0545                     l1934:	
  4998                           ;incstack = 0
  4999                           ; Regs used in _CheckGPIO: [wreg+status,2+status,0]
  5000                           
  5001                           
  5002                           ;timer.c: 117:   if (!fColorSeletDisable) {
  5003     0545  0020               	movlb	0	; select bank0
  5004     0546  082A               	movf	_fColorSeletDisable,w
  5005     0547  1D03               	btfss	3,2
  5006     0548  2D4A               	goto	u881
  5007     0549  2D4B               	goto	u880
  5008     054A                     u881:
  5009     054A  2D56               	goto	l331
  5010     054B                     u880:
  5011     054B                     l1936:
  5012                           
  5013                           ;timer.c: 118:     if (PORTBbits.RB2 == COLOR_YELLOW) {
  5014     054B  190D               	btfsc	13,2	;volatile
  5015     054C  2D4E               	goto	u891
  5016     054D  2D4F               	goto	u890
  5017     054E                     u891:
  5018     054E  2D53               	goto	l332
  5019     054F                     u890:
  5020     054F                     l1938:
  5021                           
  5022                           ;timer.c: 120:       LATCbits.LATC5 = 1;
  5023     054F  0022               	movlb	2	; select bank2
  5024     0550  168E               	bsf	14,5	;volatile
  5025                           
  5026                           ;timer.c: 121:       LATCbits.LATC4 = 0;
  5027     0551  120E               	bcf	14,4	;volatile
  5028                           
  5029                           ;timer.c: 122:     } else {
  5030     0552  2D56               	goto	l331
  5031     0553                     l332:
  5032                           
  5033                           ;timer.c: 124:       LATCbits.LATC5 = 0;
  5034     0553  0022               	movlb	2	; select bank2
  5035     0554  128E               	bcf	14,5	;volatile
  5036                           
  5037                           ;timer.c: 125:       LATCbits.LATC4 = 1;
  5038     0555  160E               	bsf	14,4	;volatile
  5039     0556                     l331:	
  5040                           ;timer.c: 127:   }
  5041                           
  5042                           
  5043                           ;timer.c: 130:   if (PORTAbits.RA3 == 1) {
  5044     0556  0020               	movlb	0	; select bank0
  5045     0557  1D8C               	btfss	12,3	;volatile
  5046     0558  2D5A               	goto	u901
  5047     0559  2D5B               	goto	u900
  5048     055A                     u901:
  5049     055A  2D60               	goto	l1942
  5050     055B                     u900:
  5051     055B                     l1940:
  5052                           
  5053                           ;timer.c: 131:     fLoBeam = 1;
  5054     055B  01A3               	clrf	_fLoBeam
  5055     055C  0AA3               	incf	_fLoBeam,f
  5056                           
  5057                           ;timer.c: 132:     LATBbits.LATB1 = 1;
  5058     055D  0022               	movlb	2	; select bank2
  5059     055E  148D               	bsf	13,1	;volatile
  5060                           
  5061                           ;timer.c: 133:   } else {
  5062     055F  2D63               	goto	l1946
  5063     0560                     l1942:
  5064                           
  5065                           ;timer.c: 134:     fLoBeam = 0;
  5066     0560  01A3               	clrf	_fLoBeam
  5067     0561                     l1944:
  5068                           
  5069                           ;timer.c: 135:     LATBbits.LATB1 = 0;
  5070     0561  0022               	movlb	2	; select bank2
  5071     0562  108D               	bcf	13,1	;volatile
  5072     0563                     l1946:
  5073                           
  5074                           ;timer.c: 139:   if (PORTCbits.RC0 == 1) {
  5075     0563  0020               	movlb	0	; select bank0
  5076     0564  1C0E               	btfss	14,0	;volatile
  5077     0565  2D67               	goto	u911
  5078     0566  2D68               	goto	u910
  5079     0567                     u911:
  5080     0567  2D6B               	goto	l1950
  5081     0568                     u910:
  5082     0568                     l1948:
  5083                           
  5084                           ;timer.c: 140:     fACC = 1;
  5085     0568  01A2               	clrf	_fACC
  5086     0569  0AA2               	incf	_fACC,f
  5087                           
  5088                           ;timer.c: 141:   } else {
  5089     056A  2D6C               	goto	l1952
  5090     056B                     l1950:
  5091                           
  5092                           ;timer.c: 142:     fACC = 0;
  5093     056B  01A2               	clrf	_fACC
  5094     056C                     l1952:
  5095                           
  5096                           ;timer.c: 146:   if (PORTCbits.RC2 == 1) {
  5097     056C  1D0E               	btfss	14,2	;volatile
  5098     056D  2D6F               	goto	u921
  5099     056E  2D70               	goto	u920
  5100     056F                     u921:
  5101     056F  2D73               	goto	l1956
  5102     0570                     u920:
  5103     0570                     l1954:
  5104                           
  5105                           ;timer.c: 147:     fTurn = 1;
  5106     0570  01A7               	clrf	_fTurn
  5107     0571  0AA7               	incf	_fTurn,f
  5108                           
  5109                           ;timer.c: 148:   } else {
  5110     0572  2D74               	goto	l340
  5111     0573                     l1956:
  5112                           
  5113                           ;timer.c: 149:     fTurn = 0;
  5114     0573  01A7               	clrf	_fTurn
  5115     0574                     l340:
  5116     0574  0008               	return
  5117     0575                     __end_of_CheckGPIO:
  5118     007E                     btemp	set	126	;btemp
  5119     007E                     wtemp0	set	126
  5120                           
  5121                           	psect	config
  5122                           
  5123                           ;Config register CONFIG1 @ 0x8007
  5124                           ;	Oscillator Selection
  5125                           ;	FOSC = INTOSC, INTOSC oscillator: I/O function on CLKIN pin
  5126                           ;	Watchdog Timer Enable
  5127                           ;	WDTE = OFF, WDT disabled
  5128                           ;	Power-up Timer Enable
  5129                           ;	PWRTE = OFF, PWRT disabled
  5130                           ;	MCLR Pin Function Select
  5131                           ;	MCLRE = ON, MCLR/VPP pin function is MCLR
  5132                           ;	Flash Program Memory Code Protection
  5133                           ;	CP = OFF, Program memory code protection is disabled
  5134                           ;	Data Memory Code Protection
  5135                           ;	CPD = OFF, Data memory code protection is disabled
  5136                           ;	Brown-out Reset Enable
  5137                           ;	BOREN = ON, Brown-out Reset enabled
  5138                           ;	Clock Out Enable
  5139                           ;	CLKOUTEN = OFF, CLKOUT function is disabled. I/O or oscillator function on the CLKOUT 
      +                          pin
  5140                           ;	Internal/External Switchover
  5141                           ;	IESO = ON, Internal/External Switchover mode is enabled
  5142                           ;	Fail-Safe Clock Monitor Enable
  5143                           ;	FCMEN = ON, Fail-Safe Clock Monitor is enabled
  5144     8007                     	org	32775
  5145     8007  3FE4               	dw	16356
  5146                           
  5147                           ;Config register CONFIG2 @ 0x8008
  5148                           ;	Flash Memory Self-Write Protection
  5149                           ;	WRT = OFF, Write protection off
  5150                           ;	Voltage Regulator Capacitor Enable
  5151                           ;	VCAPEN = OFF, All VCAP pin functionality is disabled
  5152                           ;	PLL Enable
  5153                           ;	PLLEN = ON, 4x PLL enabled
  5154                           ;	Stack Overflow/Underflow Reset Enable
  5155                           ;	STVREN = ON, Stack Overflow or Underflow will cause a Reset
  5156                           ;	Brown-out Reset Voltage Selection
  5157                           ;	BORV = LO, Brown-out Reset Voltage (Vbor), low trip point selected.
  5158                           ;	Low-Voltage Programming Enable
  5159                           ;	LVP = OFF, High-voltage on MCLR/VPP must be used for programming
  5160     8008                     	org	32776
  5161     8008  1FFF               	dw	8191

Data Sizes:
    Strings     0
    Constant    0
    Data        0
    BSS         11
    Persistent  32
    Stack       0

Auto Spaces:
    Space          Size  Autos    Used
    COMMON           14     14      14
    BANK0            80      5      16
    BANK1            80      0       0
    BANK2            80      0       0
    BANK3            80      0       0
    BANK4            80      0       0
    BANK5            80      0       0
    BANK6            16      0       0

Pointer List with Targets:

    None.

Critical Paths under _main in COMMON

    _WelcomeLight->_Streamer_SEG1_OFF
    _WelcomeLight->_Streamer_SEG1_ON
    _WelcomeLight->_Streamer_SEG2_ON
    _Streamer_SEG2_ON->_LED_SET
    _Streamer_SEG1_ON->_LED_SET
    _Streamer_SEG1_OFF->_LED_SET
    _LED_SET_Gradually_ON->_LED_SET
    _TrunLight->_LED_SET
    _testmode->_Streamer_SEG1_TEST
    _testmode->_Streamer_SEG2_TEST
    _Streamer_SEG2_TEST->_LED_SET
    _Streamer_SEG1_TEST->_LED_SET
    _LED_ON->_LED_SET
    _LED_OFF->_LED_SET
    _LED_SET->_PWM_SendData
    _Delay_ms->_Timer

Critical Paths under _main in BANK0

    _main->_TrunLight
    _todo->_TrunLight

Critical Paths under _main in BANK1

    None.

Critical Paths under _main in BANK2

    None.

Critical Paths under _main in BANK3

    None.

Critical Paths under _main in BANK4

    None.

Critical Paths under _main in BANK5

    None.

Critical Paths under _main in BANK6

    None.

Call Graph Tables:

 ---------------------------------------------------------------------------------
 (Depth) Function   	        Calls       Base Space   Used Autos Params    Refs
 ---------------------------------------------------------------------------------
 (0) _main                                                 1     1      0   68924
                          _CheckGPIO
                           _Delay_ms
                            _LED_OFF
                  _SYSTEM_Initialize
                          _TrunLight
                           _testmode
                               _todo
 ---------------------------------------------------------------------------------
 (1) _todo                                                 1     1      0   37826
               _LED_SET_Gradually_ON
                          _TrunLight
                       _WelcomeLight
 ---------------------------------------------------------------------------------
 (2) _WelcomeLight                                         1     1      0   24980
                           _Delay_ms
                            _LED_OFF
                             _LED_ON
               _LED_SET_Gradually_ON
                  _Streamer_SEG1_OFF
                   _Streamer_SEG1_ON
                   _Streamer_SEG2_ON
 ---------------------------------------------------------------------------------
 (3) _Streamer_SEG2_ON                                     5     5      0    4209
                                              9 COMMON     5     5      0
                           _Delay_ms
                            _LED_SET
 ---------------------------------------------------------------------------------
 (3) _Streamer_SEG1_ON                                     5     5      0    4209
                                              9 COMMON     5     5      0
                           _Delay_ms
                            _LED_SET
 ---------------------------------------------------------------------------------
 (3) _Streamer_SEG1_OFF                                    5     5      0    4209
                                              9 COMMON     5     5      0
                           _Delay_ms
                            _LED_SET
 ---------------------------------------------------------------------------------
 (3) _LED_SET_Gradually_ON                                 8     8      0    4164
                                              9 COMMON     4     4      0
                           _Delay_ms
                            _LED_SET
 ---------------------------------------------------------------------------------
 (2) _TrunLight                                            6     6      0    8615
                                              9 COMMON     1     1      0
                                              0 BANK0      5     5      0
                           _Delay_ms
                            _LED_OFF
                            _LED_SET
 ---------------------------------------------------------------------------------
 (1) _testmode                                             2     2      0   16769
                                              0 BANK0      2     2      0
                           _Delay_ms
                            _LED_OFF
                             _LED_ON
                 _Streamer_SEG1_TEST
                 _Streamer_SEG2_TEST
                     _Timer_TESTMODE
 ---------------------------------------------------------------------------------
 (2) _Timer_TESTMODE                                       1     1      0       0
                                              0 COMMON     1     1      0
 ---------------------------------------------------------------------------------
 (2) _Streamer_SEG2_TEST                                   5     5      0    4231
                                              9 COMMON     5     5      0
                           _Delay_ms
                            _LED_SET
 ---------------------------------------------------------------------------------
 (2) _Streamer_SEG1_TEST                                   5     5      0    4209
                                              9 COMMON     5     5      0
                           _Delay_ms
                            _LED_SET
 ---------------------------------------------------------------------------------
 (3) _LED_ON                                               2     2      0    2476
                                              9 COMMON     2     2      0
                            _LED_SET
 ---------------------------------------------------------------------------------
 (3) _LED_OFF                                              0     0      0    4072
                           _Delay_ms
                            _LED_SET
 ---------------------------------------------------------------------------------
 (4) _LED_SET                                              6     5      1    2431
                                              3 COMMON     6     5      1
                       _PWM_SendData
 ---------------------------------------------------------------------------------
 (5) _PWM_SendData                                         3     3      0     113
                                              0 COMMON     3     3      0
 ---------------------------------------------------------------------------------
 (4) _Delay_ms                                             4     2      2    1641
                                              1 COMMON     4     2      2
                              _Timer
 ---------------------------------------------------------------------------------
 (5) _Timer                                                1     1      0       0
                                              0 COMMON     1     1      0
 ---------------------------------------------------------------------------------
 (1) _SYSTEM_Initialize                                    0     0      0       0
              _OSCILLATOR_Initialize
             _PIN_MANAGER_Initialize
                    _PWM5_Initialize
                    _TMR2_Initialize
                    _TMR6_Initialize
                     _WDT_Initialize
 ---------------------------------------------------------------------------------
 (2) _WDT_Initialize                                       0     0      0       0
 ---------------------------------------------------------------------------------
 (2) _TMR6_Initialize                                      0     0      0       0
 ---------------------------------------------------------------------------------
 (2) _TMR2_Initialize                                      0     0      0       0
 ---------------------------------------------------------------------------------
 (2) _PWM5_Initialize                                      0     0      0       0
 ---------------------------------------------------------------------------------
 (2) _PIN_MANAGER_Initialize                               0     0      0       0
 ---------------------------------------------------------------------------------
 (2) _OSCILLATOR_Initialize                                0     0      0       0
 ---------------------------------------------------------------------------------
 (1) _CheckGPIO                                            0     0      0       0
 ---------------------------------------------------------------------------------
 Estimated maximum stack depth 5
 ---------------------------------------------------------------------------------

 Call Graph Graphs:

 _main (ROOT)
   _CheckGPIO
   _Delay_ms
     _Timer
   _LED_OFF
     _Delay_ms
     _LED_SET
       _PWM_SendData
   _SYSTEM_Initialize
     _OSCILLATOR_Initialize
     _PIN_MANAGER_Initialize
     _PWM5_Initialize
     _TMR2_Initialize
     _TMR6_Initialize
     _WDT_Initialize
   _TrunLight
     _Delay_ms
     _LED_OFF
     _LED_SET
   _testmode
     _Delay_ms
     _LED_OFF
     _LED_ON
       _LED_SET
     _Streamer_SEG1_TEST
       _Delay_ms
       _LED_SET
     _Streamer_SEG2_TEST
       _Delay_ms
       _LED_SET
     _Timer_TESTMODE
   _todo
     _LED_SET_Gradually_ON
       _Delay_ms
       _LED_SET
     _TrunLight
     _WelcomeLight
       _Delay_ms
       _LED_OFF
       _LED_ON
       _LED_SET_Gradually_ON
       _Streamer_SEG1_OFF
         _Delay_ms
         _LED_SET
       _Streamer_SEG1_ON
         _Delay_ms
         _LED_SET
       _Streamer_SEG2_ON
         _Delay_ms
         _LED_SET

 Address spaces:
Name               Size   Autos  Total    Cost      Usage
BIGRAM             1F0      0       0       0        0.0%
EEDATA             100      0       0       0        0.0%
NULL                 0      0       0       0        0.0%
CODE                 0      0       0       0        0.0%
BITCOMMON            E      0       0       1        0.0%
BITSFR0              0      0       0       1        0.0%
SFR0                 0      0       0       1        0.0%
COMMON               E      E       E       2      100.0%
BITSFR1              0      0       0       2        0.0%
SFR1                 0      0       0       2        0.0%
BITSFR2              0      0       0       3        0.0%
SFR2                 0      0       0       3        0.0%
STACK                0      0       0       3        0.0%
BITSFR3              0      0       0       4        0.0%
SFR3                 0      0       0       4        0.0%
ABS                  0      0      1E       4        0.0%
BITBANK0            50      0       0       5        0.0%
BITSFR4              0      0       0       5        0.0%
SFR4                 0      0       0       5        0.0%
BANK0               50      5      10       6       20.0%
BITSFR5              0      0       0       6        0.0%
SFR5                 0      0       0       6        0.0%
BITBANK1            50      0       0       7        0.0%
BITSFR6              0      0       0       7        0.0%
SFR6                 0      0       0       7        0.0%
BANK1               50      0       0       8        0.0%
BITSFR7              0      0       0       8        0.0%
SFR7                 0      0       0       8        0.0%
BITBANK2            50      0       0       9        0.0%
BITSFR8              0      0       0       9        0.0%
SFR8                 0      0       0       9        0.0%
BANK2               50      0       0      10        0.0%
BITSFR9              0      0       0      10        0.0%
SFR9                 0      0       0      10        0.0%
BITBANK3            50      0       0      11        0.0%
BITSFR10             0      0       0      11        0.0%
SFR10                0      0       0      11        0.0%
BANK3               50      0       0      12        0.0%
BITSFR11             0      0       0      12        0.0%
SFR11                0      0       0      12        0.0%
BITBANK4            50      0       0      13        0.0%
BITSFR12             0      0       0      13        0.0%
SFR12                0      0       0      13        0.0%
BANK4               50      0       0      14        0.0%
BITSFR13             0      0       0      14        0.0%
SFR13                0      0       0      14        0.0%
BITBANK5            50      0       0      15        0.0%
BITSFR14             0      0       0      15        0.0%
SFR14                0      0       0      15        0.0%
BANK5               50      0       0      16        0.0%
BITSFR15             0      0       0      16        0.0%
SFR15                0      0       0      16        0.0%
BITBANK6            10      0       0      17        0.0%
BITSFR16             0      0       0      17        0.0%
SFR16                0      0       0      17        0.0%
BANK6               10      0       0      18        0.0%
BITSFR17             0      0       0      18        0.0%
SFR17                0      0       0      18        0.0%
BITSFR18             0      0       0      19        0.0%
SFR18                0      0       0      19        0.0%
DATA                 0      0      1E      19        0.0%
BITSFR19             0      0       0      20        0.0%
SFR19                0      0       0      20        0.0%
BITSFR20             0      0       0      21        0.0%
SFR20                0      0       0      21        0.0%
BITSFR21             0      0       0      22        0.0%
SFR21                0      0       0      22        0.0%
BITSFR22             0      0       0      23        0.0%
SFR22                0      0       0      23        0.0%
BITSFR23             0      0       0      24        0.0%
SFR23                0      0       0      24        0.0%
BITSFR24             0      0       0      25        0.0%
SFR24                0      0       0      25        0.0%
BITSFR25             0      0       0      26        0.0%
SFR25                0      0       0      26        0.0%
BITSFR26             0      0       0      27        0.0%
SFR26                0      0       0      27        0.0%
BITSFR27             0      0       0      28        0.0%
SFR27                0      0       0      28        0.0%
BITSFR28             0      0       0      29        0.0%
SFR28                0      0       0      29        0.0%
BITSFR29             0      0       0      30        0.0%
SFR29                0      0       0      30        0.0%
BITSFR30             0      0       0      31        0.0%
SFR30                0      0       0      31        0.0%
BITSFR31             0      0       0      32        0.0%
SFR31                0      0       0      32        0.0%


Microchip Technology PIC Macro Assembler V2.46 build 20240104201356 
Symbol Table                                                                                   Mon Nov 10 17:06:39 2025

   Streamer_SEG2_TEST@InputData 007A                              l31 03DD                              l62 038C  
                            l56 03AC                              l65 0359                              l59 0387  
                            l76 0361                              l87 0380                              l98 036B  
                           l205 0431                             l221 0375                             l141 0723  
                           l207 0436                             l215 03C2                             l231 04BF  
                           l304 060E                             l312 0575                             l305 060B  
                           l209 0440                             l241 0467                             l218 0399  
                           l314 057A                             l162 07C8                             l226 041A  
                           l331 0556                             l251 0544                             l323 05C1  
                           l147 07B1                             l340 0574                             l332 0553  
                           l236 0493                             l180 0504                             l309 061B  
                           l165 07E2                             l166 07F0                             l246 04EB  
                           l254 0680                             l174 0355                             l328 03F8  
                           l259 070D                             l179 0501                             l296 05C2  
                           l298 05C7                             u400 042A                             u401 0429  
                           u410 0436                             u411 0435                             u500 0607  
                           u420 043E                             u501 0606                             u421 043D  
                           u510 0613                             u430 05C7                             _PR2 001B  
                           u511 0612                             u431 05C6                             u440 05D2  
                           u520 03F8                             u600 0589                             u441 05CF  
                           u521 03F7                             u601 0588                             u530 03C2  
                           u610 0594                             _PR6 041D                             u531 03C1  
                           u611 0593                             u460 05E3                             u620 059F  
                           u700 071F                             u540 041A                             u461 05E2  
                           u525 03F4                             u621 059E                             u701 071E  
                           u541 0419                             u470 05EE                             u454 05D4  
                           u630 05A8                             u710 072C                             u550 04BF  
                           u471 05ED                             u631 05A7                             u711 072B  
                           u551 04BE                             u480 05F9                             u640 05AD  
                           u800 0794                             u720 0732                             u560 0467  
                           u481 05F8                             u641 05AC                             u801 0793  
                           u721 0731                             u545 0416                             u561 0466  
                           u490 0603                             u650 05B3                             u810 079A  
                           u730 0747                             u570 04EB                             u491 0602  
                           u651 05B2                             u811 0799                             u731 0746  
                           u571 04EA                             u900 055B                             u580 038C  
                           u660 05BD                             u820 07B1                             u740 074D  
                           u901 055A                             u581 038B                             u661 05BC  
                           u821 07B0                             u741 074C                             u910 0568  
                           u670 0493                             u590 057A                             u830 07B5  
                           u750 0753                             u911 0567                             u671 0492  
                           u591 0579                             u831 07B4                             u751 0752  
                           u920 0570                             u680 0544                             u840 07BA  
                           u760 0769                             u921 056F                             u681 0543  
                           u841 07B9                             u761 0768                             u850 07CC  
                           u770 0770                             u690 06ED                             u930 04FE  
                           u851 07CB                             u771 076F                             u691 06EC  
                           u931 04FD                             u860 07D1                             u780 0776  
                           u940 050D                             u861 07D0                             u781 0775  
                           u941 050C                             u870 07E2                             u790 078D  
                           u871 07E1                             u791 078C                             u880 054B  
                           u881 054A                             u890 054F                             u891 054E  
             TrunLight@seg1_num 002E               TrunLight@seg2_num 002F                 _TMR2_Initialize 035A  
               __end_of_LED_OFF 039A                 __end_of_LED_SET 03C3                            l1500 0607  
                          l1502 0613                            l1510 03E4                            l1504 0618  
                          l1512 03E7                            l1520 03AE                            l1600 04CA  
                          l1610 03C3                            l1506 0619                            l1514 03E8  
                          l1522 03B2                            l1530 038D                            l1602 04CE  
                          l1620 03D3                            l1612 03C8                            l1516 03EA  
                          l1508 03DE                            l1460 0424                            l1524 03B4  
                          l1532 036D                            l1700 046B                            l1540 03FA  
                          l1604 04D4                            l1630 0384                            l1622 03D5  
                          l1614 03CB                            l1470 05C2                            l1518 03ED  
                          l1462 042A                            l1526 03B8                            l1534 036F  
                          l1710 0477                            l1702 046C                            l1550 0495  
                          l1606 04DA                            l1632 0385                            l1624 03D9  
                          l1616 03CD                            l1640 0366                            l1480 05E3  
                          l1472 05C8                            l1464 042E                            l1456 041C  
                          l1528 03BC                            l1712 047D                            l1720 051B  
                          l1800 06F5                            l1544 03FC                            l1536 03FA  
                          l1560 049D                            l1552 0497                            l1608 04E5  
                          l1626 03DB                            l1618 03CF                            l1650 037B  
                          l1642 0368                            l1634 0356                            l1490 05F3  
                          l1482 05E4                            l1474 05D4                            l1466 0437  
                          l1458 0420                            l1714 0482                            l1706 046D  
                          l1730 0527                            l1722 051C                            l1810 070E  
                          l1802 06FA                            l1546 0409                            l1538 03FA  
                          l1570 0442                            l1562 04A3                            l1554 0498  
                          l1628 0381                            l1644 0376                            l1652 035A  
                          l1636 0362                            l1492 05F9                            l1484 05E8  
                          l1476 05D9                            l1468 043E                            l1716 048D  
                          l1708 0471                            l1732 052D                            l1660 0575  
                          l1900 07BA                            l1820 071A                            l1812 0711  
                          l1804 0701                            l1548 040D                            l1580 044A  
                          l1572 0444                            l1564 04A9                            l1740 0622  
                          l1646 0379                            l1654 035D                            l1638 0365  
                          l1494 05FA                            l1486 05EE                            l1478 05DD  
                          l1734 0533                            l1726 051D                            l1718 0519  
                          l1670 058E                            l1662 057B                            l1910 07D4  
                          l1902 07BF                            l1830 0733                            l1822 071F  
                          l1814 0713                            l1806 0706                            l1750 0685  
                          l1582 0451                            l1574 0445                            l1566 04AE  
                          l1558 0499                            l1590 04C1                            l1742 0665  
                          l1648 037A                            l1656 035E                            l1808 039A  
                          l1496 05FE                            l1488 05EF                            l1736 053E  
                          l1728 0523                            l1680 05A0                            l1672 0594  
                          l1664 0583                            l1912 07D5                            l1904 07CC  
                          l1840 073D                            l1832 0735                            l1824 0726  
                          l1816 0715                            l1760 068D                            l1752 0686  
                          l1584 0456                            l1568 04B9                            l1592 04C3  
                          l1744 0668                            l1920 0355                            l1658 035F  
                          l1498 0603                            l1690 05B8                            l1682 05A4  
                          l1674 0595                            l1666 0589                            l1914 07D9  
                          l1906 07D1                            l1850 0759                            l1842 0740  
                          l1834 0736                            l1826 072C                            l1818 0717  
                          l1770 06AA                            l1762 0690                            l1754 0688  
                          l1586 045D                            l1578 0446                            l1594 04C4  
                          l1746 066A                            l1738 061C                            l1940 055B  
                          l1684 05A8                            l1692 05B9                            l1676 0599  
                          l1668 058A                            l1908 07D2                            l1860 0770  
                          l1852 075C                            l1836 0737                            l1828 0732  
                          l1844 0748                            l1916 07DD                            l1780 06B8  
                          l1772 06AF                            l1764 0697                            l1756 068A  
                          l1748 0683                            l1588 0461                            l1950 056B  
                          l1942 0560                            l1934 0545                            l1694 05BD  
                          l1686 05AD                            l1678 059F                            l1918 07E6  
                          l1870 077C                            l1862 0776                            l1854 075F  
                          l1846 074D                            l1838 073A                            l1790 06DB  
                          l1782 06C0                            l1774 06B6                            l1766 069E  
                          l1758 068C                            l1598 04C5                            l1952 056C  
                          l1944 0561                            l1936 054B                            l1696 05C0  
                          l1688 05B3                            l1880 0794                            l1872 0780  
                          l1864 0778                            l1856 0762                            l1848 0753  
                          l1792 06E2                            l1784 06C6                            l1768 06A3  
                          l1960 04EC                            l1954 0570                            l1946 0563  
                          l1938 054F                            l1698 0469                            l1890 07A0  
                          l1882 079A                            l1874 0783                            l1866 077A  
                          l1858 076A                            l1794 06E7                            l1786 06CD  
                          l1970 0507                            l1962 04EF                            l1956 0573  
                          l1948 0568                            l1892 07A4                            l1884 079C  
                          l1876 0786                            l1868 077B                            l1796 06ED  
                          l1788 06D4                            l1972 050D                            l1964 04F6  
                          l1894 07A7                            l1886 079E                            l1878 078E  
                          l1798 06EF                            l1974 0512                            l1966 04F9  
                          l1958 04EC                            l1896 07AA                            l1888 079F  
                          l1968 04FE                            l1898 07B5                            _LATA 010C  
                          _LATB 010D                            _LATC 010E                            _LATE 0110  
                          _PLLR 04D6                            _TMR0 0015                            _TMR2 001A  
                          _TMR6 041C                            _WPUB 020D                            _WPUE 0210  
                          _fACC 0022                            _main 04EC                            _mode 0029  
                          _todo 0355                            btemp 007E                     LED_SET@data 0076  
                  _PWM_SendData 041B                            start 0002                 _PWM5_Initialize 0376  
         PWM_SendData@InputData 0070   __end_of_OSCILLATOR_Initialize 038D                           ?_main 0070  
                         ?_todo 0070                           _T2CON 001C                           _T6CON 041E  
                         _TRISA 008C                           _TRISB 008D                           _TRISC 008E  
                         _TRISE 0090                           _Timer 05C2                           _fTurn 0027  
                _WDT_Initialize 0356                           status 0003                           wtemp0 007E  
              __end_of_Delay_ms 03F9                 __initialization 07F1                    __end_of_main 0518  
                  __end_of_todo 0356         __end_of_TMR2_Initialize 0362                          ??_main 007E  
    Streamer_SEG1_OFF@InputData 007A                          ??_todo 007E                       ??_LED_OFF 0079  
                     ??_LED_SET 0074            _LED_SET_Gradually_ON 03F9          __end_of_WDT_Initialize 035A  
               _TMR6_Initialize 0362                          ?_Timer 0070                          _CCPR5H 031D  
                        _CCPR5L 031C                          _APFCON 011D                          _ANSELA 018C  
                        _ANSELB 018D                          _BORCON 0116                          _LED_ON 036C  
       __end_of_PWM5_Initialize 0381                          _OSCCON 0099                          _TMR2IF 0089  
                        _WDTCON 0097                    _CCPTMRS1bits 029F           ?_LED_SET_Gradually_ON 0070  
               ?_WDT_Initialize 0070                __end_of_testmode 07F1               testmode@fTurn_old 002B  
             __end_of_CheckGPIO 0575               _SYSTEM_Initialize 039A         __end_of__initialization 07FD  
            ?_SYSTEM_Initialize 0070                  __pcstackCOMMON 0070                   __end_of_Timer 061C  
           ??_SYSTEM_Initialize 0070                ?_TMR2_Initialize 0070         __end_of_TMR6_Initialize 036C  
                _OPTION_REGbits 0095                       ?_Delay_ms 0071                         ??_Timer 0070  
                    TrunLight@i 002C       __end_of_SYSTEM_Initialize 03AD                      __pbssBANK0 0020  
                       ?_LED_ON 0070                ?_PWM5_Initialize 0070      __end_of_Streamer_SEG1_TEST 0494  
    __end_of_Streamer_SEG2_TEST 0545                  _Timer_TESTMODE 0575                      __pmaintext 04EC  
                       _CCP5CON 031E               __end_of_TrunLight 070E          ??_LED_SET_Gradually_ON 0079  
                       _LED_OFF 038D                         _LED_SET 03AD                      ??_Delay_ms 0073  
                       _OSCTUNE 0098          __end_of_Timer_TESTMODE 05C2                  LED_SET@LED_num 0075  
                       _fLoBeam 0023                _Streamer_SEG1_ON 0494                _Streamer_SEG2_ON 04C0  
                 ?_WelcomeLight 0070                       ?_testmode 0070                ?_TMR6_Initialize 0070  
                       __ptext1 0355                         __ptext2 061C                         __ptext3 04C0  
                       __ptext4 0494                         __ptext5 0441                         __ptext6 03F9  
                       __ptext7 0681                         __ptext8 070E                         __ptext9 0575  
         _OSCILLATOR_Initialize 0381            Streamer_SEG1_OFF@num 007C        ??_PIN_MANAGER_Initialize 0070  
          Streamer_SEG1_ON@data 007B                   TrunLight@data 002D            Streamer_SEG2_ON@data 007B  
          end_of_initialization 07FD                 ?_Timer_TESTMODE 0070     Streamer_SEG1_TEST@InputData 007A  
                ??_WelcomeLight 007E                      ??_testmode 007E       Streamer_SEG1_ON@InputData 007A  
              ??_WDT_Initialize 0070                       _PORTAbits 000C                       _PORTBbits 000D  
                     _PORTCbits 000E                       _CheckGPIO 0545                  __end_of_LED_ON 0376  
                    LED_ON@data 007A                      LED_SET@num 0077          ?_OSCILLATOR_Initialize 0070  
           start_initialization 07F1                        ??_LED_ON 0079                      ?_CheckGPIO 0070  
                 ?_PWM_SendData 0070                     _T100us_cnt1 0025              _Streamer_SEG1_TEST 0468  
            _Streamer_SEG2_TEST 0518       Streamer_SEG2_ON@InputData 007A             ?_Streamer_SEG1_TEST 0070  
           ?_Streamer_SEG2_TEST 0070                        ?_LED_OFF 0070                        ?_LED_SET 0073  
                     _TrunLight 0681                       ___latbits 0002                        LED_SET@i 0078  
                 __pcstackBANK0 002B        __end_of_Streamer_SEG1_ON 04C0        __end_of_Streamer_SEG2_ON 04EC  
          __end_of_WelcomeLight 0681                testmode@mode_old 002C                  ??_PWM_SendData 0070  
          ??_Streamer_SEG1_TEST 0079            ??_Streamer_SEG2_TEST 0079          _PIN_MANAGER_Initialize 03C3  
              LED_SET@InputData 0073              _fColorSeletDisable 002A                ??_Timer_TESTMODE 0070  
                    ?_TrunLight 0070                     ??_CheckGPIO 0070             Streamer_SEG1_TEST@i 007D  
           Streamer_SEG1_ON@num 007C                        _T1MS_cnt 0020                        _LATBbits 010D  
           Streamer_SEG2_TEST@i 007D                        _LATCbits 010E                Delay_ms@input_ms 0071  
           Streamer_SEG2_ON@num 007C                        _T5MS_cnt 0024           WelcomeLight@InputData 0070  
                      _PIR1bits 0011                        _PIR3bits 0013          Streamer_SEG1_TEST@data 007B  
                      _Delay_ms 03DE          Streamer_SEG2_TEST@data 007B                      _T250MS_cnt 0028  
             ??_TMR2_Initialize 0070             PWM_SendData@bitmask 0072           LED_SET_Gradually_ON@j 007B  
                    _T100us_cnt 0026               _Streamer_SEG1_OFF 0441         ??_OSCILLATOR_Initialize 0070  
               LED_ON@InputData 0079              ?_Streamer_SEG1_OFF 0070               ??_PWM5_Initialize 0070  
          __end_of_PWM_SendData 0441             ??_Streamer_SEG1_OFF 0079                     ??_TrunLight 0079  
                      __ptext10 0518                        __ptext11 0468                        __ptext20 0362  
                      __ptext12 036C                        __ptext21 035A                        __ptext13 038D  
                      __ptext22 0376                        __ptext14 03AD                        __ptext23 03C3  
                      __ptext15 041B                        __ptext24 0381                        __ptext16 03DE  
                      __ptext25 0545                        __ptext17 05C2                        __ptext18 039A  
                      __ptext19 0356              Streamer_SEG1_OFF@i 007D           Streamer_SEG1_OFF@data 007B  
     __end_of_Streamer_SEG1_OFF 0468                    _WelcomeLight 061C                        _testmode 070E  
         Streamer_SEG1_TEST@num 007C   LED_SET_Gradually_ON@InputData 007A           Streamer_SEG2_TEST@num 007C  
                    Delay_ms@ms 0073               ?_Streamer_SEG1_ON 0070               ?_Streamer_SEG2_ON 0070  
            ??_Streamer_SEG1_ON 0079              ??_Streamer_SEG2_ON 0079         ?_PIN_MANAGER_Initialize 0070  
             ??_TMR6_Initialize 0070               Streamer_SEG1_ON@i 007D               Streamer_SEG2_ON@i 007D  
            TrunLight@InputData 002B                PWM_SendData@data 0071  __end_of_PIN_MANAGER_Initialize 03DE  
  __end_of_LED_SET_Gradually_ON 041B  
