

Microchip MPLAB XC8 Assembler V2.46 build 20240104201356 
                                                                                               Mon Nov 10 09:18:17 2025

Microchip MPLAB XC8 C Compiler v2.46 (Free license) build 20240104201356 Og1 
     1                           	processor	16F1936
     2                           	pagewidth 120
     3                           	opt	flic
     4                           	psect	idataBANK0,global,class=CODE,delta=2,noexec
     5                           	psect	stringtext1,global,class=STRCODE,delta=2,noexec
     6                           	psect	cinit,global,class=CODE,merge=1,delta=2
     7                           	psect	bssCOMMON,global,class=COMMON,space=1,delta=1,noexec
     8                           	psect	bssBANK0,global,class=BANK0,space=1,delta=1,noexec
     9                           	psect	dataBANK0,global,class=BANK0,space=1,delta=1,noexec
    10                           	psect	bssBANK1,global,class=BANK1,space=1,delta=1,noexec
    11                           	psect	clrtext,global,class=CODE,delta=2
    12                           	psect	cstackCOMMON,global,class=COMMON,space=1,delta=1,noexec
    13                           	psect	cstackBANK0,global,class=BANK0,space=1,delta=1,noexec
    14                           	psect	maintext,global,class=CODE,merge=1,split=1,delta=2
    15                           	psect	text1,local,class=CODE,merge=1,delta=2
    16                           	psect	text2,local,class=CODE,merge=1,delta=2
    17                           	psect	text3,local,class=CODE,merge=1,delta=2
    18                           	psect	text4,local,class=CODE,merge=1,delta=2
    19                           	psect	text5,local,class=CODE,merge=1,delta=2
    20                           	psect	text6,local,class=CODE,merge=1,delta=2
    21                           	psect	text7,local,class=CODE,merge=1,delta=2
    22                           	psect	text8,local,class=CODE,merge=1,delta=2
    23                           	psect	text9,local,class=CODE,merge=1,delta=2
    24                           	psect	text10,local,class=CODE,merge=1,delta=2
    25                           	psect	text11,local,class=CODE,merge=1,delta=2
    26                           	psect	text12,local,class=CODE,merge=1,delta=2
    27                           	psect	text13,local,class=CODE,merge=1,delta=2
    28                           	psect	text14,local,class=CODE,merge=1,delta=2
    29                           	psect	text15,local,class=CODE,merge=1,delta=2
    30                           	psect	text16,local,class=CODE,merge=1,delta=2
    31                           	psect	text17,local,class=CODE,merge=1,delta=2
    32                           	psect	text18,local,class=CODE,merge=1,delta=2
    33                           	psect	text19,local,class=CODE,merge=1,delta=2
    34                           	psect	text20,local,class=CODE,merge=1,delta=2
    35                           	psect	text21,local,class=CODE,merge=1,delta=2
    36                           	psect	text22,local,class=CODE,merge=1,delta=2
    37                           	psect	text23,local,class=CODE,merge=1,delta=2
    38                           	psect	text24,local,class=CODE,merge=1,delta=2
    39                           	psect	text25,local,class=CODE,merge=1,delta=2
    40                           	psect	text26,local,class=CODE,merge=1,delta=2
    41                           	psect	text27,local,class=CODE,merge=1,delta=2
    42                           	psect	text28,local,class=CODE,merge=1,delta=2
    43                           	psect	text29,local,class=CODE,merge=1,delta=2
    44                           	psect	text30,local,class=CODE,merge=1,delta=2
    45                           	psect	text31,local,class=CODE,merge=1,delta=2
    46                           	psect	text32,local,class=CODE,merge=1,delta=2
    47                           	psect	text33,local,class=CODE,merge=1,delta=2
    48                           	psect	text34,local,class=CODE,merge=1,delta=2
    49                           	psect	text35,local,class=CODE,merge=1,delta=2,group=2
    50                           	psect	text36,local,class=CODE,merge=1,delta=2
    51                           	psect	text37,local,class=CODE,merge=1,delta=2
    52                           	psect	text38,local,class=CODE,merge=1,delta=2
    53                           	psect	text39,local,class=CODE,merge=1,delta=2
    54                           	psect	text40,local,class=CODE,merge=1,delta=2
    55                           	psect	text41,local,class=CODE,merge=1,delta=2
    56                           	psect	text42,local,class=CODE,merge=1,delta=2
    57                           	psect	text43,local,class=CODE,merge=1,delta=2
    58                           	psect	text44,local,class=CODE,merge=1,delta=2
    59                           	psect	text45,local,class=CODE,merge=1,delta=2
    60                           	psect	text46,local,class=CODE,merge=1,delta=2
    61                           	psect	text47,local,class=CODE,merge=1,delta=2
    62                           	psect	text48,local,class=CODE,merge=1,delta=2
    63                           	psect	text49,local,class=CODE,merge=1,delta=2
    64                           	psect	text50,local,class=CODE,merge=1,delta=2
    65                           	psect	text51,local,class=CODE,merge=1,delta=2
    66                           	psect	text52,local,class=CODE,merge=1,delta=2
    67                           	psect	text53,local,class=CODE,merge=1,delta=2
    68                           	psect	text54,local,class=CODE,merge=1,delta=2,group=2
    69                           	psect	text55,local,class=CODE,merge=1,delta=2
    70                           	psect	text56,local,class=CODE,merge=1,delta=2
    71                           	psect	text57,local,class=CODE,merge=1,delta=2
    72                           	psect	text58,local,class=CODE,merge=1,delta=2
    73                           	psect	text59,local,class=CODE,merge=1,delta=2
    74                           	psect	text60,local,class=CODE,merge=1,delta=2
    75                           	psect	text61,local,class=CODE,merge=1,delta=2
    76                           	psect	text62,local,class=CODE,merge=1,delta=2
    77                           	psect	text63,local,class=CODE,merge=1,delta=2
    78                           	psect	text64,local,class=CODE,merge=1,delta=2
    79                           	psect	text65,local,class=CODE,merge=1,delta=2
    80                           	psect	text66,local,class=CODE,merge=1,delta=2
    81                           	psect	text67,local,class=CODE,merge=1,delta=2
    82                           	psect	text68,local,class=CODE,merge=1,delta=2
    83                           	psect	intentry,global,class=CODE,delta=2
    84                           	psect	text70,local,class=CODE,merge=1,delta=2
    85                           	psect	text71,local,class=CODE,merge=1,delta=2
    86                           	psect	text72,local,class=CODE,merge=1,delta=2
    87                           	psect	text73,local,class=CODE,merge=1,delta=2
    88                           	psect	text74,local,class=CODE,merge=1,delta=2
    89                           	psect	text75,local,class=CODE,merge=1,delta=2
    90                           	psect	text76,local,class=CODE,merge=1,delta=2
    91                           	psect	text77,local,class=CODE,merge=1,delta=2
    92                           	psect	text78,local,class=CODE,merge=1,delta=2
    93                           	psect	config,global,abs,ovrld,class=CONFIG,space=4,delta=2,noexec
    94                           	dabs	1,0x7E,2
    95     0000                     
    96                           ; Version 2.20
    97                           ; Generated 12/02/2020 GMT
    98                           ; 
    99                           ; Copyright © 2020, Microchip Technology Inc. and its subsidiaries ("Microchip")
   100                           ; All rights reserved.
   101                           ; 
   102                           ; This software is developed by Microchip Technology Inc. and its subsidiaries ("Microch
      +                          ip").
   103                           ; 
   104                           ; Redistribution and use in source and binary forms, with or without modification, are
   105                           ; permitted provided that the following conditions are met:
   106                           ; 
   107                           ;     1. Redistributions of source code must retain the above copyright notice, this lis
      +                          t of
   108                           ;        conditions and the following disclaimer.
   109                           ; 
   110                           ;     2. Redistributions in binary form must reproduce the above copyright notice, this 
      +                          list
   111                           ;        of conditions and the following disclaimer in the documentation and/or other
   112                           ;        materials provided with the distribution.
   113                           ; 
   114                           ;     3. Microchip's name may not be used to endorse or promote products derived from th
      +                          is
   115                           ;        software without specific prior written permission.
   116                           ; 
   117                           ; THIS SOFTWARE IS PROVIDED BY MICROCHIP "AS IS" AND ANY EXPRESS OR IMPLIED WARRANTIES,
   118                           ; INCLUDING, BUT NOT LIMITED TO, THE IMPLIED WARRANTIES OF MERCHANTABILITY AND FITNESS F
      +                          OR
   119                           ; PURPOSE ARE DISCLAIMED.  IN NO EVENT SHALL MICROCHIP BE LIABLE FOR ANY DIRECT, INDIREC
      +                          T,
   120                           ; INCIDENTAL, SPECIAL, EXEMPLARY, OR CONSEQUENTIAL DAMAGES (INCLUDING BUT NOT LIMITED TO
   121                           ; PROCUREMENT OF SUBSTITUTE GOODS OR SERVICES; LOSS OF USE, DATA OR PROFITS; OR BUSINESS
   122                           ; INTERRUPTION) HOWSOEVER CAUSED AND ON ANY THEORY OF LIABILITY, WHETHER IN CONTRACT, ST
      +                          RICT
   123                           ; LIABILITY, OR TORT (INCLUDING NEGLIGENCE OR OTHERWISE) ARISING IN ANY WAY OUT OF THE U
      +                          SE OF
   124                           ; THIS SOFTWARE, EVEN IF ADVISED OF THE POSSIBILITY OF SUCH DAMAGE.
   125                           ; 
   126                           ; 
   127                           ; Code-generator required, PIC16F1936 Definitions
   128                           ; 
   129                           ; SFR Addresses
   130     0000                     	;# 
   131     0001                     	;# 
   132     0002                     	;# 
   133     0003                     	;# 
   134     0004                     	;# 
   135     0005                     	;# 
   136     0006                     	;# 
   137     0007                     	;# 
   138     0008                     	;# 
   139     0009                     	;# 
   140     000A                     	;# 
   141     000B                     	;# 
   142     000C                     	;# 
   143     000D                     	;# 
   144     000E                     	;# 
   145     0010                     	;# 
   146     0011                     	;# 
   147     0012                     	;# 
   148     0013                     	;# 
   149     0015                     	;# 
   150     0016                     	;# 
   151     0016                     	;# 
   152     0017                     	;# 
   153     0018                     	;# 
   154     0019                     	;# 
   155     001A                     	;# 
   156     001B                     	;# 
   157     001C                     	;# 
   158     001E                     	;# 
   159     001F                     	;# 
   160     008C                     	;# 
   161     008D                     	;# 
   162     008E                     	;# 
   163     0090                     	;# 
   164     0091                     	;# 
   165     0092                     	;# 
   166     0093                     	;# 
   167     0095                     	;# 
   168     0096                     	;# 
   169     0097                     	;# 
   170     0098                     	;# 
   171     0099                     	;# 
   172     009A                     	;# 
   173     009B                     	;# 
   174     009B                     	;# 
   175     009C                     	;# 
   176     009D                     	;# 
   177     009E                     	;# 
   178     010C                     	;# 
   179     010D                     	;# 
   180     010E                     	;# 
   181     0110                     	;# 
   182     0111                     	;# 
   183     0112                     	;# 
   184     0113                     	;# 
   185     0114                     	;# 
   186     0115                     	;# 
   187     0116                     	;# 
   188     0117                     	;# 
   189     0118                     	;# 
   190     0119                     	;# 
   191     011A                     	;# 
   192     011B                     	;# 
   193     011D                     	;# 
   194     018C                     	;# 
   195     018D                     	;# 
   196     0191                     	;# 
   197     0191                     	;# 
   198     0192                     	;# 
   199     0193                     	;# 
   200     0193                     	;# 
   201     0193                     	;# 
   202     0194                     	;# 
   203     0195                     	;# 
   204     0196                     	;# 
   205     0199                     	;# 
   206     019A                     	;# 
   207     019B                     	;# 
   208     019B                     	;# 
   209     019B                     	;# 
   210     019B                     	;# 
   211     019C                     	;# 
   212     019C                     	;# 
   213     019D                     	;# 
   214     019E                     	;# 
   215     019F                     	;# 
   216     020D                     	;# 
   217     0210                     	;# 
   218     0211                     	;# 
   219     0212                     	;# 
   220     0213                     	;# 
   221     0214                     	;# 
   222     0215                     	;# 
   223     0215                     	;# 
   224     0216                     	;# 
   225     0217                     	;# 
   226     0291                     	;# 
   227     0291                     	;# 
   228     0292                     	;# 
   229     0293                     	;# 
   230     0294                     	;# 
   231     0295                     	;# 
   232     0295                     	;# 
   233     0296                     	;# 
   234     0298                     	;# 
   235     0298                     	;# 
   236     0299                     	;# 
   237     029A                     	;# 
   238     029B                     	;# 
   239     029C                     	;# 
   240     029C                     	;# 
   241     029D                     	;# 
   242     029E                     	;# 
   243     029F                     	;# 
   244     0311                     	;# 
   245     0311                     	;# 
   246     0312                     	;# 
   247     0313                     	;# 
   248     0314                     	;# 
   249     0315                     	;# 
   250     0315                     	;# 
   251     0316                     	;# 
   252     0318                     	;# 
   253     0318                     	;# 
   254     0319                     	;# 
   255     031A                     	;# 
   256     031C                     	;# 
   257     031C                     	;# 
   258     031D                     	;# 
   259     031E                     	;# 
   260     0394                     	;# 
   261     0395                     	;# 
   262     0396                     	;# 
   263     0415                     	;# 
   264     0416                     	;# 
   265     0417                     	;# 
   266     041C                     	;# 
   267     041D                     	;# 
   268     041E                     	;# 
   269     0791                     	;# 
   270     0792                     	;# 
   271     0793                     	;# 
   272     0794                     	;# 
   273     0795                     	;# 
   274     0798                     	;# 
   275     0799                     	;# 
   276     07A0                     	;# 
   277     07A1                     	;# 
   278     07A3                     	;# 
   279     07A4                     	;# 
   280     07A6                     	;# 
   281     07A7                     	;# 
   282     07A9                     	;# 
   283     07AA                     	;# 
   284     0FE4                     	;# 
   285     0FE5                     	;# 
   286     0FE6                     	;# 
   287     0FE7                     	;# 
   288     0FE8                     	;# 
   289     0FE9                     	;# 
   290     0FEA                     	;# 
   291     0FEB                     	;# 
   292     0FED                     	;# 
   293     0FEE                     	;# 
   294     0FEF                     	;# 
   295     0000                     	;# 
   296     0001                     	;# 
   297     0002                     	;# 
   298     0003                     	;# 
   299     0004                     	;# 
   300     0005                     	;# 
   301     0006                     	;# 
   302     0007                     	;# 
   303     0008                     	;# 
   304     0009                     	;# 
   305     000A                     	;# 
   306     000B                     	;# 
   307     000C                     	;# 
   308     000D                     	;# 
   309     000E                     	;# 
   310     0010                     	;# 
   311     0011                     	;# 
   312     0012                     	;# 
   313     0013                     	;# 
   314     0015                     	;# 
   315     0016                     	;# 
   316     0016                     	;# 
   317     0017                     	;# 
   318     0018                     	;# 
   319     0019                     	;# 
   320     001A                     	;# 
   321     001B                     	;# 
   322     001C                     	;# 
   323     001E                     	;# 
   324     001F                     	;# 
   325     008C                     	;# 
   326     008D                     	;# 
   327     008E                     	;# 
   328     0090                     	;# 
   329     0091                     	;# 
   330     0092                     	;# 
   331     0093                     	;# 
   332     0095                     	;# 
   333     0096                     	;# 
   334     0097                     	;# 
   335     0098                     	;# 
   336     0099                     	;# 
   337     009A                     	;# 
   338     009B                     	;# 
   339     009B                     	;# 
   340     009C                     	;# 
   341     009D                     	;# 
   342     009E                     	;# 
   343     010C                     	;# 
   344     010D                     	;# 
   345     010E                     	;# 
   346     0110                     	;# 
   347     0111                     	;# 
   348     0112                     	;# 
   349     0113                     	;# 
   350     0114                     	;# 
   351     0115                     	;# 
   352     0116                     	;# 
   353     0117                     	;# 
   354     0118                     	;# 
   355     0119                     	;# 
   356     011A                     	;# 
   357     011B                     	;# 
   358     011D                     	;# 
   359     018C                     	;# 
   360     018D                     	;# 
   361     0191                     	;# 
   362     0191                     	;# 
   363     0192                     	;# 
   364     0193                     	;# 
   365     0193                     	;# 
   366     0193                     	;# 
   367     0194                     	;# 
   368     0195                     	;# 
   369     0196                     	;# 
   370     0199                     	;# 
   371     019A                     	;# 
   372     019B                     	;# 
   373     019B                     	;# 
   374     019B                     	;# 
   375     019B                     	;# 
   376     019C                     	;# 
   377     019C                     	;# 
   378     019D                     	;# 
   379     019E                     	;# 
   380     019F                     	;# 
   381     020D                     	;# 
   382     0210                     	;# 
   383     0211                     	;# 
   384     0212                     	;# 
   385     0213                     	;# 
   386     0214                     	;# 
   387     0215                     	;# 
   388     0215                     	;# 
   389     0216                     	;# 
   390     0217                     	;# 
   391     0291                     	;# 
   392     0291                     	;# 
   393     0292                     	;# 
   394     0293                     	;# 
   395     0294                     	;# 
   396     0295                     	;# 
   397     0295                     	;# 
   398     0296                     	;# 
   399     0298                     	;# 
   400     0298                     	;# 
   401     0299                     	;# 
   402     029A                     	;# 
   403     029B                     	;# 
   404     029C                     	;# 
   405     029C                     	;# 
   406     029D                     	;# 
   407     029E                     	;# 
   408     029F                     	;# 
   409     0311                     	;# 
   410     0311                     	;# 
   411     0312                     	;# 
   412     0313                     	;# 
   413     0314                     	;# 
   414     0315                     	;# 
   415     0315                     	;# 
   416     0316                     	;# 
   417     0318                     	;# 
   418     0318                     	;# 
   419     0319                     	;# 
   420     031A                     	;# 
   421     031C                     	;# 
   422     031C                     	;# 
   423     031D                     	;# 
   424     031E                     	;# 
   425     0394                     	;# 
   426     0395                     	;# 
   427     0396                     	;# 
   428     0415                     	;# 
   429     0416                     	;# 
   430     0417                     	;# 
   431     041C                     	;# 
   432     041D                     	;# 
   433     041E                     	;# 
   434     0791                     	;# 
   435     0792                     	;# 
   436     0793                     	;# 
   437     0794                     	;# 
   438     0795                     	;# 
   439     0798                     	;# 
   440     0799                     	;# 
   441     07A0                     	;# 
   442     07A1                     	;# 
   443     07A3                     	;# 
   444     07A4                     	;# 
   445     07A6                     	;# 
   446     07A7                     	;# 
   447     07A9                     	;# 
   448     07AA                     	;# 
   449     0FE4                     	;# 
   450     0FE5                     	;# 
   451     0FE6                     	;# 
   452     0FE7                     	;# 
   453     0FE8                     	;# 
   454     0FE9                     	;# 
   455     0FEA                     	;# 
   456     0FEB                     	;# 
   457     0FED                     	;# 
   458     0FEE                     	;# 
   459     0FEF                     	;# 
   460     0000                     	;# 
   461     0001                     	;# 
   462     0002                     	;# 
   463     0003                     	;# 
   464     0004                     	;# 
   465     0005                     	;# 
   466     0006                     	;# 
   467     0007                     	;# 
   468     0008                     	;# 
   469     0009                     	;# 
   470     000A                     	;# 
   471     000B                     	;# 
   472     000C                     	;# 
   473     000D                     	;# 
   474     000E                     	;# 
   475     0010                     	;# 
   476     0011                     	;# 
   477     0012                     	;# 
   478     0013                     	;# 
   479     0015                     	;# 
   480     0016                     	;# 
   481     0016                     	;# 
   482     0017                     	;# 
   483     0018                     	;# 
   484     0019                     	;# 
   485     001A                     	;# 
   486     001B                     	;# 
   487     001C                     	;# 
   488     001E                     	;# 
   489     001F                     	;# 
   490     008C                     	;# 
   491     008D                     	;# 
   492     008E                     	;# 
   493     0090                     	;# 
   494     0091                     	;# 
   495     0092                     	;# 
   496     0093                     	;# 
   497     0095                     	;# 
   498     0096                     	;# 
   499     0097                     	;# 
   500     0098                     	;# 
   501     0099                     	;# 
   502     009A                     	;# 
   503     009B                     	;# 
   504     009B                     	;# 
   505     009C                     	;# 
   506     009D                     	;# 
   507     009E                     	;# 
   508     010C                     	;# 
   509     010D                     	;# 
   510     010E                     	;# 
   511     0110                     	;# 
   512     0111                     	;# 
   513     0112                     	;# 
   514     0113                     	;# 
   515     0114                     	;# 
   516     0115                     	;# 
   517     0116                     	;# 
   518     0117                     	;# 
   519     0118                     	;# 
   520     0119                     	;# 
   521     011A                     	;# 
   522     011B                     	;# 
   523     011D                     	;# 
   524     018C                     	;# 
   525     018D                     	;# 
   526     0191                     	;# 
   527     0191                     	;# 
   528     0192                     	;# 
   529     0193                     	;# 
   530     0193                     	;# 
   531     0193                     	;# 
   532     0194                     	;# 
   533     0195                     	;# 
   534     0196                     	;# 
   535     0199                     	;# 
   536     019A                     	;# 
   537     019B                     	;# 
   538     019B                     	;# 
   539     019B                     	;# 
   540     019B                     	;# 
   541     019C                     	;# 
   542     019C                     	;# 
   543     019D                     	;# 
   544     019E                     	;# 
   545     019F                     	;# 
   546     020D                     	;# 
   547     0210                     	;# 
   548     0211                     	;# 
   549     0212                     	;# 
   550     0213                     	;# 
   551     0214                     	;# 
   552     0215                     	;# 
   553     0215                     	;# 
   554     0216                     	;# 
   555     0217                     	;# 
   556     0291                     	;# 
   557     0291                     	;# 
   558     0292                     	;# 
   559     0293                     	;# 
   560     0294                     	;# 
   561     0295                     	;# 
   562     0295                     	;# 
   563     0296                     	;# 
   564     0298                     	;# 
   565     0298                     	;# 
   566     0299                     	;# 
   567     029A                     	;# 
   568     029B                     	;# 
   569     029C                     	;# 
   570     029C                     	;# 
   571     029D                     	;# 
   572     029E                     	;# 
   573     029F                     	;# 
   574     0311                     	;# 
   575     0311                     	;# 
   576     0312                     	;# 
   577     0313                     	;# 
   578     0314                     	;# 
   579     0315                     	;# 
   580     0315                     	;# 
   581     0316                     	;# 
   582     0318                     	;# 
   583     0318                     	;# 
   584     0319                     	;# 
   585     031A                     	;# 
   586     031C                     	;# 
   587     031C                     	;# 
   588     031D                     	;# 
   589     031E                     	;# 
   590     0394                     	;# 
   591     0395                     	;# 
   592     0396                     	;# 
   593     0415                     	;# 
   594     0416                     	;# 
   595     0417                     	;# 
   596     041C                     	;# 
   597     041D                     	;# 
   598     041E                     	;# 
   599     0791                     	;# 
   600     0792                     	;# 
   601     0793                     	;# 
   602     0794                     	;# 
   603     0795                     	;# 
   604     0798                     	;# 
   605     0799                     	;# 
   606     07A0                     	;# 
   607     07A1                     	;# 
   608     07A3                     	;# 
   609     07A4                     	;# 
   610     07A6                     	;# 
   611     07A7                     	;# 
   612     07A9                     	;# 
   613     07AA                     	;# 
   614     0FE4                     	;# 
   615     0FE5                     	;# 
   616     0FE6                     	;# 
   617     0FE7                     	;# 
   618     0FE8                     	;# 
   619     0FE9                     	;# 
   620     0FEA                     	;# 
   621     0FEB                     	;# 
   622     0FED                     	;# 
   623     0FEE                     	;# 
   624     0FEF                     	;# 
   625     0000                     	;# 
   626     0001                     	;# 
   627     0002                     	;# 
   628     0003                     	;# 
   629     0004                     	;# 
   630     0005                     	;# 
   631     0006                     	;# 
   632     0007                     	;# 
   633     0008                     	;# 
   634     0009                     	;# 
   635     000A                     	;# 
   636     000B                     	;# 
   637     000C                     	;# 
   638     000D                     	;# 
   639     000E                     	;# 
   640     0010                     	;# 
   641     0011                     	;# 
   642     0012                     	;# 
   643     0013                     	;# 
   644     0015                     	;# 
   645     0016                     	;# 
   646     0016                     	;# 
   647     0017                     	;# 
   648     0018                     	;# 
   649     0019                     	;# 
   650     001A                     	;# 
   651     001B                     	;# 
   652     001C                     	;# 
   653     001E                     	;# 
   654     001F                     	;# 
   655     008C                     	;# 
   656     008D                     	;# 
   657     008E                     	;# 
   658     0090                     	;# 
   659     0091                     	;# 
   660     0092                     	;# 
   661     0093                     	;# 
   662     0095                     	;# 
   663     0096                     	;# 
   664     0097                     	;# 
   665     0098                     	;# 
   666     0099                     	;# 
   667     009A                     	;# 
   668     009B                     	;# 
   669     009B                     	;# 
   670     009C                     	;# 
   671     009D                     	;# 
   672     009E                     	;# 
   673     010C                     	;# 
   674     010D                     	;# 
   675     010E                     	;# 
   676     0110                     	;# 
   677     0111                     	;# 
   678     0112                     	;# 
   679     0113                     	;# 
   680     0114                     	;# 
   681     0115                     	;# 
   682     0116                     	;# 
   683     0117                     	;# 
   684     0118                     	;# 
   685     0119                     	;# 
   686     011A                     	;# 
   687     011B                     	;# 
   688     011D                     	;# 
   689     018C                     	;# 
   690     018D                     	;# 
   691     0191                     	;# 
   692     0191                     	;# 
   693     0192                     	;# 
   694     0193                     	;# 
   695     0193                     	;# 
   696     0193                     	;# 
   697     0194                     	;# 
   698     0195                     	;# 
   699     0196                     	;# 
   700     0199                     	;# 
   701     019A                     	;# 
   702     019B                     	;# 
   703     019B                     	;# 
   704     019B                     	;# 
   705     019B                     	;# 
   706     019C                     	;# 
   707     019C                     	;# 
   708     019D                     	;# 
   709     019E                     	;# 
   710     019F                     	;# 
   711     020D                     	;# 
   712     0210                     	;# 
   713     0211                     	;# 
   714     0212                     	;# 
   715     0213                     	;# 
   716     0214                     	;# 
   717     0215                     	;# 
   718     0215                     	;# 
   719     0216                     	;# 
   720     0217                     	;# 
   721     0291                     	;# 
   722     0291                     	;# 
   723     0292                     	;# 
   724     0293                     	;# 
   725     0294                     	;# 
   726     0295                     	;# 
   727     0295                     	;# 
   728     0296                     	;# 
   729     0298                     	;# 
   730     0298                     	;# 
   731     0299                     	;# 
   732     029A                     	;# 
   733     029B                     	;# 
   734     029C                     	;# 
   735     029C                     	;# 
   736     029D                     	;# 
   737     029E                     	;# 
   738     029F                     	;# 
   739     0311                     	;# 
   740     0311                     	;# 
   741     0312                     	;# 
   742     0313                     	;# 
   743     0314                     	;# 
   744     0315                     	;# 
   745     0315                     	;# 
   746     0316                     	;# 
   747     0318                     	;# 
   748     0318                     	;# 
   749     0319                     	;# 
   750     031A                     	;# 
   751     031C                     	;# 
   752     031C                     	;# 
   753     031D                     	;# 
   754     031E                     	;# 
   755     0394                     	;# 
   756     0395                     	;# 
   757     0396                     	;# 
   758     0415                     	;# 
   759     0416                     	;# 
   760     0417                     	;# 
   761     041C                     	;# 
   762     041D                     	;# 
   763     041E                     	;# 
   764     0791                     	;# 
   765     0792                     	;# 
   766     0793                     	;# 
   767     0794                     	;# 
   768     0795                     	;# 
   769     0798                     	;# 
   770     0799                     	;# 
   771     07A0                     	;# 
   772     07A1                     	;# 
   773     07A3                     	;# 
   774     07A4                     	;# 
   775     07A6                     	;# 
   776     07A7                     	;# 
   777     07A9                     	;# 
   778     07AA                     	;# 
   779     0FE4                     	;# 
   780     0FE5                     	;# 
   781     0FE6                     	;# 
   782     0FE7                     	;# 
   783     0FE8                     	;# 
   784     0FE9                     	;# 
   785     0FEA                     	;# 
   786     0FEB                     	;# 
   787     0FED                     	;# 
   788     0FEE                     	;# 
   789     0FEF                     	;# 
   790     0000                     	;# 
   791     0001                     	;# 
   792     0002                     	;# 
   793     0003                     	;# 
   794     0004                     	;# 
   795     0005                     	;# 
   796     0006                     	;# 
   797     0007                     	;# 
   798     0008                     	;# 
   799     0009                     	;# 
   800     000A                     	;# 
   801     000B                     	;# 
   802     000C                     	;# 
   803     000D                     	;# 
   804     000E                     	;# 
   805     0010                     	;# 
   806     0011                     	;# 
   807     0012                     	;# 
   808     0013                     	;# 
   809     0015                     	;# 
   810     0016                     	;# 
   811     0016                     	;# 
   812     0017                     	;# 
   813     0018                     	;# 
   814     0019                     	;# 
   815     001A                     	;# 
   816     001B                     	;# 
   817     001C                     	;# 
   818     001E                     	;# 
   819     001F                     	;# 
   820     008C                     	;# 
   821     008D                     	;# 
   822     008E                     	;# 
   823     0090                     	;# 
   824     0091                     	;# 
   825     0092                     	;# 
   826     0093                     	;# 
   827     0095                     	;# 
   828     0096                     	;# 
   829     0097                     	;# 
   830     0098                     	;# 
   831     0099                     	;# 
   832     009A                     	;# 
   833     009B                     	;# 
   834     009B                     	;# 
   835     009C                     	;# 
   836     009D                     	;# 
   837     009E                     	;# 
   838     010C                     	;# 
   839     010D                     	;# 
   840     010E                     	;# 
   841     0110                     	;# 
   842     0111                     	;# 
   843     0112                     	;# 
   844     0113                     	;# 
   845     0114                     	;# 
   846     0115                     	;# 
   847     0116                     	;# 
   848     0117                     	;# 
   849     0118                     	;# 
   850     0119                     	;# 
   851     011A                     	;# 
   852     011B                     	;# 
   853     011D                     	;# 
   854     018C                     	;# 
   855     018D                     	;# 
   856     0191                     	;# 
   857     0191                     	;# 
   858     0192                     	;# 
   859     0193                     	;# 
   860     0193                     	;# 
   861     0193                     	;# 
   862     0194                     	;# 
   863     0195                     	;# 
   864     0196                     	;# 
   865     0199                     	;# 
   866     019A                     	;# 
   867     019B                     	;# 
   868     019B                     	;# 
   869     019B                     	;# 
   870     019B                     	;# 
   871     019C                     	;# 
   872     019C                     	;# 
   873     019D                     	;# 
   874     019E                     	;# 
   875     019F                     	;# 
   876     020D                     	;# 
   877     0210                     	;# 
   878     0211                     	;# 
   879     0212                     	;# 
   880     0213                     	;# 
   881     0214                     	;# 
   882     0215                     	;# 
   883     0215                     	;# 
   884     0216                     	;# 
   885     0217                     	;# 
   886     0291                     	;# 
   887     0291                     	;# 
   888     0292                     	;# 
   889     0293                     	;# 
   890     0294                     	;# 
   891     0295                     	;# 
   892     0295                     	;# 
   893     0296                     	;# 
   894     0298                     	;# 
   895     0298                     	;# 
   896     0299                     	;# 
   897     029A                     	;# 
   898     029B                     	;# 
   899     029C                     	;# 
   900     029C                     	;# 
   901     029D                     	;# 
   902     029E                     	;# 
   903     029F                     	;# 
   904     0311                     	;# 
   905     0311                     	;# 
   906     0312                     	;# 
   907     0313                     	;# 
   908     0314                     	;# 
   909     0315                     	;# 
   910     0315                     	;# 
   911     0316                     	;# 
   912     0318                     	;# 
   913     0318                     	;# 
   914     0319                     	;# 
   915     031A                     	;# 
   916     031C                     	;# 
   917     031C                     	;# 
   918     031D                     	;# 
   919     031E                     	;# 
   920     0394                     	;# 
   921     0395                     	;# 
   922     0396                     	;# 
   923     0415                     	;# 
   924     0416                     	;# 
   925     0417                     	;# 
   926     041C                     	;# 
   927     041D                     	;# 
   928     041E                     	;# 
   929     0791                     	;# 
   930     0792                     	;# 
   931     0793                     	;# 
   932     0794                     	;# 
   933     0795                     	;# 
   934     0798                     	;# 
   935     0799                     	;# 
   936     07A0                     	;# 
   937     07A1                     	;# 
   938     07A3                     	;# 
   939     07A4                     	;# 
   940     07A6                     	;# 
   941     07A7                     	;# 
   942     07A9                     	;# 
   943     07AA                     	;# 
   944     0FE4                     	;# 
   945     0FE5                     	;# 
   946     0FE6                     	;# 
   947     0FE7                     	;# 
   948     0FE8                     	;# 
   949     0FE9                     	;# 
   950     0FEA                     	;# 
   951     0FEB                     	;# 
   952     0FED                     	;# 
   953     0FEE                     	;# 
   954     0FEF                     	;# 
   955     0000                     	;# 
   956     0001                     	;# 
   957     0002                     	;# 
   958     0003                     	;# 
   959     0004                     	;# 
   960     0005                     	;# 
   961     0006                     	;# 
   962     0007                     	;# 
   963     0008                     	;# 
   964     0009                     	;# 
   965     000A                     	;# 
   966     000B                     	;# 
   967     000C                     	;# 
   968     000D                     	;# 
   969     000E                     	;# 
   970     0010                     	;# 
   971     0011                     	;# 
   972     0012                     	;# 
   973     0013                     	;# 
   974     0015                     	;# 
   975     0016                     	;# 
   976     0016                     	;# 
   977     0017                     	;# 
   978     0018                     	;# 
   979     0019                     	;# 
   980     001A                     	;# 
   981     001B                     	;# 
   982     001C                     	;# 
   983     001E                     	;# 
   984     001F                     	;# 
   985     008C                     	;# 
   986     008D                     	;# 
   987     008E                     	;# 
   988     0090                     	;# 
   989     0091                     	;# 
   990     0092                     	;# 
   991     0093                     	;# 
   992     0095                     	;# 
   993     0096                     	;# 
   994     0097                     	;# 
   995     0098                     	;# 
   996     0099                     	;# 
   997     009A                     	;# 
   998     009B                     	;# 
   999     009B                     	;# 
  1000     009C                     	;# 
  1001     009D                     	;# 
  1002     009E                     	;# 
  1003     010C                     	;# 
  1004     010D                     	;# 
  1005     010E                     	;# 
  1006     0110                     	;# 
  1007     0111                     	;# 
  1008     0112                     	;# 
  1009     0113                     	;# 
  1010     0114                     	;# 
  1011     0115                     	;# 
  1012     0116                     	;# 
  1013     0117                     	;# 
  1014     0118                     	;# 
  1015     0119                     	;# 
  1016     011A                     	;# 
  1017     011B                     	;# 
  1018     011D                     	;# 
  1019     018C                     	;# 
  1020     018D                     	;# 
  1021     0191                     	;# 
  1022     0191                     	;# 
  1023     0192                     	;# 
  1024     0193                     	;# 
  1025     0193                     	;# 
  1026     0193                     	;# 
  1027     0194                     	;# 
  1028     0195                     	;# 
  1029     0196                     	;# 
  1030     0199                     	;# 
  1031     019A                     	;# 
  1032     019B                     	;# 
  1033     019B                     	;# 
  1034     019B                     	;# 
  1035     019B                     	;# 
  1036     019C                     	;# 
  1037     019C                     	;# 
  1038     019D                     	;# 
  1039     019E                     	;# 
  1040     019F                     	;# 
  1041     020D                     	;# 
  1042     0210                     	;# 
  1043     0211                     	;# 
  1044     0212                     	;# 
  1045     0213                     	;# 
  1046     0214                     	;# 
  1047     0215                     	;# 
  1048     0215                     	;# 
  1049     0216                     	;# 
  1050     0217                     	;# 
  1051     0291                     	;# 
  1052     0291                     	;# 
  1053     0292                     	;# 
  1054     0293                     	;# 
  1055     0294                     	;# 
  1056     0295                     	;# 
  1057     0295                     	;# 
  1058     0296                     	;# 
  1059     0298                     	;# 
  1060     0298                     	;# 
  1061     0299                     	;# 
  1062     029A                     	;# 
  1063     029B                     	;# 
  1064     029C                     	;# 
  1065     029C                     	;# 
  1066     029D                     	;# 
  1067     029E                     	;# 
  1068     029F                     	;# 
  1069     0311                     	;# 
  1070     0311                     	;# 
  1071     0312                     	;# 
  1072     0313                     	;# 
  1073     0314                     	;# 
  1074     0315                     	;# 
  1075     0315                     	;# 
  1076     0316                     	;# 
  1077     0318                     	;# 
  1078     0318                     	;# 
  1079     0319                     	;# 
  1080     031A                     	;# 
  1081     031C                     	;# 
  1082     031C                     	;# 
  1083     031D                     	;# 
  1084     031E                     	;# 
  1085     0394                     	;# 
  1086     0395                     	;# 
  1087     0396                     	;# 
  1088     0415                     	;# 
  1089     0416                     	;# 
  1090     0417                     	;# 
  1091     041C                     	;# 
  1092     041D                     	;# 
  1093     041E                     	;# 
  1094     0791                     	;# 
  1095     0792                     	;# 
  1096     0793                     	;# 
  1097     0794                     	;# 
  1098     0795                     	;# 
  1099     0798                     	;# 
  1100     0799                     	;# 
  1101     07A0                     	;# 
  1102     07A1                     	;# 
  1103     07A3                     	;# 
  1104     07A4                     	;# 
  1105     07A6                     	;# 
  1106     07A7                     	;# 
  1107     07A9                     	;# 
  1108     07AA                     	;# 
  1109     0FE4                     	;# 
  1110     0FE5                     	;# 
  1111     0FE6                     	;# 
  1112     0FE7                     	;# 
  1113     0FE8                     	;# 
  1114     0FE9                     	;# 
  1115     0FEA                     	;# 
  1116     0FEB                     	;# 
  1117     0FED                     	;# 
  1118     0FEE                     	;# 
  1119     0FEF                     	;# 
  1120     0000                     	;# 
  1121     0001                     	;# 
  1122     0002                     	;# 
  1123     0003                     	;# 
  1124     0004                     	;# 
  1125     0005                     	;# 
  1126     0006                     	;# 
  1127     0007                     	;# 
  1128     0008                     	;# 
  1129     0009                     	;# 
  1130     000A                     	;# 
  1131     000B                     	;# 
  1132     000C                     	;# 
  1133     000D                     	;# 
  1134     000E                     	;# 
  1135     0010                     	;# 
  1136     0011                     	;# 
  1137     0012                     	;# 
  1138     0013                     	;# 
  1139     0015                     	;# 
  1140     0016                     	;# 
  1141     0016                     	;# 
  1142     0017                     	;# 
  1143     0018                     	;# 
  1144     0019                     	;# 
  1145     001A                     	;# 
  1146     001B                     	;# 
  1147     001C                     	;# 
  1148     001E                     	;# 
  1149     001F                     	;# 
  1150     008C                     	;# 
  1151     008D                     	;# 
  1152     008E                     	;# 
  1153     0090                     	;# 
  1154     0091                     	;# 
  1155     0092                     	;# 
  1156     0093                     	;# 
  1157     0095                     	;# 
  1158     0096                     	;# 
  1159     0097                     	;# 
  1160     0098                     	;# 
  1161     0099                     	;# 
  1162     009A                     	;# 
  1163     009B                     	;# 
  1164     009B                     	;# 
  1165     009C                     	;# 
  1166     009D                     	;# 
  1167     009E                     	;# 
  1168     010C                     	;# 
  1169     010D                     	;# 
  1170     010E                     	;# 
  1171     0110                     	;# 
  1172     0111                     	;# 
  1173     0112                     	;# 
  1174     0113                     	;# 
  1175     0114                     	;# 
  1176     0115                     	;# 
  1177     0116                     	;# 
  1178     0117                     	;# 
  1179     0118                     	;# 
  1180     0119                     	;# 
  1181     011A                     	;# 
  1182     011B                     	;# 
  1183     011D                     	;# 
  1184     018C                     	;# 
  1185     018D                     	;# 
  1186     0191                     	;# 
  1187     0191                     	;# 
  1188     0192                     	;# 
  1189     0193                     	;# 
  1190     0193                     	;# 
  1191     0193                     	;# 
  1192     0194                     	;# 
  1193     0195                     	;# 
  1194     0196                     	;# 
  1195     0199                     	;# 
  1196     019A                     	;# 
  1197     019B                     	;# 
  1198     019B                     	;# 
  1199     019B                     	;# 
  1200     019B                     	;# 
  1201     019C                     	;# 
  1202     019C                     	;# 
  1203     019D                     	;# 
  1204     019E                     	;# 
  1205     019F                     	;# 
  1206     020D                     	;# 
  1207     0210                     	;# 
  1208     0211                     	;# 
  1209     0212                     	;# 
  1210     0213                     	;# 
  1211     0214                     	;# 
  1212     0215                     	;# 
  1213     0215                     	;# 
  1214     0216                     	;# 
  1215     0217                     	;# 
  1216     0291                     	;# 
  1217     0291                     	;# 
  1218     0292                     	;# 
  1219     0293                     	;# 
  1220     0294                     	;# 
  1221     0295                     	;# 
  1222     0295                     	;# 
  1223     0296                     	;# 
  1224     0298                     	;# 
  1225     0298                     	;# 
  1226     0299                     	;# 
  1227     029A                     	;# 
  1228     029B                     	;# 
  1229     029C                     	;# 
  1230     029C                     	;# 
  1231     029D                     	;# 
  1232     029E                     	;# 
  1233     029F                     	;# 
  1234     0311                     	;# 
  1235     0311                     	;# 
  1236     0312                     	;# 
  1237     0313                     	;# 
  1238     0314                     	;# 
  1239     0315                     	;# 
  1240     0315                     	;# 
  1241     0316                     	;# 
  1242     0318                     	;# 
  1243     0318                     	;# 
  1244     0319                     	;# 
  1245     031A                     	;# 
  1246     031C                     	;# 
  1247     031C                     	;# 
  1248     031D                     	;# 
  1249     031E                     	;# 
  1250     0394                     	;# 
  1251     0395                     	;# 
  1252     0396                     	;# 
  1253     0415                     	;# 
  1254     0416                     	;# 
  1255     0417                     	;# 
  1256     041C                     	;# 
  1257     041D                     	;# 
  1258     041E                     	;# 
  1259     0791                     	;# 
  1260     0792                     	;# 
  1261     0793                     	;# 
  1262     0794                     	;# 
  1263     0795                     	;# 
  1264     0798                     	;# 
  1265     0799                     	;# 
  1266     07A0                     	;# 
  1267     07A1                     	;# 
  1268     07A3                     	;# 
  1269     07A4                     	;# 
  1270     07A6                     	;# 
  1271     07A7                     	;# 
  1272     07A9                     	;# 
  1273     07AA                     	;# 
  1274     0FE4                     	;# 
  1275     0FE5                     	;# 
  1276     0FE6                     	;# 
  1277     0FE7                     	;# 
  1278     0FE8                     	;# 
  1279     0FE9                     	;# 
  1280     0FEA                     	;# 
  1281     0FEB                     	;# 
  1282     0FED                     	;# 
  1283     0FEE                     	;# 
  1284     0FEF                     	;# 
  1285     0000                     	;# 
  1286     0001                     	;# 
  1287     0002                     	;# 
  1288     0003                     	;# 
  1289     0004                     	;# 
  1290     0005                     	;# 
  1291     0006                     	;# 
  1292     0007                     	;# 
  1293     0008                     	;# 
  1294     0009                     	;# 
  1295     000A                     	;# 
  1296     000B                     	;# 
  1297     000C                     	;# 
  1298     000D                     	;# 
  1299     000E                     	;# 
  1300     0010                     	;# 
  1301     0011                     	;# 
  1302     0012                     	;# 
  1303     0013                     	;# 
  1304     0015                     	;# 
  1305     0016                     	;# 
  1306     0016                     	;# 
  1307     0017                     	;# 
  1308     0018                     	;# 
  1309     0019                     	;# 
  1310     001A                     	;# 
  1311     001B                     	;# 
  1312     001C                     	;# 
  1313     001E                     	;# 
  1314     001F                     	;# 
  1315     008C                     	;# 
  1316     008D                     	;# 
  1317     008E                     	;# 
  1318     0090                     	;# 
  1319     0091                     	;# 
  1320     0092                     	;# 
  1321     0093                     	;# 
  1322     0095                     	;# 
  1323     0096                     	;# 
  1324     0097                     	;# 
  1325     0098                     	;# 
  1326     0099                     	;# 
  1327     009A                     	;# 
  1328     009B                     	;# 
  1329     009B                     	;# 
  1330     009C                     	;# 
  1331     009D                     	;# 
  1332     009E                     	;# 
  1333     010C                     	;# 
  1334     010D                     	;# 
  1335     010E                     	;# 
  1336     0110                     	;# 
  1337     0111                     	;# 
  1338     0112                     	;# 
  1339     0113                     	;# 
  1340     0114                     	;# 
  1341     0115                     	;# 
  1342     0116                     	;# 
  1343     0117                     	;# 
  1344     0118                     	;# 
  1345     0119                     	;# 
  1346     011A                     	;# 
  1347     011B                     	;# 
  1348     011D                     	;# 
  1349     018C                     	;# 
  1350     018D                     	;# 
  1351     0191                     	;# 
  1352     0191                     	;# 
  1353     0192                     	;# 
  1354     0193                     	;# 
  1355     0193                     	;# 
  1356     0193                     	;# 
  1357     0194                     	;# 
  1358     0195                     	;# 
  1359     0196                     	;# 
  1360     0199                     	;# 
  1361     019A                     	;# 
  1362     019B                     	;# 
  1363     019B                     	;# 
  1364     019B                     	;# 
  1365     019B                     	;# 
  1366     019C                     	;# 
  1367     019C                     	;# 
  1368     019D                     	;# 
  1369     019E                     	;# 
  1370     019F                     	;# 
  1371     020D                     	;# 
  1372     0210                     	;# 
  1373     0211                     	;# 
  1374     0212                     	;# 
  1375     0213                     	;# 
  1376     0214                     	;# 
  1377     0215                     	;# 
  1378     0215                     	;# 
  1379     0216                     	;# 
  1380     0217                     	;# 
  1381     0291                     	;# 
  1382     0291                     	;# 
  1383     0292                     	;# 
  1384     0293                     	;# 
  1385     0294                     	;# 
  1386     0295                     	;# 
  1387     0295                     	;# 
  1388     0296                     	;# 
  1389     0298                     	;# 
  1390     0298                     	;# 
  1391     0299                     	;# 
  1392     029A                     	;# 
  1393     029B                     	;# 
  1394     029C                     	;# 
  1395     029C                     	;# 
  1396     029D                     	;# 
  1397     029E                     	;# 
  1398     029F                     	;# 
  1399     0311                     	;# 
  1400     0311                     	;# 
  1401     0312                     	;# 
  1402     0313                     	;# 
  1403     0314                     	;# 
  1404     0315                     	;# 
  1405     0315                     	;# 
  1406     0316                     	;# 
  1407     0318                     	;# 
  1408     0318                     	;# 
  1409     0319                     	;# 
  1410     031A                     	;# 
  1411     031C                     	;# 
  1412     031C                     	;# 
  1413     031D                     	;# 
  1414     031E                     	;# 
  1415     0394                     	;# 
  1416     0395                     	;# 
  1417     0396                     	;# 
  1418     0415                     	;# 
  1419     0416                     	;# 
  1420     0417                     	;# 
  1421     041C                     	;# 
  1422     041D                     	;# 
  1423     041E                     	;# 
  1424     0791                     	;# 
  1425     0792                     	;# 
  1426     0793                     	;# 
  1427     0794                     	;# 
  1428     0795                     	;# 
  1429     0798                     	;# 
  1430     0799                     	;# 
  1431     07A0                     	;# 
  1432     07A1                     	;# 
  1433     07A3                     	;# 
  1434     07A4                     	;# 
  1435     07A6                     	;# 
  1436     07A7                     	;# 
  1437     07A9                     	;# 
  1438     07AA                     	;# 
  1439     0FE4                     	;# 
  1440     0FE5                     	;# 
  1441     0FE6                     	;# 
  1442     0FE7                     	;# 
  1443     0FE8                     	;# 
  1444     0FE9                     	;# 
  1445     0FEA                     	;# 
  1446     0FEB                     	;# 
  1447     0FED                     	;# 
  1448     0FEE                     	;# 
  1449     0FEF                     	;# 
  1450     0000                     	;# 
  1451     0001                     	;# 
  1452     0002                     	;# 
  1453     0003                     	;# 
  1454     0004                     	;# 
  1455     0005                     	;# 
  1456     0006                     	;# 
  1457     0007                     	;# 
  1458     0008                     	;# 
  1459     0009                     	;# 
  1460     000A                     	;# 
  1461     000B                     	;# 
  1462     000C                     	;# 
  1463     000D                     	;# 
  1464     000E                     	;# 
  1465     0010                     	;# 
  1466     0011                     	;# 
  1467     0012                     	;# 
  1468     0013                     	;# 
  1469     0015                     	;# 
  1470     0016                     	;# 
  1471     0016                     	;# 
  1472     0017                     	;# 
  1473     0018                     	;# 
  1474     0019                     	;# 
  1475     001A                     	;# 
  1476     001B                     	;# 
  1477     001C                     	;# 
  1478     001E                     	;# 
  1479     001F                     	;# 
  1480     008C                     	;# 
  1481     008D                     	;# 
  1482     008E                     	;# 
  1483     0090                     	;# 
  1484     0091                     	;# 
  1485     0092                     	;# 
  1486     0093                     	;# 
  1487     0095                     	;# 
  1488     0096                     	;# 
  1489     0097                     	;# 
  1490     0098                     	;# 
  1491     0099                     	;# 
  1492     009A                     	;# 
  1493     009B                     	;# 
  1494     009B                     	;# 
  1495     009C                     	;# 
  1496     009D                     	;# 
  1497     009E                     	;# 
  1498     010C                     	;# 
  1499     010D                     	;# 
  1500     010E                     	;# 
  1501     0110                     	;# 
  1502     0111                     	;# 
  1503     0112                     	;# 
  1504     0113                     	;# 
  1505     0114                     	;# 
  1506     0115                     	;# 
  1507     0116                     	;# 
  1508     0117                     	;# 
  1509     0118                     	;# 
  1510     0119                     	;# 
  1511     011A                     	;# 
  1512     011B                     	;# 
  1513     011D                     	;# 
  1514     018C                     	;# 
  1515     018D                     	;# 
  1516     0191                     	;# 
  1517     0191                     	;# 
  1518     0192                     	;# 
  1519     0193                     	;# 
  1520     0193                     	;# 
  1521     0193                     	;# 
  1522     0194                     	;# 
  1523     0195                     	;# 
  1524     0196                     	;# 
  1525     0199                     	;# 
  1526     019A                     	;# 
  1527     019B                     	;# 
  1528     019B                     	;# 
  1529     019B                     	;# 
  1530     019B                     	;# 
  1531     019C                     	;# 
  1532     019C                     	;# 
  1533     019D                     	;# 
  1534     019E                     	;# 
  1535     019F                     	;# 
  1536     020D                     	;# 
  1537     0210                     	;# 
  1538     0211                     	;# 
  1539     0212                     	;# 
  1540     0213                     	;# 
  1541     0214                     	;# 
  1542     0215                     	;# 
  1543     0215                     	;# 
  1544     0216                     	;# 
  1545     0217                     	;# 
  1546     0291                     	;# 
  1547     0291                     	;# 
  1548     0292                     	;# 
  1549     0293                     	;# 
  1550     0294                     	;# 
  1551     0295                     	;# 
  1552     0295                     	;# 
  1553     0296                     	;# 
  1554     0298                     	;# 
  1555     0298                     	;# 
  1556     0299                     	;# 
  1557     029A                     	;# 
  1558     029B                     	;# 
  1559     029C                     	;# 
  1560     029C                     	;# 
  1561     029D                     	;# 
  1562     029E                     	;# 
  1563     029F                     	;# 
  1564     0311                     	;# 
  1565     0311                     	;# 
  1566     0312                     	;# 
  1567     0313                     	;# 
  1568     0314                     	;# 
  1569     0315                     	;# 
  1570     0315                     	;# 
  1571     0316                     	;# 
  1572     0318                     	;# 
  1573     0318                     	;# 
  1574     0319                     	;# 
  1575     031A                     	;# 
  1576     031C                     	;# 
  1577     031C                     	;# 
  1578     031D                     	;# 
  1579     031E                     	;# 
  1580     0394                     	;# 
  1581     0395                     	;# 
  1582     0396                     	;# 
  1583     0415                     	;# 
  1584     0416                     	;# 
  1585     0417                     	;# 
  1586     041C                     	;# 
  1587     041D                     	;# 
  1588     041E                     	;# 
  1589     0791                     	;# 
  1590     0792                     	;# 
  1591     0793                     	;# 
  1592     0794                     	;# 
  1593     0795                     	;# 
  1594     0798                     	;# 
  1595     0799                     	;# 
  1596     07A0                     	;# 
  1597     07A1                     	;# 
  1598     07A3                     	;# 
  1599     07A4                     	;# 
  1600     07A6                     	;# 
  1601     07A7                     	;# 
  1602     07A9                     	;# 
  1603     07AA                     	;# 
  1604     0FE4                     	;# 
  1605     0FE5                     	;# 
  1606     0FE6                     	;# 
  1607     0FE7                     	;# 
  1608     0FE8                     	;# 
  1609     0FE9                     	;# 
  1610     0FEA                     	;# 
  1611     0FEB                     	;# 
  1612     0FED                     	;# 
  1613     0FEE                     	;# 
  1614     0FEF                     	;# 
  1615     0000                     	;# 
  1616     0001                     	;# 
  1617     0002                     	;# 
  1618     0003                     	;# 
  1619     0004                     	;# 
  1620     0005                     	;# 
  1621     0006                     	;# 
  1622     0007                     	;# 
  1623     0008                     	;# 
  1624     0009                     	;# 
  1625     000A                     	;# 
  1626     000B                     	;# 
  1627     000C                     	;# 
  1628     000D                     	;# 
  1629     000E                     	;# 
  1630     0010                     	;# 
  1631     0011                     	;# 
  1632     0012                     	;# 
  1633     0013                     	;# 
  1634     0015                     	;# 
  1635     0016                     	;# 
  1636     0016                     	;# 
  1637     0017                     	;# 
  1638     0018                     	;# 
  1639     0019                     	;# 
  1640     001A                     	;# 
  1641     001B                     	;# 
  1642     001C                     	;# 
  1643     001E                     	;# 
  1644     001F                     	;# 
  1645     008C                     	;# 
  1646     008D                     	;# 
  1647     008E                     	;# 
  1648     0090                     	;# 
  1649     0091                     	;# 
  1650     0092                     	;# 
  1651     0093                     	;# 
  1652     0095                     	;# 
  1653     0096                     	;# 
  1654     0097                     	;# 
  1655     0098                     	;# 
  1656     0099                     	;# 
  1657     009A                     	;# 
  1658     009B                     	;# 
  1659     009B                     	;# 
  1660     009C                     	;# 
  1661     009D                     	;# 
  1662     009E                     	;# 
  1663     010C                     	;# 
  1664     010D                     	;# 
  1665     010E                     	;# 
  1666     0110                     	;# 
  1667     0111                     	;# 
  1668     0112                     	;# 
  1669     0113                     	;# 
  1670     0114                     	;# 
  1671     0115                     	;# 
  1672     0116                     	;# 
  1673     0117                     	;# 
  1674     0118                     	;# 
  1675     0119                     	;# 
  1676     011A                     	;# 
  1677     011B                     	;# 
  1678     011D                     	;# 
  1679     018C                     	;# 
  1680     018D                     	;# 
  1681     0191                     	;# 
  1682     0191                     	;# 
  1683     0192                     	;# 
  1684     0193                     	;# 
  1685     0193                     	;# 
  1686     0193                     	;# 
  1687     0194                     	;# 
  1688     0195                     	;# 
  1689     0196                     	;# 
  1690     0199                     	;# 
  1691     019A                     	;# 
  1692     019B                     	;# 
  1693     019B                     	;# 
  1694     019B                     	;# 
  1695     019B                     	;# 
  1696     019C                     	;# 
  1697     019C                     	;# 
  1698     019D                     	;# 
  1699     019E                     	;# 
  1700     019F                     	;# 
  1701     020D                     	;# 
  1702     0210                     	;# 
  1703     0211                     	;# 
  1704     0212                     	;# 
  1705     0213                     	;# 
  1706     0214                     	;# 
  1707     0215                     	;# 
  1708     0215                     	;# 
  1709     0216                     	;# 
  1710     0217                     	;# 
  1711     0291                     	;# 
  1712     0291                     	;# 
  1713     0292                     	;# 
  1714     0293                     	;# 
  1715     0294                     	;# 
  1716     0295                     	;# 
  1717     0295                     	;# 
  1718     0296                     	;# 
  1719     0298                     	;# 
  1720     0298                     	;# 
  1721     0299                     	;# 
  1722     029A                     	;# 
  1723     029B                     	;# 
  1724     029C                     	;# 
  1725     029C                     	;# 
  1726     029D                     	;# 
  1727     029E                     	;# 
  1728     029F                     	;# 
  1729     0311                     	;# 
  1730     0311                     	;# 
  1731     0312                     	;# 
  1732     0313                     	;# 
  1733     0314                     	;# 
  1734     0315                     	;# 
  1735     0315                     	;# 
  1736     0316                     	;# 
  1737     0318                     	;# 
  1738     0318                     	;# 
  1739     0319                     	;# 
  1740     031A                     	;# 
  1741     031C                     	;# 
  1742     031C                     	;# 
  1743     031D                     	;# 
  1744     031E                     	;# 
  1745     0394                     	;# 
  1746     0395                     	;# 
  1747     0396                     	;# 
  1748     0415                     	;# 
  1749     0416                     	;# 
  1750     0417                     	;# 
  1751     041C                     	;# 
  1752     041D                     	;# 
  1753     041E                     	;# 
  1754     0791                     	;# 
  1755     0792                     	;# 
  1756     0793                     	;# 
  1757     0794                     	;# 
  1758     0795                     	;# 
  1759     0798                     	;# 
  1760     0799                     	;# 
  1761     07A0                     	;# 
  1762     07A1                     	;# 
  1763     07A3                     	;# 
  1764     07A4                     	;# 
  1765     07A6                     	;# 
  1766     07A7                     	;# 
  1767     07A9                     	;# 
  1768     07AA                     	;# 
  1769     0FE4                     	;# 
  1770     0FE5                     	;# 
  1771     0FE6                     	;# 
  1772     0FE7                     	;# 
  1773     0FE8                     	;# 
  1774     0FE9                     	;# 
  1775     0FEA                     	;# 
  1776     0FEB                     	;# 
  1777     0FED                     	;# 
  1778     0FEE                     	;# 
  1779     0FEF                     	;# 
  1780     0000                     	;# 
  1781     0001                     	;# 
  1782     0002                     	;# 
  1783     0003                     	;# 
  1784     0004                     	;# 
  1785     0005                     	;# 
  1786     0006                     	;# 
  1787     0007                     	;# 
  1788     0008                     	;# 
  1789     0009                     	;# 
  1790     000A                     	;# 
  1791     000B                     	;# 
  1792     000C                     	;# 
  1793     000D                     	;# 
  1794     000E                     	;# 
  1795     0010                     	;# 
  1796     0011                     	;# 
  1797     0012                     	;# 
  1798     0013                     	;# 
  1799     0015                     	;# 
  1800     0016                     	;# 
  1801     0016                     	;# 
  1802     0017                     	;# 
  1803     0018                     	;# 
  1804     0019                     	;# 
  1805     001A                     	;# 
  1806     001B                     	;# 
  1807     001C                     	;# 
  1808     001E                     	;# 
  1809     001F                     	;# 
  1810     008C                     	;# 
  1811     008D                     	;# 
  1812     008E                     	;# 
  1813     0090                     	;# 
  1814     0091                     	;# 
  1815     0092                     	;# 
  1816     0093                     	;# 
  1817     0095                     	;# 
  1818     0096                     	;# 
  1819     0097                     	;# 
  1820     0098                     	;# 
  1821     0099                     	;# 
  1822     009A                     	;# 
  1823     009B                     	;# 
  1824     009B                     	;# 
  1825     009C                     	;# 
  1826     009D                     	;# 
  1827     009E                     	;# 
  1828     010C                     	;# 
  1829     010D                     	;# 
  1830     010E                     	;# 
  1831     0110                     	;# 
  1832     0111                     	;# 
  1833     0112                     	;# 
  1834     0113                     	;# 
  1835     0114                     	;# 
  1836     0115                     	;# 
  1837     0116                     	;# 
  1838     0117                     	;# 
  1839     0118                     	;# 
  1840     0119                     	;# 
  1841     011A                     	;# 
  1842     011B                     	;# 
  1843     011D                     	;# 
  1844     018C                     	;# 
  1845     018D                     	;# 
  1846     0191                     	;# 
  1847     0191                     	;# 
  1848     0192                     	;# 
  1849     0193                     	;# 
  1850     0193                     	;# 
  1851     0193                     	;# 
  1852     0194                     	;# 
  1853     0195                     	;# 
  1854     0196                     	;# 
  1855     0199                     	;# 
  1856     019A                     	;# 
  1857     019B                     	;# 
  1858     019B                     	;# 
  1859     019B                     	;# 
  1860     019B                     	;# 
  1861     019C                     	;# 
  1862     019C                     	;# 
  1863     019D                     	;# 
  1864     019E                     	;# 
  1865     019F                     	;# 
  1866     020D                     	;# 
  1867     0210                     	;# 
  1868     0211                     	;# 
  1869     0212                     	;# 
  1870     0213                     	;# 
  1871     0214                     	;# 
  1872     0215                     	;# 
  1873     0215                     	;# 
  1874     0216                     	;# 
  1875     0217                     	;# 
  1876     0291                     	;# 
  1877     0291                     	;# 
  1878     0292                     	;# 
  1879     0293                     	;# 
  1880     0294                     	;# 
  1881     0295                     	;# 
  1882     0295                     	;# 
  1883     0296                     	;# 
  1884     0298                     	;# 
  1885     0298                     	;# 
  1886     0299                     	;# 
  1887     029A                     	;# 
  1888     029B                     	;# 
  1889     029C                     	;# 
  1890     029C                     	;# 
  1891     029D                     	;# 
  1892     029E                     	;# 
  1893     029F                     	;# 
  1894     0311                     	;# 
  1895     0311                     	;# 
  1896     0312                     	;# 
  1897     0313                     	;# 
  1898     0314                     	;# 
  1899     0315                     	;# 
  1900     0315                     	;# 
  1901     0316                     	;# 
  1902     0318                     	;# 
  1903     0318                     	;# 
  1904     0319                     	;# 
  1905     031A                     	;# 
  1906     031C                     	;# 
  1907     031C                     	;# 
  1908     031D                     	;# 
  1909     031E                     	;# 
  1910     0394                     	;# 
  1911     0395                     	;# 
  1912     0396                     	;# 
  1913     0415                     	;# 
  1914     0416                     	;# 
  1915     0417                     	;# 
  1916     041C                     	;# 
  1917     041D                     	;# 
  1918     041E                     	;# 
  1919     0791                     	;# 
  1920     0792                     	;# 
  1921     0793                     	;# 
  1922     0794                     	;# 
  1923     0795                     	;# 
  1924     0798                     	;# 
  1925     0799                     	;# 
  1926     07A0                     	;# 
  1927     07A1                     	;# 
  1928     07A3                     	;# 
  1929     07A4                     	;# 
  1930     07A6                     	;# 
  1931     07A7                     	;# 
  1932     07A9                     	;# 
  1933     07AA                     	;# 
  1934     0FE4                     	;# 
  1935     0FE5                     	;# 
  1936     0FE6                     	;# 
  1937     0FE7                     	;# 
  1938     0FE8                     	;# 
  1939     0FE9                     	;# 
  1940     0FEA                     	;# 
  1941     0FEB                     	;# 
  1942     0FED                     	;# 
  1943     0FEE                     	;# 
  1944     0FEF                     	;# 
  1945     0000                     	;# 
  1946     0001                     	;# 
  1947     0002                     	;# 
  1948     0003                     	;# 
  1949     0004                     	;# 
  1950     0005                     	;# 
  1951     0006                     	;# 
  1952     0007                     	;# 
  1953     0008                     	;# 
  1954     0009                     	;# 
  1955     000A                     	;# 
  1956     000B                     	;# 
  1957     000C                     	;# 
  1958     000D                     	;# 
  1959     000E                     	;# 
  1960     0010                     	;# 
  1961     0011                     	;# 
  1962     0012                     	;# 
  1963     0013                     	;# 
  1964     0015                     	;# 
  1965     0016                     	;# 
  1966     0016                     	;# 
  1967     0017                     	;# 
  1968     0018                     	;# 
  1969     0019                     	;# 
  1970     001A                     	;# 
  1971     001B                     	;# 
  1972     001C                     	;# 
  1973     001E                     	;# 
  1974     001F                     	;# 
  1975     008C                     	;# 
  1976     008D                     	;# 
  1977     008E                     	;# 
  1978     0090                     	;# 
  1979     0091                     	;# 
  1980     0092                     	;# 
  1981     0093                     	;# 
  1982     0095                     	;# 
  1983     0096                     	;# 
  1984     0097                     	;# 
  1985     0098                     	;# 
  1986     0099                     	;# 
  1987     009A                     	;# 
  1988     009B                     	;# 
  1989     009B                     	;# 
  1990     009C                     	;# 
  1991     009D                     	;# 
  1992     009E                     	;# 
  1993     010C                     	;# 
  1994     010D                     	;# 
  1995     010E                     	;# 
  1996     0110                     	;# 
  1997     0111                     	;# 
  1998     0112                     	;# 
  1999     0113                     	;# 
  2000     0114                     	;# 
  2001     0115                     	;# 
  2002     0116                     	;# 
  2003     0117                     	;# 
  2004     0118                     	;# 
  2005     0119                     	;# 
  2006     011A                     	;# 
  2007     011B                     	;# 
  2008     011D                     	;# 
  2009     018C                     	;# 
  2010     018D                     	;# 
  2011     0191                     	;# 
  2012     0191                     	;# 
  2013     0192                     	;# 
  2014     0193                     	;# 
  2015     0193                     	;# 
  2016     0193                     	;# 
  2017     0194                     	;# 
  2018     0195                     	;# 
  2019     0196                     	;# 
  2020     0199                     	;# 
  2021     019A                     	;# 
  2022     019B                     	;# 
  2023     019B                     	;# 
  2024     019B                     	;# 
  2025     019B                     	;# 
  2026     019C                     	;# 
  2027     019C                     	;# 
  2028     019D                     	;# 
  2029     019E                     	;# 
  2030     019F                     	;# 
  2031     020D                     	;# 
  2032     0210                     	;# 
  2033     0211                     	;# 
  2034     0212                     	;# 
  2035     0213                     	;# 
  2036     0214                     	;# 
  2037     0215                     	;# 
  2038     0215                     	;# 
  2039     0216                     	;# 
  2040     0217                     	;# 
  2041     0291                     	;# 
  2042     0291                     	;# 
  2043     0292                     	;# 
  2044     0293                     	;# 
  2045     0294                     	;# 
  2046     0295                     	;# 
  2047     0295                     	;# 
  2048     0296                     	;# 
  2049     0298                     	;# 
  2050     0298                     	;# 
  2051     0299                     	;# 
  2052     029A                     	;# 
  2053     029B                     	;# 
  2054     029C                     	;# 
  2055     029C                     	;# 
  2056     029D                     	;# 
  2057     029E                     	;# 
  2058     029F                     	;# 
  2059     0311                     	;# 
  2060     0311                     	;# 
  2061     0312                     	;# 
  2062     0313                     	;# 
  2063     0314                     	;# 
  2064     0315                     	;# 
  2065     0315                     	;# 
  2066     0316                     	;# 
  2067     0318                     	;# 
  2068     0318                     	;# 
  2069     0319                     	;# 
  2070     031A                     	;# 
  2071     031C                     	;# 
  2072     031C                     	;# 
  2073     031D                     	;# 
  2074     031E                     	;# 
  2075     0394                     	;# 
  2076     0395                     	;# 
  2077     0396                     	;# 
  2078     0415                     	;# 
  2079     0416                     	;# 
  2080     0417                     	;# 
  2081     041C                     	;# 
  2082     041D                     	;# 
  2083     041E                     	;# 
  2084     0791                     	;# 
  2085     0792                     	;# 
  2086     0793                     	;# 
  2087     0794                     	;# 
  2088     0795                     	;# 
  2089     0798                     	;# 
  2090     0799                     	;# 
  2091     07A0                     	;# 
  2092     07A1                     	;# 
  2093     07A3                     	;# 
  2094     07A4                     	;# 
  2095     07A6                     	;# 
  2096     07A7                     	;# 
  2097     07A9                     	;# 
  2098     07AA                     	;# 
  2099     0FE4                     	;# 
  2100     0FE5                     	;# 
  2101     0FE6                     	;# 
  2102     0FE7                     	;# 
  2103     0FE8                     	;# 
  2104     0FE9                     	;# 
  2105     0FEA                     	;# 
  2106     0FEB                     	;# 
  2107     0FED                     	;# 
  2108     0FEE                     	;# 
  2109     0FEF                     	;# 
  2110     0000                     	;# 
  2111     0001                     	;# 
  2112     0002                     	;# 
  2113     0003                     	;# 
  2114     0004                     	;# 
  2115     0005                     	;# 
  2116     0006                     	;# 
  2117     0007                     	;# 
  2118     0008                     	;# 
  2119     0009                     	;# 
  2120     000A                     	;# 
  2121     000B                     	;# 
  2122     000C                     	;# 
  2123     000D                     	;# 
  2124     000E                     	;# 
  2125     0010                     	;# 
  2126     0011                     	;# 
  2127     0012                     	;# 
  2128     0013                     	;# 
  2129     0015                     	;# 
  2130     0016                     	;# 
  2131     0016                     	;# 
  2132     0017                     	;# 
  2133     0018                     	;# 
  2134     0019                     	;# 
  2135     001A                     	;# 
  2136     001B                     	;# 
  2137     001C                     	;# 
  2138     001E                     	;# 
  2139     001F                     	;# 
  2140     008C                     	;# 
  2141     008D                     	;# 
  2142     008E                     	;# 
  2143     0090                     	;# 
  2144     0091                     	;# 
  2145     0092                     	;# 
  2146     0093                     	;# 
  2147     0095                     	;# 
  2148     0096                     	;# 
  2149     0097                     	;# 
  2150     0098                     	;# 
  2151     0099                     	;# 
  2152     009A                     	;# 
  2153     009B                     	;# 
  2154     009B                     	;# 
  2155     009C                     	;# 
  2156     009D                     	;# 
  2157     009E                     	;# 
  2158     010C                     	;# 
  2159     010D                     	;# 
  2160     010E                     	;# 
  2161     0110                     	;# 
  2162     0111                     	;# 
  2163     0112                     	;# 
  2164     0113                     	;# 
  2165     0114                     	;# 
  2166     0115                     	;# 
  2167     0116                     	;# 
  2168     0117                     	;# 
  2169     0118                     	;# 
  2170     0119                     	;# 
  2171     011A                     	;# 
  2172     011B                     	;# 
  2173     011D                     	;# 
  2174     018C                     	;# 
  2175     018D                     	;# 
  2176     0191                     	;# 
  2177     0191                     	;# 
  2178     0192                     	;# 
  2179     0193                     	;# 
  2180     0193                     	;# 
  2181     0193                     	;# 
  2182     0194                     	;# 
  2183     0195                     	;# 
  2184     0196                     	;# 
  2185     0199                     	;# 
  2186     019A                     	;# 
  2187     019B                     	;# 
  2188     019B                     	;# 
  2189     019B                     	;# 
  2190     019B                     	;# 
  2191     019C                     	;# 
  2192     019C                     	;# 
  2193     019D                     	;# 
  2194     019E                     	;# 
  2195     019F                     	;# 
  2196     020D                     	;# 
  2197     0210                     	;# 
  2198     0211                     	;# 
  2199     0212                     	;# 
  2200     0213                     	;# 
  2201     0214                     	;# 
  2202     0215                     	;# 
  2203     0215                     	;# 
  2204     0216                     	;# 
  2205     0217                     	;# 
  2206     0291                     	;# 
  2207     0291                     	;# 
  2208     0292                     	;# 
  2209     0293                     	;# 
  2210     0294                     	;# 
  2211     0295                     	;# 
  2212     0295                     	;# 
  2213     0296                     	;# 
  2214     0298                     	;# 
  2215     0298                     	;# 
  2216     0299                     	;# 
  2217     029A                     	;# 
  2218     029B                     	;# 
  2219     029C                     	;# 
  2220     029C                     	;# 
  2221     029D                     	;# 
  2222     029E                     	;# 
  2223     029F                     	;# 
  2224     0311                     	;# 
  2225     0311                     	;# 
  2226     0312                     	;# 
  2227     0313                     	;# 
  2228     0314                     	;# 
  2229     0315                     	;# 
  2230     0315                     	;# 
  2231     0316                     	;# 
  2232     0318                     	;# 
  2233     0318                     	;# 
  2234     0319                     	;# 
  2235     031A                     	;# 
  2236     031C                     	;# 
  2237     031C                     	;# 
  2238     031D                     	;# 
  2239     031E                     	;# 
  2240     0394                     	;# 
  2241     0395                     	;# 
  2242     0396                     	;# 
  2243     0415                     	;# 
  2244     0416                     	;# 
  2245     0417                     	;# 
  2246     041C                     	;# 
  2247     041D                     	;# 
  2248     041E                     	;# 
  2249     0791                     	;# 
  2250     0792                     	;# 
  2251     0793                     	;# 
  2252     0794                     	;# 
  2253     0795                     	;# 
  2254     0798                     	;# 
  2255     0799                     	;# 
  2256     07A0                     	;# 
  2257     07A1                     	;# 
  2258     07A3                     	;# 
  2259     07A4                     	;# 
  2260     07A6                     	;# 
  2261     07A7                     	;# 
  2262     07A9                     	;# 
  2263     07AA                     	;# 
  2264     0FE4                     	;# 
  2265     0FE5                     	;# 
  2266     0FE6                     	;# 
  2267     0FE7                     	;# 
  2268     0FE8                     	;# 
  2269     0FE9                     	;# 
  2270     0FEA                     	;# 
  2271     0FEB                     	;# 
  2272     0FED                     	;# 
  2273     0FEE                     	;# 
  2274     0FEF                     	;# 
  2275     0000                     	;# 
  2276     0001                     	;# 
  2277     0002                     	;# 
  2278     0003                     	;# 
  2279     0004                     	;# 
  2280     0005                     	;# 
  2281     0006                     	;# 
  2282     0007                     	;# 
  2283     0008                     	;# 
  2284     0009                     	;# 
  2285     000A                     	;# 
  2286     000B                     	;# 
  2287     000C                     	;# 
  2288     000D                     	;# 
  2289     000E                     	;# 
  2290     0010                     	;# 
  2291     0011                     	;# 
  2292     0012                     	;# 
  2293     0013                     	;# 
  2294     0015                     	;# 
  2295     0016                     	;# 
  2296     0016                     	;# 
  2297     0017                     	;# 
  2298     0018                     	;# 
  2299     0019                     	;# 
  2300     001A                     	;# 
  2301     001B                     	;# 
  2302     001C                     	;# 
  2303     001E                     	;# 
  2304     001F                     	;# 
  2305     008C                     	;# 
  2306     008D                     	;# 
  2307     008E                     	;# 
  2308     0090                     	;# 
  2309     0091                     	;# 
  2310     0092                     	;# 
  2311     0093                     	;# 
  2312     0095                     	;# 
  2313     0096                     	;# 
  2314     0097                     	;# 
  2315     0098                     	;# 
  2316     0099                     	;# 
  2317     009A                     	;# 
  2318     009B                     	;# 
  2319     009B                     	;# 
  2320     009C                     	;# 
  2321     009D                     	;# 
  2322     009E                     	;# 
  2323     010C                     	;# 
  2324     010D                     	;# 
  2325     010E                     	;# 
  2326     0110                     	;# 
  2327     0111                     	;# 
  2328     0112                     	;# 
  2329     0113                     	;# 
  2330     0114                     	;# 
  2331     0115                     	;# 
  2332     0116                     	;# 
  2333     0117                     	;# 
  2334     0118                     	;# 
  2335     0119                     	;# 
  2336     011A                     	;# 
  2337     011B                     	;# 
  2338     011D                     	;# 
  2339     018C                     	;# 
  2340     018D                     	;# 
  2341     0191                     	;# 
  2342     0191                     	;# 
  2343     0192                     	;# 
  2344     0193                     	;# 
  2345     0193                     	;# 
  2346     0193                     	;# 
  2347     0194                     	;# 
  2348     0195                     	;# 
  2349     0196                     	;# 
  2350     0199                     	;# 
  2351     019A                     	;# 
  2352     019B                     	;# 
  2353     019B                     	;# 
  2354     019B                     	;# 
  2355     019B                     	;# 
  2356     019C                     	;# 
  2357     019C                     	;# 
  2358     019D                     	;# 
  2359     019E                     	;# 
  2360     019F                     	;# 
  2361     020D                     	;# 
  2362     0210                     	;# 
  2363     0211                     	;# 
  2364     0212                     	;# 
  2365     0213                     	;# 
  2366     0214                     	;# 
  2367     0215                     	;# 
  2368     0215                     	;# 
  2369     0216                     	;# 
  2370     0217                     	;# 
  2371     0291                     	;# 
  2372     0291                     	;# 
  2373     0292                     	;# 
  2374     0293                     	;# 
  2375     0294                     	;# 
  2376     0295                     	;# 
  2377     0295                     	;# 
  2378     0296                     	;# 
  2379     0298                     	;# 
  2380     0298                     	;# 
  2381     0299                     	;# 
  2382     029A                     	;# 
  2383     029B                     	;# 
  2384     029C                     	;# 
  2385     029C                     	;# 
  2386     029D                     	;# 
  2387     029E                     	;# 
  2388     029F                     	;# 
  2389     0311                     	;# 
  2390     0311                     	;# 
  2391     0312                     	;# 
  2392     0313                     	;# 
  2393     0314                     	;# 
  2394     0315                     	;# 
  2395     0315                     	;# 
  2396     0316                     	;# 
  2397     0318                     	;# 
  2398     0318                     	;# 
  2399     0319                     	;# 
  2400     031A                     	;# 
  2401     031C                     	;# 
  2402     031C                     	;# 
  2403     031D                     	;# 
  2404     031E                     	;# 
  2405     0394                     	;# 
  2406     0395                     	;# 
  2407     0396                     	;# 
  2408     0415                     	;# 
  2409     0416                     	;# 
  2410     0417                     	;# 
  2411     041C                     	;# 
  2412     041D                     	;# 
  2413     041E                     	;# 
  2414     0791                     	;# 
  2415     0792                     	;# 
  2416     0793                     	;# 
  2417     0794                     	;# 
  2418     0795                     	;# 
  2419     0798                     	;# 
  2420     0799                     	;# 
  2421     07A0                     	;# 
  2422     07A1                     	;# 
  2423     07A3                     	;# 
  2424     07A4                     	;# 
  2425     07A6                     	;# 
  2426     07A7                     	;# 
  2427     07A9                     	;# 
  2428     07AA                     	;# 
  2429     0FE4                     	;# 
  2430     0FE5                     	;# 
  2431     0FE6                     	;# 
  2432     0FE7                     	;# 
  2433     0FE8                     	;# 
  2434     0FE9                     	;# 
  2435     0FEA                     	;# 
  2436     0FEB                     	;# 
  2437     0FED                     	;# 
  2438     0FEE                     	;# 
  2439     0FEF                     	;# 
  2440                           
  2441                           	psect	idataBANK0
  2442     0003                     __pidataBANK0:
  2443                           
  2444                           ;initializer for _LIN_timeout
  2445     0003  340F               	retlw	15
  2446                           
  2447                           	psect	stringtext1
  2448     1000                     __pstringtext1:
  2449     1000                     _scheduleTable:
  2450     1000  3401               	retlw	1
  2451     1001  3401               	retlw	1
  2452     1002  3408               	retlw	8
  2453     1003  34B8               	retlw	low (_SW_STATE_Data| 0)
  2454     1004                     __end_of_scheduleTable:
  2455     000C                     _PORTAbits	set	12
  2456     000D                     _PORTBbits	set	13
  2457     000E                     _PORTCbits	set	14
  2458     0013                     _PIR3bits	set	19
  2459     001C                     _T2CON	set	28
  2460     001A                     _TMR2	set	26
  2461     001B                     _PR2	set	27
  2462     0011                     _PIR1bits	set	17
  2463     0015                     _TMR0	set	21
  2464     000B                     _INTCONbits	set	11
  2465     0089                     _TMR2IF	set	137
  2466     0097                     _WDTCON	set	151
  2467     0098                     _OSCTUNE	set	152
  2468     0099                     _OSCCON	set	153
  2469     0095                     _OPTION_REG	set	149
  2470     0095                     _OPTION_REGbits	set	149
  2471     008E                     _TRISC	set	142
  2472     008D                     _TRISB	set	141
  2473     008C                     _TRISA	set	140
  2474     0090                     _TRISE	set	144
  2475     0091                     _PIE1bits	set	145
  2476     04D6                     _PLLR	set	1238
  2477     010E                     _LATCbits	set	270
  2478     0116                     _BORCON	set	278
  2479     011D                     _APFCON	set	285
  2480     010E                     _LATC	set	270
  2481     010D                     _LATB	set	269
  2482     010C                     _LATA	set	268
  2483     0110                     _LATE	set	272
  2484     010D                     _LATBbits	set	269
  2485     019F                     _BAUDCONbits	set	415
  2486     0199                     _RCREG	set	409
  2487     019A                     _TXREG	set	410
  2488     019C                     _SPBRGH	set	412
  2489     019B                     _SPBRGL	set	411
  2490     019E                     _TXSTA	set	414
  2491     019D                     _RCSTA	set	413
  2492     019F                     _BAUDCON	set	415
  2493     018C                     _ANSELA	set	396
  2494     018D                     _ANSELB	set	397
  2495     019D                     _RCSTAbits	set	413
  2496     019E                     _TXSTAbits	set	414
  2497     020D                     _WPUB	set	525
  2498     0210                     _WPUE	set	528
  2499     029F                     _CCPTMRS1bits	set	671
  2500     031D                     _CCPR5H	set	797
  2501     031C                     _CCPR5L	set	796
  2502     031E                     _CCP5CON	set	798
  2503     041E                     _T6CONbits	set	1054
  2504     041E                     _T6CON	set	1054
  2505     041C                     _TMR6	set	1052
  2506     041D                     _PR6	set	1053
  2507                           
  2508                           	psect	cinit
  2509     003A                     start_initialization:	
  2510                           ; #config settings
  2511                           
  2512     003A                     __initialization:
  2513                           
  2514                           ; Initialize objects allocated to BANK0
  2515     003A  3180  2003  3180   	fcall	__pidataBANK0	;fetch initializer
  2516     003D  00EF               	movwf	__pdataBANK0& (0+127)
  2517                           
  2518                           ; Clear objects allocated to COMMON
  2519     003E  01FC               	clrf	__pbssCOMMON& (0+127)
  2520                           
  2521                           ; Clear objects allocated to BANK0
  2522     003F  3020               	movlw	low __pbssBANK0
  2523     0040  0084               	movwf	4
  2524     0041  3000               	movlw	high __pbssBANK0
  2525     0042  0085               	movwf	5
  2526     0043  303D               	movlw	61
  2527     0044  318D  25F1  3180   	fcall	clear_ram0
  2528                           
  2529                           ; Clear objects allocated to BANK1
  2530     0047  30A0               	movlw	low __pbssBANK1
  2531     0048  0084               	movwf	4
  2532     0049  3000               	movlw	high __pbssBANK1
  2533     004A  0085               	movwf	5
  2534     004B  3020               	movlw	32
  2535     004C  318D  25F1  3180   	fcall	clear_ram0
  2536     004F                     end_of_initialization:	
  2537                           ;End of C runtime variable initialization code
  2538                           
  2539     004F                     __end_of__initialization:
  2540     004F  107E               	bcf	int$flags,0	;clear compiler interrupt flag (level 1)
  2541     0050  0020               	movlb	0
  2542     0051  3185  2DDD         	ljmp	_main	;jump to C main() function
  2543                           
  2544                           	psect	bssCOMMON
  2545     007C                     __pbssCOMMON:
  2546     007C                     _eusartRxHead:
  2547     007C                     	ds	1
  2548                           
  2549                           	psect	bssBANK0
  2550     0020                     __pbssBANK0:
  2551     0020                     _T1MS_cnt:
  2552     0020                     	ds	2
  2553     0022                     _TMR0_InterruptHandler:
  2554     0022                     	ds	2
  2555     0024                     _EUSART_ErrorHandler:
  2556     0024                     	ds	2
  2557     0026                     _EUSART_OverrunErrorHandler:
  2558     0026                     	ds	2
  2559     0028                     _EUSART_FramingErrorHandler:
  2560     0028                     	ds	2
  2561     002A                     _EUSART_RxDefaultInterruptHandler:
  2562     002A                     	ds	2
  2563     002C                     _EUSART_TxDefaultInterruptHandler:
  2564     002C                     	ds	2
  2565     002E                     _LIN_rxCommand:
  2566     002E                     	ds	2
  2567     0030                     _LIN_processData:
  2568     0030                     	ds	2
  2569     0032                     _fY_W:
  2570     0032                     	ds	1
  2571     0033                     _T5MS_cnt:
  2572     0033                     	ds	1
  2573     0034                     _T100us_cnt1:
  2574     0034                     	ds	1
  2575     0035                     _T100us_cnt:
  2576     0035                     	ds	1
  2577     0036                     _mode_old:
  2578     0036                     	ds	1
  2579     0037                     _mode:
  2580     0037                     	ds	1
  2581     0038                     _ftest:
  2582     0038                     	ds	1
  2583     0039                     _fTurn:
  2584     0039                     	ds	1
  2585     003A                     _T250MS_cnt:
  2586     003A                     	ds	1
  2587     003B                     _fColorSeletDisable:
  2588     003B                     	ds	1
  2589     003C                     _timer0ReloadVal:
  2590     003C                     	ds	1
  2591     003D                     _eusartRxLastError:
  2592     003D                     	ds	1
  2593     003E                     _eusartRxCount:
  2594     003E                     	ds	1
  2595     003F                     _eusartRxTail:
  2596     003F                     	ds	1
  2597     0040                     _eusartTxBufferRemaining:
  2598     0040                     	ds	1
  2599     0041                     _eusartTxTail:
  2600     0041                     	ds	1
  2601     0042                     _eusartTxHead:
  2602     0042                     	ds	1
  2603     0043                     LIN_handler@rxDataIndex:
  2604     0043                     	ds	1
  2605     0044                     LIN_handler@LIN_rxState:
  2606     0044                     	ds	1
  2607     0045                     _CountCallBack:
  2608     0045                     	ds	1
  2609     0046                     _LIN_timerRunning:
  2610     0046                     	ds	1
  2611     0047                     _LIN_rxCommandLength:
  2612     0047                     	ds	1
  2613     0048                     _LIN_rxInProgress:
  2614     0048                     	ds	1
  2615     0049                     _fLeft_old:
  2616     0049                     	ds	1
  2617     004A                     _fRight_old:
  2618     004A                     	ds	1
  2619     004B                     _lampFlags:
  2620     004B                     	ds	1
  2621     004C                     _fLock:
  2622     004C                     	ds	1
  2623     004D                     _lampState:
  2624     004D                     	ds	1
  2625     004E                     _fLampSide:
  2626     004E                     	ds	1
  2627     004F                     _fLoBeam:
  2628     004F                     	ds	1
  2629     0050                     _LIN_packet:
  2630     0050                     	ds	13
  2631                           
  2632                           	psect	dataBANK0
  2633     006F                     __pdataBANK0:
  2634     006F                     _LIN_timeout:
  2635     006F                     	ds	1
  2636                           
  2637                           	psect	bssBANK1
  2638     00A0                     __pbssBANK1:
  2639     00A0                     _eusartRxStatusBuffer:
  2640     00A0                     	ds	8
  2641     00A8                     _eusartRxBuffer:
  2642     00A8                     	ds	8
  2643     00B0                     _eusartTxBuffer:
  2644     00B0                     	ds	8
  2645     00B8                     _SW_STATE_Data:
  2646     00B8                     	ds	8
  2647                           
  2648                           	psect	clrtext
  2649     0DF1                     clear_ram0:	
  2650                           ;	Called with FSR0 containing the base address, and
  2651                           ;	WREG with the size to clear
  2652                           
  2653     0DF1  0064               	clrwdt	;clear the watchdog before getting into this loop
  2654     0DF2                     clrloop0:
  2655     0DF2  0180               	clrf	0	;clear RAM location pointed to by FSR
  2656     0DF3  3101               	addfsr 0,1
  2657     0DF4  0B89               	decfsz	9,f	;Have we reached the end of clearing yet?
  2658     0DF5  2DF2               	goto	clrloop0	;have we reached the end yet?
  2659     0DF6  3400               	retlw	0	;all done for this memory range, return
  2660                           
  2661                           	psect	cstackCOMMON
  2662     0070                     __pcstackCOMMON:
  2663     0070                     ?_TrunLight:
  2664     0070                     ?_LED_ON:	
  2665                           ; 1 bytes @ 0x0
  2666                           
  2667     0070                     ?_LED_OFF:	
  2668                           ; 1 bytes @ 0x0
  2669                           
  2670     0070                     ?_processLIN:	
  2671                           ; 1 bytes @ 0x0
  2672                           
  2673     0070                     ?_LIN_getPacket:	
  2674                           ; 1 bytes @ 0x0
  2675                           
  2676     0070                     ?_LIN_stopTimer:	
  2677                           ; 1 bytes @ 0x0
  2678                           
  2679     0070                     ?_LIN_enableRx:	
  2680                           ; 1 bytes @ 0x0
  2681                           
  2682     0070                     ?_LIN_setTimerHandler:	
  2683                           ; 1 bytes @ 0x0
  2684                           
  2685     0070                     ?_EUSART_is_rx_ready:	
  2686                           ; 1 bytes @ 0x0
  2687                           
  2688     0070                     ?_LIN_startTimer:	
  2689                           ; 1 bytes @ 0x0
  2690                           
  2691     0070                     ?_LIN_breakCheck:	
  2692                           ; 1 bytes @ 0x0
  2693                           
  2694     0070                     ?_EUSART_Read:	
  2695                           ; 1 bytes @ 0x0
  2696                           
  2697     0070                     ?_LIN_checkPID:	
  2698                           ; 1 bytes @ 0x0
  2699                           
  2700     0070                     ?_LIN_disableRx:	
  2701                           ; 1 bytes @ 0x0
  2702                           
  2703     0070                     ?_EUSART_Write:	
  2704                           ; 1 bytes @ 0x0
  2705                           
  2706     0070                     ?_LIN_calcParity:	
  2707                           ; 1 bytes @ 0x0
  2708                           
  2709     0070                     ?_TMR0_Reload:	
  2710                           ; 1 bytes @ 0x0
  2711                           
  2712     0070                     ?_EUSART_get_last_status:	
  2713                           ; 1 bytes @ 0x0
  2714                           
  2715     0070                     ?_EUSART_Receive_ISR:	
  2716                           ; 1 bytes @ 0x0
  2717                           
  2718     0070                     ?_EUSART_Transmit_ISR:	
  2719                           ; 1 bytes @ 0x0
  2720                           
  2721     0070                     ??_EUSART_Transmit_ISR:	
  2722                           ; 1 bytes @ 0x0
  2723                           
  2724     0070                     ?_EUSART_DefaultFramingErrorHandler:	
  2725                           ; 1 bytes @ 0x0
  2726                           
  2727     0070                     ??_EUSART_DefaultFramingErrorHandler:	
  2728                           ; 1 bytes @ 0x0
  2729                           
  2730     0070                     ?_EUSART_DefaultOverrunErrorHandler:	
  2731                           ; 1 bytes @ 0x0
  2732                           
  2733     0070                     ??_EUSART_DefaultOverrunErrorHandler:	
  2734                           ; 1 bytes @ 0x0
  2735                           
  2736     0070                     ?_EUSART_DefaultErrorHandler:	
  2737                           ; 1 bytes @ 0x0
  2738                           
  2739     0070                     ?_EUSART_RxDataHandler:	
  2740                           ; 1 bytes @ 0x0
  2741                           
  2742     0070                     ??_EUSART_RxDataHandler:	
  2743                           ; 1 bytes @ 0x0
  2744                           
  2745     0070                     ?_TMR0_WriteTimer:	
  2746                           ; 1 bytes @ 0x0
  2747                           
  2748     0070                     ?_TMR0_ReadTimer:	
  2749                           ; 1 bytes @ 0x0
  2750                           
  2751     0070                     ?_TMR0_DefaultInterruptHandler:	
  2752                           ; 1 bytes @ 0x0
  2753                           
  2754     0070                     ??_TMR0_DefaultInterruptHandler:	
  2755                           ; 1 bytes @ 0x0
  2756                           
  2757     0070                     ?_OSCILLATOR_Initialize:	
  2758                           ; 1 bytes @ 0x0
  2759                           
  2760     0070                     ?_WDT_Initialize:	
  2761                           ; 1 bytes @ 0x0
  2762                           
  2763     0070                     ?_TMR6_Initialize:	
  2764                           ; 1 bytes @ 0x0
  2765                           
  2766     0070                     ?_PWM5_Initialize:	
  2767                           ; 1 bytes @ 0x0
  2768                           
  2769     0070                     ?_TMR2_Initialize:	
  2770                           ; 1 bytes @ 0x0
  2771                           
  2772     0070                     ?_Timer_TESTMODE:	
  2773                           ; 1 bytes @ 0x0
  2774                           
  2775     0070                     ?_Streamer_SEG1_TEST:	
  2776                           ; 1 bytes @ 0x0
  2777                           
  2778     0070                     ?_Streamer_SEG2_TEST:	
  2779                           ; 1 bytes @ 0x0
  2780                           
  2781     0070                     ?_Timer:	
  2782                           ; 1 bytes @ 0x0
  2783                           
  2784     0070                     ?_POS_ON:	
  2785                           ; 1 bytes @ 0x0
  2786                           
  2787     0070                     ?_POS_OFF:	
  2788                           ; 1 bytes @ 0x0
  2789                           
  2790     0070                     ?_DRL_ON:	
  2791                           ; 1 bytes @ 0x0
  2792                           
  2793     0070                     ?_DRL_OFF:	
  2794                           ; 1 bytes @ 0x0
  2795                           
  2796     0070                     ?_LOBEAM_ON:	
  2797                           ; 1 bytes @ 0x0
  2798                           
  2799     0070                     ?_LOBEAM_OFF:	
  2800                           ; 1 bytes @ 0x0
  2801                           
  2802     0070                     ?_HIBEAM_ON:	
  2803                           ; 1 bytes @ 0x0
  2804                           
  2805     0070                     ?_HIBEAM_OFF:	
  2806                           ; 1 bytes @ 0x0
  2807                           
  2808     0070                     ?_LEFT_ON:	
  2809                           ; 1 bytes @ 0x0
  2810                           
  2811     0070                     ?_LEFT_ON2:	
  2812                           ; 1 bytes @ 0x0
  2813                           
  2814     0070                     ?_LEFT_OFF:	
  2815                           ; 1 bytes @ 0x0
  2816                           
  2817     0070                     ?_RIGHT_ON:	
  2818                           ; 1 bytes @ 0x0
  2819                           
  2820     0070                     ?_RIGHT_ON2:	
  2821                           ; 1 bytes @ 0x0
  2822                           
  2823     0070                     ?_RIGHT_OFF:	
  2824                           ; 1 bytes @ 0x0
  2825                           
  2826     0070                     ?_LIN_Slave_Initialize:	
  2827                           ; 1 bytes @ 0x0
  2828                           
  2829     0070                     ?_LIN_queuePacket:	
  2830                           ; 1 bytes @ 0x0
  2831                           
  2832     0070                     ?_LIN_handler:	
  2833                           ; 1 bytes @ 0x0
  2834                           
  2835     0070                     ?_LIN_timerHandler:	
  2836                           ; 1 bytes @ 0x0
  2837                           
  2838     0070                     ??_LIN_timerHandler:	
  2839                           ; 1 bytes @ 0x0
  2840                           
  2841     0070                     ?_PIN_MANAGER_Initialize:	
  2842                           ; 1 bytes @ 0x0
  2843                           
  2844     0070                     ?_EUSART_Initialize:	
  2845                           ; 1 bytes @ 0x0
  2846                           
  2847     0070                     ?_TMR0_Initialize:	
  2848                           ; 1 bytes @ 0x0
  2849                           
  2850     0070                     ?_TMR0_ISR:	
  2851                           ; 1 bytes @ 0x0
  2852                           
  2853     0070                     ?_INTERRUPT_InterruptManager:	
  2854                           ; 1 bytes @ 0x0
  2855                           
  2856     0070                     ?_SYSTEM_Initialize:	
  2857                           ; 1 bytes @ 0x0
  2858                           
  2859     0070                     ?_AutoBaud_Detect_ON:	
  2860                           ; 1 bytes @ 0x0
  2861                           
  2862     0070                     ?_AutoBaud_Detect:	
  2863                           ; 1 bytes @ 0x0
  2864                           
  2865     0070                     ?_testmode:	
  2866                           ; 1 bytes @ 0x0
  2867                           
  2868     0070                     ?_PWM_SendData:	
  2869                           ; 1 bytes @ 0x0
  2870                           
  2871     0070                     ?_main:	
  2872                           ; 1 bytes @ 0x0
  2873                           
  2874                           
  2875                           ; 2 bytes @ 0x0
  2876     0070                     	ds	1
  2877     0071                     ??_LIN_stopTimer:
  2878     0071                     ??_LIN_enableRx:	
  2879                           ; 1 bytes @ 0x1
  2880                           
  2881     0071                     ?_memcpy:	
  2882                           ; 1 bytes @ 0x1
  2883                           
  2884     0071                     ?_LIN_getChecksum:	
  2885                           ; 1 bytes @ 0x1
  2886                           
  2887     0071                     ??_EUSART_is_rx_ready:	
  2888                           ; 1 bytes @ 0x1
  2889                           
  2890     0071                     ??_LIN_startTimer:	
  2891                           ; 1 bytes @ 0x1
  2892                           
  2893     0071                     ??_EUSART_Read:	
  2894                           ; 1 bytes @ 0x1
  2895                           
  2896     0071                     ?_LIN_getFromTable:	
  2897                           ; 1 bytes @ 0x1
  2898                           
  2899     0071                     ??_LIN_disableRx:	
  2900                           ; 1 bytes @ 0x1
  2901                           
  2902     0071                     ?_memset:	
  2903                           ; 1 bytes @ 0x1
  2904                           
  2905     0071                     ??_EUSART_Write:	
  2906                           ; 1 bytes @ 0x1
  2907                           
  2908     0071                     ??_LIN_calcParity:	
  2909                           ; 1 bytes @ 0x1
  2910                           
  2911     0071                     ??_TMR0_Reload:	
  2912                           ; 1 bytes @ 0x1
  2913                           
  2914     0071                     ?_TMR0_SetInterruptHandler:	
  2915                           ; 1 bytes @ 0x1
  2916                           
  2917     0071                     ??_EUSART_get_last_status:	
  2918                           ; 1 bytes @ 0x1
  2919                           
  2920     0071                     ?_EUSART_SetRxInterruptHandler:	
  2921                           ; 1 bytes @ 0x1
  2922                           
  2923     0071                     ??_EUSART_Receive_ISR:	
  2924                           ; 1 bytes @ 0x1
  2925                           
  2926     0071                     ?_EUSART_SetTxInterruptHandler:	
  2927                           ; 1 bytes @ 0x1
  2928                           
  2929     0071                     ?_EUSART_SetFramingErrorHandler:	
  2930                           ; 1 bytes @ 0x1
  2931                           
  2932     0071                     ?_EUSART_SetOverrunErrorHandler:	
  2933                           ; 1 bytes @ 0x1
  2934                           
  2935     0071                     ?_EUSART_SetErrorHandler:	
  2936                           ; 1 bytes @ 0x1
  2937                           
  2938     0071                     ??_EUSART_DefaultErrorHandler:	
  2939                           ; 1 bytes @ 0x1
  2940                           
  2941     0071                     ??_TMR0_WriteTimer:	
  2942                           ; 1 bytes @ 0x1
  2943                           
  2944     0071                     ??_TMR0_ReadTimer:	
  2945                           ; 1 bytes @ 0x1
  2946                           
  2947     0071                     ??_OSCILLATOR_Initialize:	
  2948                           ; 1 bytes @ 0x1
  2949                           
  2950     0071                     ??_WDT_Initialize:	
  2951                           ; 1 bytes @ 0x1
  2952                           
  2953     0071                     ??_TMR6_Initialize:	
  2954                           ; 1 bytes @ 0x1
  2955                           
  2956     0071                     ??_PWM5_Initialize:	
  2957                           ; 1 bytes @ 0x1
  2958                           
  2959     0071                     ??_TMR2_Initialize:	
  2960                           ; 1 bytes @ 0x1
  2961                           
  2962     0071                     ??_Timer_TESTMODE:	
  2963                           ; 1 bytes @ 0x1
  2964                           
  2965     0071                     ??_Timer:	
  2966                           ; 1 bytes @ 0x1
  2967                           
  2968     0071                     ??_POS_ON:	
  2969                           ; 1 bytes @ 0x1
  2970                           
  2971     0071                     ??_POS_OFF:	
  2972                           ; 1 bytes @ 0x1
  2973                           
  2974     0071                     ??_DRL_ON:	
  2975                           ; 1 bytes @ 0x1
  2976                           
  2977     0071                     ??_DRL_OFF:	
  2978                           ; 1 bytes @ 0x1
  2979                           
  2980     0071                     ??_LOBEAM_ON:	
  2981                           ; 1 bytes @ 0x1
  2982                           
  2983     0071                     ??_LOBEAM_OFF:	
  2984                           ; 1 bytes @ 0x1
  2985                           
  2986     0071                     ??_HIBEAM_ON:	
  2987                           ; 1 bytes @ 0x1
  2988                           
  2989     0071                     ??_HIBEAM_OFF:	
  2990                           ; 1 bytes @ 0x1
  2991                           
  2992     0071                     ??_PIN_MANAGER_Initialize:	
  2993                           ; 1 bytes @ 0x1
  2994                           
  2995     0071                     ??_TMR0_ISR:	
  2996                           ; 1 bytes @ 0x1
  2997                           
  2998     0071                     ??_INTERRUPT_InterruptManager:	
  2999                           ; 1 bytes @ 0x1
  3000                           
  3001     0071                     ??_AutoBaud_Detect_ON:	
  3002                           ; 1 bytes @ 0x1
  3003                           
  3004     0071                     ??_AutoBaud_Detect:	
  3005                           ; 1 bytes @ 0x1
  3006                           
  3007     0071                     ??_PWM_SendData:	
  3008                           ; 1 bytes @ 0x1
  3009                           
  3010     0071                     LIN_getFromTable@param:	
  3011                           ; 1 bytes @ 0x1
  3012                           
  3013     0071                     LIN_getChecksum@pid:	
  3014                           ; 1 bytes @ 0x1
  3015                           
  3016     0071                     LIN_startTimer@timeout:	
  3017                           ; 1 bytes @ 0x1
  3018                           
  3019     0071                     TMR0_WriteTimer@timerVal:	
  3020                           ; 1 bytes @ 0x1
  3021                           
  3022     0071                     PWM_SendData@InputData:	
  3023                           ; 1 bytes @ 0x1
  3024                           
  3025     0071                     memcpy@s1:	
  3026                           ; 1 bytes @ 0x1
  3027                           
  3028     0071                     EUSART_SetFramingErrorHandler@interruptHandler:	
  3029                           ; 1 bytes @ 0x1
  3030                           
  3031     0071                     EUSART_SetOverrunErrorHandler@interruptHandler:	
  3032                           ; 2 bytes @ 0x1
  3033                           
  3034     0071                     EUSART_SetErrorHandler@interruptHandler:	
  3035                           ; 2 bytes @ 0x1
  3036                           
  3037     0071                     EUSART_SetTxInterruptHandler@interruptHandler:	
  3038                           ; 2 bytes @ 0x1
  3039                           
  3040     0071                     EUSART_SetRxInterruptHandler@interruptHandler:	
  3041                           ; 2 bytes @ 0x1
  3042                           
  3043     0071                     TMR0_SetInterruptHandler@InterruptHandler:	
  3044                           ; 2 bytes @ 0x1
  3045                           
  3046     0071                     memset@c:	
  3047                           ; 2 bytes @ 0x1
  3048                           
  3049                           
  3050                           ; 2 bytes @ 0x1
  3051     0071                     	ds	1
  3052     0072                     ?_Delay_ms:
  3053     0072                     ??_LIN_getFromTable:	
  3054                           ; 1 bytes @ 0x2
  3055                           
  3056     0072                     LIN_calcParity@CMD:	
  3057                           ; 1 bytes @ 0x2
  3058                           
  3059     0072                     LIN_getChecksum@data:	
  3060                           ; 1 bytes @ 0x2
  3061                           
  3062     0072                     EUSART_Read@readValue:	
  3063                           ; 1 bytes @ 0x2
  3064                           
  3065     0072                     EUSART_Write@txData:	
  3066                           ; 1 bytes @ 0x2
  3067                           
  3068     0072                     PWM_SendData@data:	
  3069                           ; 1 bytes @ 0x2
  3070                           
  3071     0072                     Delay_ms@input_ms:	
  3072                           ; 1 bytes @ 0x2
  3073                           
  3074     0072                     memcpy@n:	
  3075                           ; 2 bytes @ 0x2
  3076                           
  3077                           
  3078                           ; 2 bytes @ 0x2
  3079     0072                     	ds	1
  3080     0073                     ?_LIN_init:
  3081     0073                     ??_LIN_setTimerHandler:	
  3082                           ; 1 bytes @ 0x3
  3083                           
  3084     0073                     ??_LIN_getChecksum:	
  3085                           ; 1 bytes @ 0x3
  3086                           
  3087     0073                     ??_LIN_breakCheck:	
  3088                           ; 1 bytes @ 0x3
  3089                           
  3090     0073                     ??_TMR0_SetInterruptHandler:	
  3091                           ; 1 bytes @ 0x3
  3092                           
  3093     0073                     ??_EUSART_SetRxInterruptHandler:	
  3094                           ; 1 bytes @ 0x3
  3095                           
  3096     0073                     ??_EUSART_SetTxInterruptHandler:	
  3097                           ; 1 bytes @ 0x3
  3098                           
  3099     0073                     ??_EUSART_SetFramingErrorHandler:	
  3100                           ; 1 bytes @ 0x3
  3101                           
  3102     0073                     ??_EUSART_SetOverrunErrorHandler:	
  3103                           ; 1 bytes @ 0x3
  3104                           
  3105     0073                     ??_EUSART_SetErrorHandler:	
  3106                           ; 1 bytes @ 0x3
  3107                           
  3108     0073                     ??_EUSART_Initialize:	
  3109                           ; 1 bytes @ 0x3
  3110                           
  3111     0073                     ??_TMR0_Initialize:	
  3112                           ; 1 bytes @ 0x3
  3113                           
  3114     0073                     LIN_calcParity@PID:	
  3115                           ; 1 bytes @ 0x3
  3116                           
  3117     0073                     PWM_SendData@bitmask:	
  3118                           ; 1 bytes @ 0x3
  3119                           
  3120     0073                     LIN_init@command:	
  3121                           ; 1 bytes @ 0x3
  3122                           
  3123     0073                     memset@n:	
  3124                           ; 2 bytes @ 0x3
  3125                           
  3126                           
  3127                           ; 2 bytes @ 0x3
  3128     0073                     	ds	1
  3129     0074                     ??_Delay_ms:
  3130     0074                     ??_memcpy:	
  3131                           ; 1 bytes @ 0x4
  3132                           
  3133     0074                     ?_LED_SET:	
  3134                           ; 1 bytes @ 0x4
  3135                           
  3136     0074                     LIN_getFromTable@cmd:	
  3137                           ; 1 bytes @ 0x4
  3138                           
  3139     0074                     LED_SET@InputData:	
  3140                           ; 1 bytes @ 0x4
  3141                           
  3142     0074                     Delay_ms@ms:	
  3143                           ; 1 bytes @ 0x4
  3144                           
  3145                           
  3146                           ; 2 bytes @ 0x4
  3147     0074                     	ds	1
  3148     0075                     ??_memset:
  3149     0075                     ??_LED_SET:	
  3150                           ; 1 bytes @ 0x5
  3151                           
  3152     0075                     LIN_getFromTable@length:	
  3153                           ; 1 bytes @ 0x5
  3154                           
  3155     0075                     LIN_getChecksum@length:	
  3156                           ; 1 bytes @ 0x5
  3157                           
  3158     0075                     memcpy@tmp:	
  3159                           ; 1 bytes @ 0x5
  3160                           
  3161     0075                     LIN_init@processData:	
  3162                           ; 1 bytes @ 0x5
  3163                           
  3164                           
  3165                           ; 2 bytes @ 0x5
  3166     0075                     	ds	1
  3167     0076                     LIN_getChecksum@i:
  3168     0076                     LED_SET@LED_num:	
  3169                           ; 1 bytes @ 0x6
  3170                           
  3171     0076                     memcpy@d:	
  3172                           ; 1 bytes @ 0x6
  3173                           
  3174     0076                     memset@p:	
  3175                           ; 1 bytes @ 0x6
  3176                           
  3177     0076                     LIN_getFromTable@rxCommand:	
  3178                           ; 1 bytes @ 0x6
  3179                           
  3180                           
  3181                           ; 2 bytes @ 0x6
  3182     0076                     	ds	1
  3183     0077                     ??_LIN_init:
  3184     0077                     LIN_init@tableLength:	
  3185                           ; 1 bytes @ 0x7
  3186                           
  3187     0077                     LED_SET@data:	
  3188                           ; 1 bytes @ 0x7
  3189                           
  3190     0077                     memcpy@s:	
  3191                           ; 1 bytes @ 0x7
  3192                           
  3193     0077                     memset@dest:	
  3194                           ; 1 bytes @ 0x7
  3195                           
  3196     0077                     LIN_getChecksum@checksum:	
  3197                           ; 1 bytes @ 0x7
  3198                           
  3199                           
  3200                           ; 2 bytes @ 0x7
  3201     0077                     	ds	1
  3202     0078                     ??_LIN_checkPID:
  3203     0078                     ??_LIN_Slave_Initialize:	
  3204                           ; 1 bytes @ 0x8
  3205                           
  3206     0078                     ??_SYSTEM_Initialize:	
  3207                           ; 1 bytes @ 0x8
  3208                           
  3209     0078                     LIN_checkPID@pid:	
  3210                           ; 1 bytes @ 0x8
  3211                           
  3212     0078                     LED_SET@num:	
  3213                           ; 1 bytes @ 0x8
  3214                           
  3215     0078                     memcpy@d1:	
  3216                           ; 1 bytes @ 0x8
  3217                           
  3218                           
  3219                           ; 1 bytes @ 0x8
  3220     0078                     	ds	1
  3221     0079                     ??_LIN_getPacket:
  3222     0079                     ?_LIN_sendPacket:	
  3223                           ; 1 bytes @ 0x9
  3224                           
  3225     0079                     LIN_sendPacket@pid:	
  3226                           ; 1 bytes @ 0x9
  3227                           
  3228     0079                     LIN_getPacket@cmd:	
  3229                           ; 1 bytes @ 0x9
  3230                           
  3231     0079                     LED_SET@i:	
  3232                           ; 1 bytes @ 0x9
  3233                           
  3234                           
  3235                           ; 1 bytes @ 0x9
  3236     0079                     	ds	1
  3237     007A                     ??_TrunLight:
  3238     007A                     ??_LED_ON:	
  3239                           ; 1 bytes @ 0xA
  3240                           
  3241     007A                     ??_LED_OFF:	
  3242                           ; 1 bytes @ 0xA
  3243                           
  3244     007A                     ??_Streamer_SEG1_TEST:	
  3245                           ; 1 bytes @ 0xA
  3246                           
  3247     007A                     ??_Streamer_SEG2_TEST:	
  3248                           ; 1 bytes @ 0xA
  3249                           
  3250     007A                     ??_LEFT_OFF:	
  3251                           ; 1 bytes @ 0xA
  3252                           
  3253     007A                     ??_RIGHT_OFF:	
  3254                           ; 1 bytes @ 0xA
  3255                           
  3256     007A                     LIN_sendPacket@data:	
  3257                           ; 1 bytes @ 0xA
  3258                           
  3259     007A                     LIN_getPacket@data:	
  3260                           ; 1 bytes @ 0xA
  3261                           
  3262     007A                     LED_ON@InputData:	
  3263                           ; 1 bytes @ 0xA
  3264                           
  3265                           
  3266                           ; 1 bytes @ 0xA
  3267     007A                     	ds	1
  3268     007B                     ??_LIN_sendPacket:
  3269     007B                     ??_LEFT_ON:	
  3270                           ; 1 bytes @ 0xB
  3271                           
  3272     007B                     ??_RIGHT_ON:	
  3273                           ; 1 bytes @ 0xB
  3274                           
  3275     007B                     LED_ON@data:	
  3276                           ; 1 bytes @ 0xB
  3277                           
  3278                           
  3279                           ; 1 bytes @ 0xB
  3280     007B                     	ds	1
  3281     007C                     ??_processLIN:
  3282     007C                     ??_LEFT_ON2:	
  3283                           ; 1 bytes @ 0xC
  3284                           
  3285     007C                     ??_RIGHT_ON2:	
  3286                           ; 1 bytes @ 0xC
  3287                           
  3288     007C                     ??_testmode:	
  3289                           ; 1 bytes @ 0xC
  3290                           
  3291                           
  3292                           	psect	cstackBANK0
  3293     005D                     __pcstackBANK0:	
  3294                           ; 1 bytes @ 0xC
  3295                           
  3296     005D                     LIN_sendPacket@length:
  3297     005D                     Streamer_SEG1_TEST@InputData:	
  3298                           ; 1 bytes @ 0x0
  3299                           
  3300     005D                     Streamer_SEG2_TEST@InputData:	
  3301                           ; 1 bytes @ 0x0
  3302                           
  3303     005D                     TrunLight@InputData:	
  3304                           ; 1 bytes @ 0x0
  3305                           
  3306                           
  3307                           ; 1 bytes @ 0x0
  3308     005D                     	ds	1
  3309     005E                     LIN_sendPacket@i:
  3310     005E                     Streamer_SEG1_TEST@data:	
  3311                           ; 1 bytes @ 0x1
  3312                           
  3313     005E                     Streamer_SEG2_TEST@data:	
  3314                           ; 1 bytes @ 0x1
  3315                           
  3316     005E                     TrunLight@i:	
  3317                           ; 1 bytes @ 0x1
  3318                           
  3319                           
  3320                           ; 1 bytes @ 0x1
  3321     005E                     	ds	1
  3322     005F                     ??_LIN_queuePacket:
  3323     005F                     Streamer_SEG1_TEST@num:	
  3324                           ; 1 bytes @ 0x2
  3325                           
  3326     005F                     Streamer_SEG2_TEST@num:	
  3327                           ; 1 bytes @ 0x2
  3328                           
  3329     005F                     TrunLight@data:	
  3330                           ; 1 bytes @ 0x2
  3331                           
  3332                           
  3333                           ; 1 bytes @ 0x2
  3334     005F                     	ds	1
  3335     0060                     Streamer_SEG1_TEST@i:
  3336     0060                     Streamer_SEG2_TEST@i:	
  3337                           ; 1 bytes @ 0x3
  3338                           
  3339     0060                     TrunLight@seg1_num:	
  3340                           ; 1 bytes @ 0x3
  3341                           
  3342                           
  3343                           ; 1 bytes @ 0x3
  3344     0060                     	ds	1
  3345     0061                     TrunLight@seg2_num:
  3346                           
  3347                           ; 1 bytes @ 0x4
  3348     0061                     	ds	1
  3349     0062                     processLIN@cmd:
  3350                           
  3351                           ; 1 bytes @ 0x5
  3352     0062                     	ds	1
  3353     0063                     LIN_queuePacket@cmd:
  3354     0063                     processLIN@tempRxData:	
  3355                           ; 1 bytes @ 0x6
  3356                           
  3357                           
  3358                           ; 8 bytes @ 0x6
  3359     0063                     	ds	1
  3360     0064                     LIN_queuePacket@i:
  3361                           
  3362                           ; 1 bytes @ 0x7
  3363     0064                     	ds	1
  3364     0065                     LIN_queuePacket@tempSchedule:
  3365                           
  3366                           ; 2 bytes @ 0x8
  3367     0065                     	ds	6
  3368     006B                     ??_LIN_handler:
  3369                           
  3370                           ; 1 bytes @ 0xE
  3371     006B                     	ds	2
  3372     006D                     ??_main:
  3373                           
  3374                           ; 1 bytes @ 0x10
  3375     006D                     	ds	1
  3376     006E                     main@UART_CNT:
  3377                           
  3378                           ; 1 bytes @ 0x11
  3379     006E                     	ds	1
  3380                           
  3381                           	psect	maintext
  3382     05DD                     __pmaintext:	
  3383 ;;
  3384 ;;Main: autosize = 0, tempsize = 1, incstack = 0, save=0
  3385 ;;
  3386 ;; *************** function _main *****************
  3387 ;; Defined at:
  3388 ;;		line 237 in file "main.c"
  3389 ;; Parameters:    Size  Location     Type
  3390 ;;		None
  3391 ;; Auto vars:     Size  Location     Type
  3392 ;;  UART_CNT        1   17[BANK0 ] unsigned char 
  3393 ;; Return value:  Size  Location     Type
  3394 ;;                  2  750[None  ] int 
  3395 ;; Registers used:
  3396 ;;		wreg, fsr0l, fsr0h, fsr1l, fsr1h, status,2, status,0, pclath, cstack
  3397 ;; Tracked objects:
  3398 ;;		On entry : B1F/0
  3399 ;;		On exit  : 0/0
  3400 ;;		Unchanged: 0/0
  3401 ;; Data sizes:     COMMON   BANK0   BANK1   BANK2   BANK3   BANK4   BANK5   BANK6
  3402 ;;      Params:         0       0       0       0       0       0       0       0
  3403 ;;      Locals:         0       1       0       0       0       0       0       0
  3404 ;;      Temps:          0       1       0       0       0       0       0       0
  3405 ;;      Totals:         0       2       0       0       0       0       0       0
  3406 ;;Total ram usage:        2 bytes
  3407 ;; Hardware stack levels required when called: 11
  3408 ;; This function calls:
  3409 ;;		_AutoBaud_Detect
  3410 ;;		_Delay_ms
  3411 ;;		_LIN_handler
  3412 ;;		_SYSTEM_Initialize
  3413 ;;		_Timer
  3414 ;;		_testmode
  3415 ;; This function is called by:
  3416 ;;		Startup code after reset
  3417 ;; This function uses a non-reentrant model
  3418 ;;
  3419                           
  3420     05DD                     _main:	
  3421                           ;psect for function _main
  3422                           
  3423     05DD                     l3939:	
  3424                           ;incstack = 0
  3425                           ; Regs used in _main: [wreg-fsr1h+status,2+status,0+pclath+cstack]
  3426                           
  3427                           
  3428                           ;main.c: 238:   uint8_t UART_CNT = 0;
  3429     05DD  0020               	movlb	0	; select bank0
  3430     05DE  01EE               	clrf	main@UART_CNT
  3431     05DF                     l3941:
  3432                           
  3433                           ;main.c: 240:   SYSTEM_Initialize();
  3434     05DF  318F  27C2  3185   	fcall	_SYSTEM_Initialize
  3435     05E2                     l3943:
  3436                           
  3437                           ;main.c: 243:   Delay_ms(2);
  3438     05E2  3002               	movlw	2
  3439     05E3  00F2               	movwf	Delay_ms@input_ms
  3440     05E4  3000               	movlw	0
  3441     05E5  00F3               	movwf	Delay_ms@input_ms+1
  3442     05E6  318F  271F  3185   	fcall	_Delay_ms
  3443     05E9                     l3945:
  3444                           
  3445                           ;main.c: 244:   if (PORTBbits.RB2 == 1) {
  3446     05E9  0020               	movlb	0	; select bank0
  3447     05EA  1D0D               	btfss	13,2	;volatile
  3448     05EB  2DED               	goto	u3121
  3449     05EC  2DEE               	goto	u3120
  3450     05ED                     u3121:
  3451     05ED  2DF1               	goto	l751
  3452     05EE                     u3120:
  3453     05EE                     l3947:
  3454                           
  3455                           ;main.c: 245:     testmode();
  3456     05EE  3182  2266  3185   	fcall	_testmode
  3457     05F1                     l751:	
  3458                           ;main.c: 246:   }
  3459                           
  3460                           
  3461                           ;main.c: 248:   Delay_ms(2);
  3462     05F1  3002               	movlw	2
  3463     05F2  00F2               	movwf	Delay_ms@input_ms
  3464     05F3  3000               	movlw	0
  3465     05F4  00F3               	movwf	Delay_ms@input_ms+1
  3466     05F5  318F  271F  3185   	fcall	_Delay_ms
  3467     05F8                     l3949:
  3468                           
  3469                           ;main.c: 249:   LATBbits.LATB1 = 1;
  3470     05F8  0022               	movlb	2	; select bank2
  3471     05F9  148D               	bsf	13,1	;volatile
  3472     05FA                     l3951:
  3473                           
  3474                           ;main.c: 250:   ftest = 1;
  3475     05FA  0020               	movlb	0	; select bank0
  3476     05FB  01B8               	clrf	_ftest
  3477     05FC  0AB8               	incf	_ftest,f
  3478     05FD                     l752:	
  3479                           ;main.c: 251:   while (1) {
  3480                           
  3481                           
  3482                           ;main.c: 252:     Timer();
  3483     05FD  3185  2532  3185   	fcall	_Timer
  3484     0600                     l3953:
  3485                           
  3486                           ;main.c: 253:     if (PORTCbits.RC7 == 1) {
  3487     0600  0020               	movlb	0	; select bank0
  3488     0601  1F8E               	btfss	14,7	;volatile
  3489     0602  2E04               	goto	u3131
  3490     0603  2E05               	goto	u3130
  3491     0604                     u3131:
  3492     0604  2E10               	goto	l3959
  3493     0605                     u3130:
  3494     0605                     l3955:
  3495                           
  3496                           ;main.c: 254:       if (UART_CNT < 10)
  3497     0605  300A               	movlw	10
  3498     0606  026E               	subwf	main@UART_CNT,w
  3499     0607  1803               	skipnc
  3500     0608  2E0A               	goto	u3141
  3501     0609  2E0B               	goto	u3140
  3502     060A                     u3141:
  3503     060A  2E12               	goto	l3961
  3504     060B                     u3140:
  3505     060B                     l3957:
  3506                           
  3507                           ;main.c: 255:         UART_CNT++;
  3508     060B  3001               	movlw	1
  3509     060C  00ED               	movwf	??_main
  3510     060D  086D               	movf	??_main,w
  3511     060E  07EE               	addwf	main@UART_CNT,f
  3512     060F  2DFD               	goto	l752
  3513     0610                     l3959:
  3514                           
  3515                           ;main.c: 259:       UART_CNT = 0;
  3516     0610  01EE               	clrf	main@UART_CNT
  3517     0611  2DFD               	goto	l752
  3518     0612                     l3961:
  3519                           
  3520                           ;main.c: 261:   AutoBaud_Detect();
  3521     0612  318E  2681  3185   	fcall	_AutoBaud_Detect
  3522     0615                     l3963:
  3523                           
  3524                           ;main.c: 262:   LATBbits.LATB1 = 0;
  3525     0615  0022               	movlb	2	; select bank2
  3526     0616  108D               	bcf	13,1	;volatile
  3527     0617                     l3965:
  3528                           
  3529                           ;main.c: 263:   ftest = 0;
  3530     0617  0020               	movlb	0	; select bank0
  3531     0618  01B8               	clrf	_ftest
  3532     0619                     l3967:
  3533                           
  3534                           ;main.c: 265:   (INTCONbits.GIE = 1);
  3535     0619  178B               	bsf	11,7	;volatile
  3536     061A                     l3969:
  3537                           
  3538                           ;main.c: 268:   (INTCONbits.PEIE = 1);
  3539     061A  170B               	bsf	11,6	;volatile
  3540     061B                     l3971:
  3541                           
  3542                           ;main.c: 277:   if (PORTBbits.RB3 == 0)
  3543     061B  198D               	btfsc	13,3	;volatile
  3544     061C  2E1E               	goto	u3151
  3545     061D  2E1F               	goto	u3150
  3546     061E                     u3151:
  3547     061E  2E21               	goto	l759
  3548     061F                     u3150:
  3549     061F                     l3973:
  3550                           
  3551                           ;main.c: 278:     fLampSide = 0;
  3552     061F  01CE               	clrf	_fLampSide
  3553     0620  2E23               	goto	l3975
  3554     0621                     l759:	
  3555                           ;main.c: 279:   else
  3556                           
  3557                           
  3558                           ;main.c: 280:     fLampSide = 1;
  3559     0621  01CE               	clrf	_fLampSide
  3560     0622  0ACE               	incf	_fLampSide,f
  3561     0623                     l3975:
  3562                           
  3563                           ;main.c: 284:     LIN_handler();
  3564     0623  3180  2053  3185   	fcall	_LIN_handler
  3565     0626                     l3977:
  3566                           
  3567                           ;main.c: 285:     Timer();
  3568     0626  3185  2532  3185   	fcall	_Timer
  3569     0629  2E23               	goto	l3975
  3570     062A  3180  2838         	ljmp	start
  3571     062C                     __end_of_main:
  3572                           
  3573                           	psect	text1
  3574     0266                     __ptext1:	
  3575 ;; *************** function _testmode *****************
  3576 ;; Defined at:
  3577 ;;		line 144 in file "main.c"
  3578 ;; Parameters:    Size  Location     Type
  3579 ;;		None
  3580 ;; Auto vars:     Size  Location     Type
  3581 ;;		None
  3582 ;; Return value:  Size  Location     Type
  3583 ;;                  1    wreg      void 
  3584 ;; Registers used:
  3585 ;;		wreg, status,2, status,0, pclath, cstack
  3586 ;; Tracked objects:
  3587 ;;		On entry : 0/0
  3588 ;;		On exit  : 0/0
  3589 ;;		Unchanged: 0/0
  3590 ;; Data sizes:     COMMON   BANK0   BANK1   BANK2   BANK3   BANK4   BANK5   BANK6
  3591 ;;      Params:         0       0       0       0       0       0       0       0
  3592 ;;      Locals:         0       0       0       0       0       0       0       0
  3593 ;;      Temps:          0       0       0       0       0       0       0       0
  3594 ;;      Totals:         0       0       0       0       0       0       0       0
  3595 ;;Total ram usage:        0 bytes
  3596 ;; Hardware stack levels used: 1
  3597 ;; Hardware stack levels required when called: 7
  3598 ;; This function calls:
  3599 ;;		_Delay_ms
  3600 ;;		_LED_OFF
  3601 ;;		_LED_ON
  3602 ;;		_Streamer_SEG1_TEST
  3603 ;;		_Streamer_SEG2_TEST
  3604 ;;		_Timer_TESTMODE
  3605 ;; This function is called by:
  3606 ;;		_main
  3607 ;; This function uses a non-reentrant model
  3608 ;;
  3609                           
  3610     0266                     _testmode:	
  3611                           ;psect for function _testmode
  3612                           
  3613     0266                     l3635:	
  3614                           ;incstack = 0
  3615                           ; Regs used in _testmode: [wreg+status,2+status,0+pclath+cstack]
  3616                           
  3617                           
  3618                           ;main.c: 146:   fColorSeletDisable = 1;
  3619     0266  0020               	movlb	0	; select bank0
  3620     0267  01BB               	clrf	_fColorSeletDisable
  3621     0268  0ABB               	incf	_fColorSeletDisable,f
  3622                           
  3623                           ;main.c: 147:   LATBbits.LATB4 = 1;
  3624     0269  0022               	movlb	2	; select bank2
  3625     026A  160D               	bsf	13,4	;volatile
  3626                           
  3627                           ;main.c: 148:   LATBbits.LATB5 = 1;
  3628     026B  168D               	bsf	13,5	;volatile
  3629                           
  3630                           ;main.c: 149:   ftest =1;
  3631     026C  0020               	movlb	0	; select bank0
  3632     026D  01B8               	clrf	_ftest
  3633     026E  0AB8               	incf	_ftest,f
  3634                           
  3635                           ;main.c: 150:   while (PORTBbits.RB2 == 1) {
  3636     026F  2B36               	goto	l3735
  3637     0270                     l3637:
  3638                           
  3639                           ;main.c: 151:     Timer_TESTMODE();
  3640     0270  3185  258C  3182   	fcall	_Timer_TESTMODE
  3641     0273                     l3639:
  3642                           
  3643                           ;main.c: 156:     if (PORTCbits.RC2 == 1)
  3644     0273  0020               	movlb	0	; select bank0
  3645     0274  1D0E               	btfss	14,2	;volatile
  3646     0275  2A77               	goto	u2791
  3647     0276  2A78               	goto	u2790
  3648     0277                     u2791:
  3649     0277  2A7C               	goto	l721
  3650     0278                     u2790:
  3651     0278                     l3641:
  3652                           
  3653                           ;main.c: 157:     {;main.c: 158:         LATCbits.LATC5 = 1;
  3654     0278  0022               	movlb	2	; select bank2
  3655     0279  168E               	bsf	14,5	;volatile
  3656                           
  3657                           ;main.c: 159:         LATCbits.LATC4 = 0;
  3658     027A  120E               	bcf	14,4	;volatile
  3659                           
  3660                           ;main.c: 160:       }
  3661     027B  2A7F               	goto	l3643
  3662     027C                     l721:	
  3663                           ;main.c: 161:     else {
  3664                           
  3665                           
  3666                           ;main.c: 162:       LATCbits.LATC5 = 0;
  3667     027C  0022               	movlb	2	; select bank2
  3668     027D  128E               	bcf	14,5	;volatile
  3669                           
  3670                           ;main.c: 163:       LATCbits.LATC4 = 1;
  3671     027E  160E               	bsf	14,4	;volatile
  3672     027F                     l3643:
  3673                           
  3674                           ;main.c: 167:     if ((mode == 0) && (mode != mode_old)) {
  3675     027F  0020               	movlb	0	; select bank0
  3676     0280  0837               	movf	_mode,w
  3677     0281  1D03               	btfss	3,2
  3678     0282  2A84               	goto	u2801
  3679     0283  2A85               	goto	u2800
  3680     0284                     u2801:
  3681     0284  2AA1               	goto	l3663
  3682     0285                     u2800:
  3683     0285                     l3645:
  3684     0285  0837               	movf	_mode,w
  3685     0286  0636               	xorwf	_mode_old,w
  3686     0287  1903               	skipnz
  3687     0288  2A8A               	goto	u2811
  3688     0289  2A8B               	goto	u2810
  3689     028A                     u2811:
  3690     028A  2AA1               	goto	l3663
  3691     028B                     u2810:
  3692     028B                     l3647:
  3693                           
  3694                           ;main.c: 168:       mode_old = 0;
  3695     028B  01B6               	clrf	_mode_old
  3696     028C                     l3649:
  3697                           
  3698                           ;main.c: 169:       LATBbits.LATB4 = 1;
  3699     028C  0022               	movlb	2	; select bank2
  3700     028D  160D               	bsf	13,4	;volatile
  3701     028E                     l3651:
  3702                           
  3703                           ;main.c: 170:       LATBbits.LATB5 = 1;
  3704     028E  168D               	bsf	13,5	;volatile
  3705     028F                     l3653:
  3706                           
  3707                           ;main.c: 171:       LATBbits.LATB1 =0;
  3708     028F  108D               	bcf	13,1	;volatile
  3709     0290                     l3655:
  3710                           
  3711                           ;main.c: 172:       LED_OFF();
  3712     0290  318D  25C7  3182   	fcall	_LED_OFF
  3713     0293                     l3657:
  3714                           
  3715                           ;main.c: 173:       T250MS_cnt =0;
  3716     0293  0020               	movlb	0	; select bank0
  3717     0294  01BA               	clrf	_T250MS_cnt
  3718                           
  3719                           ;main.c: 174:       while(T250MS_cnt >1)
  3720     0295  2A99               	goto	l3661
  3721     0296                     l3659:
  3722                           
  3723                           ;main.c: 175:       {;main.c: 176:         Timer_TESTMODE();
  3724     0296  3185  258C  3182   	fcall	_Timer_TESTMODE
  3725     0299                     l3661:
  3726                           
  3727                           ;main.c: 174:       while(T250MS_cnt >1)
  3728     0299  3002               	movlw	2
  3729     029A  0020               	movlb	0	; select bank0
  3730     029B  023A               	subwf	_T250MS_cnt,w
  3731     029C  1803               	skipnc
  3732     029D  2A9F               	goto	u2821
  3733     029E  2AA0               	goto	u2820
  3734     029F                     u2821:
  3735     029F  2A96               	goto	l3659
  3736     02A0                     u2820:
  3737     02A0  2B0A               	goto	l727
  3738     02A1                     l3663:
  3739     02A1  0337               	decf	_mode,w
  3740     02A2  1D03               	btfss	3,2
  3741     02A3  2AA5               	goto	u2831
  3742     02A4  2AA6               	goto	u2830
  3743     02A5                     u2831:
  3744     02A5  2AC3               	goto	l3677
  3745     02A6                     u2830:
  3746     02A6                     l3665:
  3747     02A6  0837               	movf	_mode,w
  3748     02A7  0636               	xorwf	_mode_old,w
  3749     02A8  1903               	skipnz
  3750     02A9  2AAB               	goto	u2841
  3751     02AA  2AAC               	goto	u2840
  3752     02AB                     u2841:
  3753     02AB  2AC3               	goto	l3677
  3754     02AC                     u2840:
  3755     02AC                     l3667:
  3756                           
  3757                           ;main.c: 179:       mode_old = 1;
  3758     02AC  01B6               	clrf	_mode_old
  3759     02AD  0AB6               	incf	_mode_old,f
  3760                           
  3761                           ;main.c: 180:       LATBbits.LATB4 = 1;
  3762     02AE  0022               	movlb	2	; select bank2
  3763     02AF  160D               	bsf	13,4	;volatile
  3764                           
  3765                           ;main.c: 181:       LATBbits.LATB5 = 1;
  3766     02B0  168D               	bsf	13,5	;volatile
  3767                           
  3768                           ;main.c: 182:       LATBbits.LATB1 =1;
  3769     02B1  148D               	bsf	13,1	;volatile
  3770     02B2                     l3669:
  3771                           
  3772                           ;main.c: 183:       LED_OFF();
  3773     02B2  318D  25C7  3182   	fcall	_LED_OFF
  3774     02B5                     l3671:
  3775                           
  3776                           ;main.c: 184:       T250MS_cnt =0;
  3777     02B5  0020               	movlb	0	; select bank0
  3778     02B6  01BA               	clrf	_T250MS_cnt
  3779                           
  3780                           ;main.c: 185:       while(T250MS_cnt >1)
  3781     02B7  2ABB               	goto	l3675
  3782     02B8                     l3673:
  3783                           
  3784                           ;main.c: 186:       {;main.c: 187:         Timer_TESTMODE();
  3785     02B8  3185  258C  3182   	fcall	_Timer_TESTMODE
  3786     02BB                     l3675:
  3787                           
  3788                           ;main.c: 185:       while(T250MS_cnt >1)
  3789     02BB  3002               	movlw	2
  3790     02BC  0020               	movlb	0	; select bank0
  3791     02BD  023A               	subwf	_T250MS_cnt,w
  3792     02BE  1803               	skipnc
  3793     02BF  2AC1               	goto	u2851
  3794     02C0  2AC2               	goto	u2850
  3795     02C1                     u2851:
  3796     02C1  2AB8               	goto	l3673
  3797     02C2                     u2850:
  3798     02C2  2B0A               	goto	l727
  3799     02C3                     l3677:
  3800     02C3  3002               	movlw	2
  3801     02C4  0637               	xorwf	_mode,w
  3802     02C5  1D03               	btfss	3,2
  3803     02C6  2AC8               	goto	u2861
  3804     02C7  2AC9               	goto	u2860
  3805     02C8                     u2861:
  3806     02C8  2AE7               	goto	l3697
  3807     02C9                     u2860:
  3808     02C9                     l3679:
  3809     02C9  0837               	movf	_mode,w
  3810     02CA  0636               	xorwf	_mode_old,w
  3811     02CB  1903               	skipnz
  3812     02CC  2ACE               	goto	u2871
  3813     02CD  2ACF               	goto	u2870
  3814     02CE                     u2871:
  3815     02CE  2AE7               	goto	l3697
  3816     02CF                     u2870:
  3817     02CF                     l3681:
  3818                           
  3819                           ;main.c: 190:       mode_old = 2;
  3820     02CF  3002               	movlw	2
  3821     02D0  00B6               	movwf	_mode_old
  3822     02D1                     l3683:
  3823                           
  3824                           ;main.c: 191:       LATBbits.LATB4 = 0;
  3825     02D1  0022               	movlb	2	; select bank2
  3826     02D2  120D               	bcf	13,4	;volatile
  3827     02D3                     l3685:
  3828                           
  3829                           ;main.c: 192:       LATBbits.LATB5 = 0;
  3830     02D3  128D               	bcf	13,5	;volatile
  3831     02D4                     l3687:
  3832                           
  3833                           ;main.c: 193:       LATBbits.LATB1 =0;
  3834     02D4  108D               	bcf	13,1	;volatile
  3835     02D5                     l3689:
  3836                           
  3837                           ;main.c: 194:       LED_ON(25);
  3838     02D5  3019               	movlw	25
  3839     02D6  318E  262C  3182   	fcall	_LED_ON
  3840     02D9                     l3691:
  3841                           
  3842                           ;main.c: 195:       T250MS_cnt =0;
  3843     02D9  0020               	movlb	0	; select bank0
  3844     02DA  01BA               	clrf	_T250MS_cnt
  3845                           
  3846                           ;main.c: 196:       while(T250MS_cnt >1)
  3847     02DB  2ADF               	goto	l3695
  3848     02DC                     l3693:
  3849                           
  3850                           ;main.c: 197:       {;main.c: 198:         Timer_TESTMODE();
  3851     02DC  3185  258C  3182   	fcall	_Timer_TESTMODE
  3852     02DF                     l3695:
  3853                           
  3854                           ;main.c: 196:       while(T250MS_cnt >1)
  3855     02DF  3002               	movlw	2
  3856     02E0  0020               	movlb	0	; select bank0
  3857     02E1  023A               	subwf	_T250MS_cnt,w
  3858     02E2  1803               	skipnc
  3859     02E3  2AE5               	goto	u2881
  3860     02E4  2AE6               	goto	u2880
  3861     02E5                     u2881:
  3862     02E5  2ADC               	goto	l3693
  3863     02E6                     u2880:
  3864     02E6  2B0A               	goto	l727
  3865     02E7                     l3697:
  3866     02E7  3003               	movlw	3
  3867     02E8  0637               	xorwf	_mode,w
  3868     02E9  1D03               	btfss	3,2
  3869     02EA  2AEC               	goto	u2891
  3870     02EB  2AED               	goto	u2890
  3871     02EC                     u2891:
  3872     02EC  2B0A               	goto	l727
  3873     02ED                     u2890:
  3874     02ED                     l3699:
  3875     02ED  0837               	movf	_mode,w
  3876     02EE  0636               	xorwf	_mode_old,w
  3877     02EF  1903               	skipnz
  3878     02F0  2AF2               	goto	u2901
  3879     02F1  2AF3               	goto	u2900
  3880     02F2                     u2901:
  3881     02F2  2B0A               	goto	l727
  3882     02F3                     u2900:
  3883     02F3                     l3701:
  3884                           
  3885                           ;main.c: 201:       mode_old = 3;
  3886     02F3  3003               	movlw	3
  3887     02F4  00B6               	movwf	_mode_old
  3888     02F5                     l3703:
  3889                           
  3890                           ;main.c: 202:       LATBbits.LATB4 = 0;
  3891     02F5  0022               	movlb	2	; select bank2
  3892     02F6  120D               	bcf	13,4	;volatile
  3893     02F7                     l3705:
  3894                           
  3895                           ;main.c: 203:       LATBbits.LATB5 = 0;
  3896     02F7  128D               	bcf	13,5	;volatile
  3897     02F8                     l3707:
  3898                           
  3899                           ;main.c: 204:       LATBbits.LATB1 =0;
  3900     02F8  108D               	bcf	13,1	;volatile
  3901     02F9                     l3709:
  3902                           
  3903                           ;main.c: 205:       LED_ON(255);
  3904     02F9  30FF               	movlw	255
  3905     02FA  318E  262C  3182   	fcall	_LED_ON
  3906     02FD                     l3711:
  3907                           
  3908                           ;main.c: 206:       T250MS_cnt =0;
  3909     02FD  0020               	movlb	0	; select bank0
  3910     02FE  01BA               	clrf	_T250MS_cnt
  3911                           
  3912                           ;main.c: 207:       while(T250MS_cnt >1)
  3913     02FF  2B03               	goto	l3715
  3914     0300                     l3713:
  3915                           
  3916                           ;main.c: 208:       {;main.c: 209:         Timer_TESTMODE();
  3917     0300  3185  258C  3182   	fcall	_Timer_TESTMODE
  3918     0303                     l3715:
  3919                           
  3920                           ;main.c: 207:       while(T250MS_cnt >1)
  3921     0303  3002               	movlw	2
  3922     0304  0020               	movlb	0	; select bank0
  3923     0305  023A               	subwf	_T250MS_cnt,w
  3924     0306  1803               	skipnc
  3925     0307  2B09               	goto	u2911
  3926     0308  2B0A               	goto	u2910
  3927     0309                     u2911:
  3928     0309  2B00               	goto	l3713
  3929     030A                     u2910:
  3930     030A                     l727:
  3931                           
  3932                           ;main.c: 213:     if((PORTCbits.RC2==1)&&(fTurn==0))
  3933     030A  1D0E               	btfss	14,2	;volatile
  3934     030B  2B0D               	goto	u2921
  3935     030C  2B0E               	goto	u2920
  3936     030D                     u2921:
  3937     030D  2B21               	goto	l742
  3938     030E                     u2920:
  3939     030E                     l3717:
  3940     030E  0839               	movf	_fTurn,w
  3941     030F  1D03               	btfss	3,2
  3942     0310  2B12               	goto	u2931
  3943     0311  2B13               	goto	u2930
  3944     0312                     u2931:
  3945     0312  2B21               	goto	l742
  3946     0313                     u2930:
  3947     0313                     l3719:
  3948                           
  3949                           ;main.c: 214:     {;main.c: 215:       fTurn=1;
  3950     0313  01B9               	clrf	_fTurn
  3951     0314  0AB9               	incf	_fTurn,f
  3952                           
  3953                           ;main.c: 216:       LATCbits.LATC5=1;
  3954     0315  0022               	movlb	2	; select bank2
  3955     0316  168E               	bsf	14,5	;volatile
  3956                           
  3957                           ;main.c: 217:       LATCbits.LATC4=0;
  3958     0317  120E               	bcf	14,4	;volatile
  3959     0318                     l3721:
  3960                           
  3961                           ;main.c: 218:       Streamer_SEG1_TEST(5);
  3962     0318  3005               	movlw	5
  3963     0319  3187  2707  3182   	fcall	_Streamer_SEG1_TEST
  3964                           
  3965                           ;main.c: 219:       Streamer_SEG2_TEST(5);
  3966     031C  3005               	movlw	5
  3967     031D  3186  26D6  3182   	fcall	_Streamer_SEG2_TEST
  3968                           
  3969                           ;main.c: 220:     }
  3970     0320  2B36               	goto	l3735
  3971     0321                     l742:	
  3972                           ;main.c: 221:     else if((PORTCbits.RC2==0)&&(fTurn==1))
  3973                           
  3974     0321  190E               	btfsc	14,2	;volatile
  3975     0322  2B24               	goto	u2941
  3976     0323  2B25               	goto	u2940
  3977     0324                     u2941:
  3978     0324  2B36               	goto	l3735
  3979     0325                     u2940:
  3980     0325                     l3723:
  3981     0325  0339               	decf	_fTurn,w
  3982     0326  1D03               	btfss	3,2
  3983     0327  2B29               	goto	u2951
  3984     0328  2B2A               	goto	u2950
  3985     0329                     u2951:
  3986     0329  2B36               	goto	l3735
  3987     032A                     u2950:
  3988     032A                     l3725:
  3989                           
  3990                           ;main.c: 222:     {;main.c: 223:       fTurn=0;
  3991     032A  01B9               	clrf	_fTurn
  3992     032B                     l3727:
  3993                           
  3994                           ;main.c: 224:       LATCbits.LATC5=0;
  3995     032B  0022               	movlb	2	; select bank2
  3996     032C  128E               	bcf	14,5	;volatile
  3997     032D                     l3729:
  3998                           
  3999                           ;main.c: 225:       LATCbits.LATC4=1;
  4000     032D  160E               	bsf	14,4	;volatile
  4001     032E                     l3731:
  4002                           
  4003                           ;main.c: 226:       Streamer_SEG1_TEST(5);
  4004     032E  3005               	movlw	5
  4005     032F  3187  2707  3182   	fcall	_Streamer_SEG1_TEST
  4006     0332                     l3733:
  4007                           
  4008                           ;main.c: 227:       Streamer_SEG2_TEST(5);
  4009     0332  3005               	movlw	5
  4010     0333  3186  26D6  3182   	fcall	_Streamer_SEG2_TEST
  4011     0336                     l3735:
  4012                           
  4013                           ;main.c: 150:   while (PORTBbits.RB2 == 1) {
  4014     0336  0020               	movlb	0	; select bank0
  4015     0337  190D               	btfsc	13,2	;volatile
  4016     0338  2B3A               	goto	u2961
  4017     0339  2B3B               	goto	u2960
  4018     033A                     u2961:
  4019     033A  2A70               	goto	l3637
  4020     033B                     u2960:
  4021     033B                     l745:
  4022                           
  4023                           ;main.c: 230:   LATBbits.LATB4 = 0;
  4024     033B  0022               	movlb	2	; select bank2
  4025     033C  120D               	bcf	13,4	;volatile
  4026                           
  4027                           ;main.c: 231:   LATBbits.LATB5 = 0;
  4028     033D  128D               	bcf	13,5	;volatile
  4029                           
  4030                           ;main.c: 232:   LATBbits.LATB1 = 0;
  4031     033E  108D               	bcf	13,1	;volatile
  4032     033F                     l3737:
  4033                           
  4034                           ;main.c: 233:   LED_OFF();
  4035     033F  318D  25C7  3182   	fcall	_LED_OFF
  4036                           
  4037                           ;main.c: 234:   Delay_ms(1);
  4038     0342  3001               	movlw	1
  4039     0343  00F2               	movwf	Delay_ms@input_ms
  4040     0344  3000               	movlw	0
  4041     0345  00F3               	movwf	Delay_ms@input_ms+1
  4042     0346  318F  271F  3182   	fcall	_Delay_ms
  4043     0349                     l746:
  4044     0349  0008               	return
  4045     034A                     __end_of_testmode:
  4046                           
  4047                           	psect	text2
  4048     058C                     __ptext2:	
  4049 ;; *************** function _Timer_TESTMODE *****************
  4050 ;; Defined at:
  4051 ;;		line 76 in file "timer.c"
  4052 ;; Parameters:    Size  Location     Type
  4053 ;;		None
  4054 ;; Auto vars:     Size  Location     Type
  4055 ;;		None
  4056 ;; Return value:  Size  Location     Type
  4057 ;;                  1    wreg      void 
  4058 ;; Registers used:
  4059 ;;		wreg, status,2, status,0
  4060 ;; Tracked objects:
  4061 ;;		On entry : 0/0
  4062 ;;		On exit  : 0/0
  4063 ;;		Unchanged: 0/0
  4064 ;; Data sizes:     COMMON   BANK0   BANK1   BANK2   BANK3   BANK4   BANK5   BANK6
  4065 ;;      Params:         0       0       0       0       0       0       0       0
  4066 ;;      Locals:         0       0       0       0       0       0       0       0
  4067 ;;      Temps:          1       0       0       0       0       0       0       0
  4068 ;;      Totals:         1       0       0       0       0       0       0       0
  4069 ;;Total ram usage:        1 bytes
  4070 ;; Hardware stack levels used: 1
  4071 ;; Hardware stack levels required when called: 4
  4072 ;; This function calls:
  4073 ;;		Nothing
  4074 ;; This function is called by:
  4075 ;;		_testmode
  4076 ;; This function uses a non-reentrant model
  4077 ;;
  4078                           
  4079     058C                     _Timer_TESTMODE:	
  4080                           ;psect for function _Timer_TESTMODE
  4081                           
  4082     058C                     l3409:	
  4083                           ;incstack = 0
  4084                           ; Regs used in _Timer_TESTMODE: [wreg+status,2+status,0]
  4085                           
  4086     058C                     l901:	
  4087                           ;timer.c: 78:   };
  4088                           
  4089                           
  4090                           ;timer.c: 77:   while (!TMR2IF) {
  4091     058C  0020               	movlb	0	; select bank0
  4092     058D  1C91               	btfss	17,1	;volatile
  4093     058E  2D90               	goto	u2451
  4094     058F  2D91               	goto	u2450
  4095     0590                     u2451:
  4096     0590  2D8C               	goto	l901
  4097     0591                     u2450:
  4098     0591                     l3411:
  4099                           
  4100                           ;timer.c: 79:   TMR2 += 57;
  4101     0591  3039               	movlw	57
  4102     0592  00F1               	movwf	??_Timer_TESTMODE
  4103     0593  0871               	movf	??_Timer_TESTMODE,w
  4104     0594  079A               	addwf	26,f	;volatile
  4105     0595                     l3413:
  4106                           
  4107                           ;timer.c: 80:   TMR2IF = 0;
  4108     0595  1091               	bcf	17,1	;volatile
  4109                           
  4110                           ;timer.c: 81:   T100us_cnt++;
  4111     0596  3001               	movlw	1
  4112     0597  00F1               	movwf	??_Timer_TESTMODE
  4113     0598  0871               	movf	??_Timer_TESTMODE,w
  4114     0599  07B5               	addwf	_T100us_cnt,f
  4115                           
  4116                           ;timer.c: 82:   T100us_cnt1++;
  4117     059A  3001               	movlw	1
  4118     059B  00F1               	movwf	??_Timer_TESTMODE
  4119     059C  0871               	movf	??_Timer_TESTMODE,w
  4120     059D  07B4               	addwf	_T100us_cnt1,f
  4121     059E                     l3415:
  4122                           
  4123                           ;timer.c: 83:   if (T100us_cnt1 >= 10) {
  4124     059E  300A               	movlw	10
  4125     059F  0234               	subwf	_T100us_cnt1,w
  4126     05A0  1C03               	skipc
  4127     05A1  2DA3               	goto	u2461
  4128     05A2  2DA4               	goto	u2460
  4129     05A3                     u2461:
  4130     05A3  2DA9               	goto	l3421
  4131     05A4                     u2460:
  4132     05A4                     l3417:
  4133                           
  4134                           ;timer.c: 84:     T100us_cnt1 = 0;
  4135     05A4  01B4               	clrf	_T100us_cnt1
  4136     05A5                     l3419:
  4137                           
  4138                           ;timer.c: 85:     T1MS_cnt++;
  4139     05A5  3001               	movlw	1
  4140     05A6  07A0               	addwf	_T1MS_cnt,f
  4141     05A7  3000               	movlw	0
  4142     05A8  3DA1               	addwfc	_T1MS_cnt+1,f
  4143     05A9                     l3421:
  4144                           
  4145                           ;timer.c: 88:   if (T100us_cnt >= 50) {
  4146     05A9  3032               	movlw	50
  4147     05AA  0235               	subwf	_T100us_cnt,w
  4148     05AB  1C03               	skipc
  4149     05AC  2DAE               	goto	u2471
  4150     05AD  2DAF               	goto	u2470
  4151     05AE                     u2471:
  4152     05AE  2DB4               	goto	l3427
  4153     05AF                     u2470:
  4154     05AF                     l3423:
  4155                           
  4156                           ;timer.c: 89:     T100us_cnt = 0;
  4157     05AF  01B5               	clrf	_T100us_cnt
  4158     05B0                     l3425:
  4159                           
  4160                           ;timer.c: 90:     T5MS_cnt++;
  4161     05B0  3001               	movlw	1
  4162     05B1  00F1               	movwf	??_Timer_TESTMODE
  4163     05B2  0871               	movf	??_Timer_TESTMODE,w
  4164     05B3  07B3               	addwf	_T5MS_cnt,f
  4165     05B4                     l3427:
  4166                           
  4167                           ;timer.c: 92:   if (T5MS_cnt >= 50) {
  4168     05B4  3032               	movlw	50
  4169     05B5  0233               	subwf	_T5MS_cnt,w
  4170     05B6  1C03               	skipc
  4171     05B7  2DB9               	goto	u2481
  4172     05B8  2DBA               	goto	u2480
  4173     05B9                     u2481:
  4174     05B9  2DBF               	goto	l3433
  4175     05BA                     u2480:
  4176     05BA                     l3429:
  4177                           
  4178                           ;timer.c: 93:     T5MS_cnt = 0;
  4179     05BA  01B3               	clrf	_T5MS_cnt
  4180     05BB                     l3431:
  4181                           
  4182                           ;timer.c: 94:     T250MS_cnt++;
  4183     05BB  3001               	movlw	1
  4184     05BC  00F1               	movwf	??_Timer_TESTMODE
  4185     05BD  0871               	movf	??_Timer_TESTMODE,w
  4186     05BE  07BA               	addwf	_T250MS_cnt,f
  4187     05BF                     l3433:
  4188                           
  4189                           ;timer.c: 97:   if((PORTAbits.RA3==1)&&(fLoBeam==0))
  4190     05BF  1D8C               	btfss	12,3	;volatile
  4191     05C0  2DC2               	goto	u2491
  4192     05C1  2DC3               	goto	u2490
  4193     05C2                     u2491:
  4194     05C2  2DD4               	goto	l3443
  4195     05C3                     u2490:
  4196     05C3                     l3435:
  4197     05C3  084F               	movf	_fLoBeam,w
  4198     05C4  1D03               	btfss	3,2
  4199     05C5  2DC7               	goto	u2501
  4200     05C6  2DC8               	goto	u2500
  4201     05C7                     u2501:
  4202     05C7  2DD4               	goto	l3443
  4203     05C8                     u2500:
  4204     05C8                     l3437:
  4205                           
  4206                           ;timer.c: 98:   {;timer.c: 99:     if(mode <3)
  4207     05C8  3003               	movlw	3
  4208     05C9  0237               	subwf	_mode,w
  4209     05CA  1803               	skipnc
  4210     05CB  2DCD               	goto	u2511
  4211     05CC  2DCE               	goto	u2510
  4212     05CD                     u2511:
  4213     05CD  2DD3               	goto	l3441
  4214     05CE                     u2510:
  4215     05CE                     l3439:
  4216                           
  4217                           ;timer.c: 100:     {;timer.c: 101:       mode++;
  4218     05CE  3001               	movlw	1
  4219     05CF  00F1               	movwf	??_Timer_TESTMODE
  4220     05D0  0871               	movf	??_Timer_TESTMODE,w
  4221     05D1  07B7               	addwf	_mode,f
  4222                           
  4223                           ;timer.c: 102:     }
  4224     05D2  2DD4               	goto	l3443
  4225     05D3                     l3441:
  4226                           
  4227                           ;timer.c: 104:       mode =0;
  4228     05D3  01B7               	clrf	_mode
  4229     05D4                     l3443:
  4230                           
  4231                           ;timer.c: 108:   if (PORTAbits.RA3 == 1) {
  4232     05D4  1D8C               	btfss	12,3	;volatile
  4233     05D5  2DD7               	goto	u2521
  4234     05D6  2DD8               	goto	u2520
  4235     05D7                     u2521:
  4236     05D7  2DDB               	goto	l3447
  4237     05D8                     u2520:
  4238     05D8                     l3445:
  4239                           
  4240                           ;timer.c: 109:     fLoBeam = 1;
  4241     05D8  01CF               	clrf	_fLoBeam
  4242     05D9  0ACF               	incf	_fLoBeam,f
  4243                           
  4244                           ;timer.c: 110:   } else{
  4245     05DA  2DDC               	goto	l912
  4246     05DB                     l3447:
  4247                           
  4248                           ;timer.c: 111:     fLoBeam = 0;
  4249     05DB  01CF               	clrf	_fLoBeam
  4250     05DC                     l912:
  4251     05DC  0008               	return
  4252     05DD                     __end_of_Timer_TESTMODE:
  4253                           
  4254                           	psect	text3
  4255     06D6                     __ptext3:	
  4256 ;; *************** function _Streamer_SEG2_TEST *****************
  4257 ;; Defined at:
  4258 ;;		line 159 in file "PWM.c"
  4259 ;; Parameters:    Size  Location     Type
  4260 ;;  InputData       1    wreg     unsigned char 
  4261 ;; Auto vars:     Size  Location     Type
  4262 ;;  InputData       1    0[BANK0 ] unsigned char 
  4263 ;;  i               1    3[BANK0 ] unsigned char 
  4264 ;;  num             1    2[BANK0 ] unsigned char 
  4265 ;;  data            1    1[BANK0 ] unsigned char 
  4266 ;; Return value:  Size  Location     Type
  4267 ;;                  1    wreg      void 
  4268 ;; Registers used:
  4269 ;;		wreg, status,2, status,0, pclath, cstack
  4270 ;; Tracked objects:
  4271 ;;		On entry : 0/0
  4272 ;;		On exit  : 0/0
  4273 ;;		Unchanged: 0/0
  4274 ;; Data sizes:     COMMON   BANK0   BANK1   BANK2   BANK3   BANK4   BANK5   BANK6
  4275 ;;      Params:         0       0       0       0       0       0       0       0
  4276 ;;      Locals:         0       4       0       0       0       0       0       0
  4277 ;;      Temps:          1       0       0       0       0       0       0       0
  4278 ;;      Totals:         1       4       0       0       0       0       0       0
  4279 ;;Total ram usage:        5 bytes
  4280 ;; Hardware stack levels used: 1
  4281 ;; Hardware stack levels required when called: 6
  4282 ;; This function calls:
  4283 ;;		_Delay_ms
  4284 ;;		_LED_SET
  4285 ;; This function is called by:
  4286 ;;		_testmode
  4287 ;; This function uses a non-reentrant model
  4288 ;;
  4289                           
  4290     06D6                     _Streamer_SEG2_TEST:	
  4291                           ;psect for function _Streamer_SEG2_TEST
  4292                           
  4293                           
  4294                           ;incstack = 0
  4295                           ; Regs used in _Streamer_SEG2_TEST: [wreg+status,2+status,0+pclath+cstack]
  4296                           ;Streamer_SEG2_TEST@InputData stored from wreg
  4297     06D6  0020               	movlb	0	; select bank0
  4298     06D7  00DD               	movwf	Streamer_SEG2_TEST@InputData
  4299     06D8                     l3469:
  4300                           
  4301                           ;PWM.c: 160:   uint8_t data = InputData;
  4302     06D8  085D               	movf	Streamer_SEG2_TEST@InputData,w
  4303     06D9  00DE               	movwf	Streamer_SEG2_TEST@data
  4304     06DA                     l3471:
  4305                           
  4306                           ;PWM.c: 161:   uint8_t num = 0;
  4307     06DA  01DF               	clrf	Streamer_SEG2_TEST@num
  4308     06DB                     l3473:
  4309                           
  4310                           ;PWM.c: 163:   for (uint8_t i = 0; i < (2 * 3); i++) {
  4311     06DB  01E0               	clrf	Streamer_SEG2_TEST@i
  4312     06DC                     l3477:
  4313                           
  4314                           ;PWM.c: 165:     LED_SET((4 * 3), data);
  4315     06DC  085E               	movf	Streamer_SEG2_TEST@data,w
  4316     06DD  00F4               	movwf	LED_SET@InputData
  4317     06DE  300C               	movlw	12
  4318     06DF  318E  26A7  3186   	fcall	_LED_SET
  4319     06E2                     l3479:
  4320                           
  4321                           ;PWM.c: 167:     num += 1;
  4322     06E2  3001               	movlw	1
  4323     06E3  00FA               	movwf	??_Streamer_SEG2_TEST
  4324     06E4  087A               	movf	??_Streamer_SEG2_TEST,w
  4325     06E5  0020               	movlb	0	; select bank0
  4326     06E6  07DF               	addwf	Streamer_SEG2_TEST@num,f
  4327     06E7                     l3481:
  4328                           
  4329                           ;PWM.c: 168:     LED_SET(num, data);
  4330     06E7  085E               	movf	Streamer_SEG2_TEST@data,w
  4331     06E8  00F4               	movwf	LED_SET@InputData
  4332     06E9  085F               	movf	Streamer_SEG2_TEST@num,w
  4333     06EA  318E  26A7  3186   	fcall	_LED_SET
  4334     06ED                     l3483:
  4335                           
  4336                           ;PWM.c: 169:     LED_SET((2 * 3) - num, 0x00);
  4337     06ED  01F4               	clrf	LED_SET@InputData
  4338     06EE  0020               	movlb	0	; select bank0
  4339     06EF  085F               	movf	Streamer_SEG2_TEST@num,w
  4340     06F0  3C06               	sublw	6
  4341     06F1  318E  26A7  3186   	fcall	_LED_SET
  4342     06F4                     l3485:
  4343                           
  4344                           ;PWM.c: 170:     Delay_ms(500);
  4345     06F4  30F4               	movlw	244
  4346     06F5  00F2               	movwf	Delay_ms@input_ms
  4347     06F6  3001               	movlw	1
  4348     06F7  00F3               	movwf	Delay_ms@input_ms+1
  4349     06F8  318F  271F  3186   	fcall	_Delay_ms
  4350                           
  4351                           ;PWM.c: 171:   }
  4352     06FB  3001               	movlw	1
  4353     06FC  00FA               	movwf	??_Streamer_SEG2_TEST
  4354     06FD  087A               	movf	??_Streamer_SEG2_TEST,w
  4355     06FE  0020               	movlb	0	; select bank0
  4356     06FF  07E0               	addwf	Streamer_SEG2_TEST@i,f
  4357     0700                     l3487:
  4358     0700  3006               	movlw	6
  4359     0701  0260               	subwf	Streamer_SEG2_TEST@i,w
  4360     0702  1C03               	skipc
  4361     0703  2F05               	goto	u2541
  4362     0704  2F06               	goto	u2540
  4363     0705                     u2541:
  4364     0705  2EDC               	goto	l3477
  4365     0706                     u2540:
  4366     0706                     l834:
  4367     0706  0008               	return
  4368     0707                     __end_of_Streamer_SEG2_TEST:
  4369                           
  4370                           	psect	text4
  4371     0707                     __ptext4:	
  4372 ;; *************** function _Streamer_SEG1_TEST *****************
  4373 ;; Defined at:
  4374 ;;		line 112 in file "PWM.c"
  4375 ;; Parameters:    Size  Location     Type
  4376 ;;  InputData       1    wreg     unsigned char 
  4377 ;; Auto vars:     Size  Location     Type
  4378 ;;  InputData       1    0[BANK0 ] unsigned char 
  4379 ;;  i               1    3[BANK0 ] unsigned char 
  4380 ;;  num             1    2[BANK0 ] unsigned char 
  4381 ;;  data            1    1[BANK0 ] unsigned char 
  4382 ;; Return value:  Size  Location     Type
  4383 ;;                  1    wreg      void 
  4384 ;; Registers used:
  4385 ;;		wreg, status,2, status,0, pclath, cstack
  4386 ;; Tracked objects:
  4387 ;;		On entry : 0/0
  4388 ;;		On exit  : 0/0
  4389 ;;		Unchanged: 0/0
  4390 ;; Data sizes:     COMMON   BANK0   BANK1   BANK2   BANK3   BANK4   BANK5   BANK6
  4391 ;;      Params:         0       0       0       0       0       0       0       0
  4392 ;;      Locals:         0       4       0       0       0       0       0       0
  4393 ;;      Temps:          1       0       0       0       0       0       0       0
  4394 ;;      Totals:         1       4       0       0       0       0       0       0
  4395 ;;Total ram usage:        5 bytes
  4396 ;; Hardware stack levels used: 1
  4397 ;; Hardware stack levels required when called: 6
  4398 ;; This function calls:
  4399 ;;		_Delay_ms
  4400 ;;		_LED_SET
  4401 ;; This function is called by:
  4402 ;;		_testmode
  4403 ;; This function uses a non-reentrant model
  4404 ;;
  4405                           
  4406     0707                     _Streamer_SEG1_TEST:	
  4407                           ;psect for function _Streamer_SEG1_TEST
  4408                           
  4409                           
  4410                           ;incstack = 0
  4411                           ; Regs used in _Streamer_SEG1_TEST: [wreg+status,2+status,0+pclath+cstack]
  4412                           ;Streamer_SEG1_TEST@InputData stored from wreg
  4413     0707  0020               	movlb	0	; select bank0
  4414     0708  00DD               	movwf	Streamer_SEG1_TEST@InputData
  4415     0709                     l3449:
  4416                           
  4417                           ;PWM.c: 113:   uint8_t data = InputData;
  4418     0709  085D               	movf	Streamer_SEG1_TEST@InputData,w
  4419     070A  00DE               	movwf	Streamer_SEG1_TEST@data
  4420     070B                     l3451:
  4421                           
  4422                           ;PWM.c: 114:   uint8_t num = 0;
  4423     070B  01DF               	clrf	Streamer_SEG1_TEST@num
  4424     070C                     l3453:
  4425                           
  4426                           ;PWM.c: 116:   for (uint8_t i = 0; i < (4 * 3); i++) {
  4427     070C  01E0               	clrf	Streamer_SEG1_TEST@i
  4428     070D                     l3457:
  4429                           
  4430                           ;PWM.c: 117:     num += 1;
  4431     070D  3001               	movlw	1
  4432     070E  00FA               	movwf	??_Streamer_SEG1_TEST
  4433     070F  087A               	movf	??_Streamer_SEG1_TEST,w
  4434     0710  07DF               	addwf	Streamer_SEG1_TEST@num,f
  4435     0711                     l3459:
  4436                           
  4437                           ;PWM.c: 119:     LED_SET(num, data);
  4438     0711  085E               	movf	Streamer_SEG1_TEST@data,w
  4439     0712  00F4               	movwf	LED_SET@InputData
  4440     0713  085F               	movf	Streamer_SEG1_TEST@num,w
  4441     0714  318E  26A7  3187   	fcall	_LED_SET
  4442     0717                     l3461:
  4443                           
  4444                           ;PWM.c: 120:     LED_SET((4 * 3) - num, 0x00);
  4445     0717  01F4               	clrf	LED_SET@InputData
  4446     0718  0020               	movlb	0	; select bank0
  4447     0719  085F               	movf	Streamer_SEG1_TEST@num,w
  4448     071A  3C0C               	sublw	12
  4449     071B  318E  26A7  3187   	fcall	_LED_SET
  4450     071E                     l3463:
  4451                           
  4452                           ;PWM.c: 122:     LED_SET((2 * 3), 0x00);
  4453     071E  01F4               	clrf	LED_SET@InputData
  4454     071F  3006               	movlw	6
  4455     0720  318E  26A7  3187   	fcall	_LED_SET
  4456     0723                     l3465:
  4457                           
  4458                           ;PWM.c: 123:     Delay_ms(500);
  4459     0723  30F4               	movlw	244
  4460     0724  00F2               	movwf	Delay_ms@input_ms
  4461     0725  3001               	movlw	1
  4462     0726  00F3               	movwf	Delay_ms@input_ms+1
  4463     0727  318F  271F  3187   	fcall	_Delay_ms
  4464                           
  4465                           ;PWM.c: 124:   }
  4466     072A  3001               	movlw	1
  4467     072B  00FA               	movwf	??_Streamer_SEG1_TEST
  4468     072C  087A               	movf	??_Streamer_SEG1_TEST,w
  4469     072D  0020               	movlb	0	; select bank0
  4470     072E  07E0               	addwf	Streamer_SEG1_TEST@i,f
  4471     072F                     l3467:
  4472     072F  300C               	movlw	12
  4473     0730  0260               	subwf	Streamer_SEG1_TEST@i,w
  4474     0731  1C03               	skipc
  4475     0732  2F34               	goto	u2531
  4476     0733  2F35               	goto	u2530
  4477     0734                     u2531:
  4478     0734  2F0D               	goto	l3457
  4479     0735                     u2530:
  4480     0735                     l819:
  4481     0735  0008               	return
  4482     0736                     __end_of_Streamer_SEG1_TEST:
  4483                           
  4484                           	psect	text5
  4485     0FC2                     __ptext5:	
  4486 ;; *************** function _SYSTEM_Initialize *****************
  4487 ;; Defined at:
  4488 ;;		line 50 in file "mcc_generated_files/mcc.c"
  4489 ;; Parameters:    Size  Location     Type
  4490 ;;		None
  4491 ;; Auto vars:     Size  Location     Type
  4492 ;;		None
  4493 ;; Return value:  Size  Location     Type
  4494 ;;                  1    wreg      void 
  4495 ;; Registers used:
  4496 ;;		wreg, status,2, status,0, pclath, cstack
  4497 ;; Tracked objects:
  4498 ;;		On entry : 0/0
  4499 ;;		On exit  : 0/0
  4500 ;;		Unchanged: 0/0
  4501 ;; Data sizes:     COMMON   BANK0   BANK1   BANK2   BANK3   BANK4   BANK5   BANK6
  4502 ;;      Params:         0       0       0       0       0       0       0       0
  4503 ;;      Locals:         0       0       0       0       0       0       0       0
  4504 ;;      Temps:          0       0       0       0       0       0       0       0
  4505 ;;      Totals:         0       0       0       0       0       0       0       0
  4506 ;;Total ram usage:        0 bytes
  4507 ;; Hardware stack levels used: 1
  4508 ;; Hardware stack levels required when called: 8
  4509 ;; This function calls:
  4510 ;;		_EUSART_Initialize
  4511 ;;		_LIN_Slave_Initialize
  4512 ;;		_OSCILLATOR_Initialize
  4513 ;;		_PIN_MANAGER_Initialize
  4514 ;;		_PWM5_Initialize
  4515 ;;		_TMR0_Initialize
  4516 ;;		_TMR2_Initialize
  4517 ;;		_TMR6_Initialize
  4518 ;;		_WDT_Initialize
  4519 ;; This function is called by:
  4520 ;;		_main
  4521 ;; This function uses a non-reentrant model
  4522 ;;
  4523                           
  4524     0FC2                     _SYSTEM_Initialize:	
  4525                           ;psect for function _SYSTEM_Initialize
  4526                           
  4527     0FC2                     l3627:	
  4528                           ;incstack = 0
  4529                           ; Regs used in _SYSTEM_Initialize: [wreg+status,2+status,0+pclath+cstack]
  4530                           
  4531                           
  4532                           ;mcc_generated_files/mcc.c: 53:     PIN_MANAGER_Initialize();
  4533     0FC2  318F  2770  318F   	fcall	_PIN_MANAGER_Initialize
  4534                           
  4535                           ;mcc_generated_files/mcc.c: 54:     OSCILLATOR_Initialize();
  4536     0FC5  3187  27F4  318F   	fcall	_OSCILLATOR_Initialize
  4537                           
  4538                           ;mcc_generated_files/mcc.c: 55:     WDT_Initialize();
  4539     0FC8  318D  25AF  318F   	fcall	_WDT_Initialize
  4540                           
  4541                           ;mcc_generated_files/mcc.c: 56:     TMR6_Initialize();
  4542     0FCB  318E  2636  318F   	fcall	_TMR6_Initialize
  4543                           
  4544                           ;mcc_generated_files/mcc.c: 57:     PWM5_Initialize();
  4545     0FCE  318E  264B  318F   	fcall	_PWM5_Initialize
  4546                           
  4547                           ;mcc_generated_files/mcc.c: 58:     TMR2_Initialize();
  4548     0FD1  318E  261B  318F   	fcall	_TMR2_Initialize
  4549                           
  4550                           ;mcc_generated_files/mcc.c: 59:     TMR0_Initialize();
  4551     0FD4  318F  278B  318F   	fcall	_TMR0_Initialize
  4552                           
  4553                           ;mcc_generated_files/mcc.c: 60:     EUSART_Initialize();
  4554     0FD7  3186  262C  318F   	fcall	_EUSART_Initialize
  4555                           
  4556                           ;mcc_generated_files/mcc.c: 61:     LIN_Slave_Initialize();
  4557     0FDA  318E  2656  318F   	fcall	_LIN_Slave_Initialize
  4558     0FDD                     l591:
  4559     0FDD  0008               	return
  4560     0FDE                     __end_of_SYSTEM_Initialize:
  4561                           
  4562                           	psect	text6
  4563     0DAF                     __ptext6:	
  4564 ;; *************** function _WDT_Initialize *****************
  4565 ;; Defined at:
  4566 ;;		line 78 in file "mcc_generated_files/mcc.c"
  4567 ;; Parameters:    Size  Location     Type
  4568 ;;		None
  4569 ;; Auto vars:     Size  Location     Type
  4570 ;;		None
  4571 ;; Return value:  Size  Location     Type
  4572 ;;                  1    wreg      void 
  4573 ;; Registers used:
  4574 ;;		wreg
  4575 ;; Tracked objects:
  4576 ;;		On entry : 0/0
  4577 ;;		On exit  : 0/0
  4578 ;;		Unchanged: 0/0
  4579 ;; Data sizes:     COMMON   BANK0   BANK1   BANK2   BANK3   BANK4   BANK5   BANK6
  4580 ;;      Params:         0       0       0       0       0       0       0       0
  4581 ;;      Locals:         0       0       0       0       0       0       0       0
  4582 ;;      Temps:          0       0       0       0       0       0       0       0
  4583 ;;      Totals:         0       0       0       0       0       0       0       0
  4584 ;;Total ram usage:        0 bytes
  4585 ;; Hardware stack levels used: 1
  4586 ;; Hardware stack levels required when called: 4
  4587 ;; This function calls:
  4588 ;;		Nothing
  4589 ;; This function is called by:
  4590 ;;		_SYSTEM_Initialize
  4591 ;; This function uses a non-reentrant model
  4592 ;;
  4593                           
  4594     0DAF                     _WDT_Initialize:	
  4595                           ;psect for function _WDT_Initialize
  4596                           
  4597     0DAF                     l3381:	
  4598                           ;incstack = 0
  4599                           ; Regs used in _WDT_Initialize: [wreg]
  4600                           
  4601                           
  4602                           ;mcc_generated_files/mcc.c: 81:     WDTCON = 0x16;
  4603     0DAF  3016               	movlw	22
  4604     0DB0  0021               	movlb	1	; select bank1
  4605     0DB1  0097               	movwf	23	;volatile
  4606     0DB2                     l600:
  4607     0DB2  0008               	return
  4608     0DB3                     __end_of_WDT_Initialize:
  4609                           
  4610                           	psect	text7
  4611     0E36                     __ptext7:	
  4612 ;; *************** function _TMR6_Initialize *****************
  4613 ;; Defined at:
  4614 ;;		line 62 in file "mcc_generated_files/tmr6.c"
  4615 ;; Parameters:    Size  Location     Type
  4616 ;;		None
  4617 ;; Auto vars:     Size  Location     Type
  4618 ;;		None
  4619 ;; Return value:  Size  Location     Type
  4620 ;;                  1    wreg      void 
  4621 ;; Registers used:
  4622 ;;		wreg, status,2
  4623 ;; Tracked objects:
  4624 ;;		On entry : 0/0
  4625 ;;		On exit  : 0/0
  4626 ;;		Unchanged: 0/0
  4627 ;; Data sizes:     COMMON   BANK0   BANK1   BANK2   BANK3   BANK4   BANK5   BANK6
  4628 ;;      Params:         0       0       0       0       0       0       0       0
  4629 ;;      Locals:         0       0       0       0       0       0       0       0
  4630 ;;      Temps:          0       0       0       0       0       0       0       0
  4631 ;;      Totals:         0       0       0       0       0       0       0       0
  4632 ;;Total ram usage:        0 bytes
  4633 ;; Hardware stack levels used: 1
  4634 ;; Hardware stack levels required when called: 4
  4635 ;; This function calls:
  4636 ;;		Nothing
  4637 ;; This function is called by:
  4638 ;;		_SYSTEM_Initialize
  4639 ;; This function uses a non-reentrant model
  4640 ;;
  4641                           
  4642     0E36                     _TMR6_Initialize:	
  4643                           ;psect for function _TMR6_Initialize
  4644                           
  4645     0E36                     l3383:	
  4646                           ;incstack = 0
  4647                           ; Regs used in _TMR6_Initialize: [wreg+status,2]
  4648                           
  4649                           
  4650                           ;mcc_generated_files/tmr6.c: 67:     PR6 = 0x27;
  4651     0E36  3027               	movlw	39
  4652     0E37  0028               	movlb	8	; select bank8
  4653     0E38  009D               	movwf	29	;volatile
  4654     0E39                     l3385:
  4655                           
  4656                           ;mcc_generated_files/tmr6.c: 70:     TMR6 = 0x00;
  4657     0E39  019C               	clrf	28	;volatile
  4658     0E3A                     l3387:
  4659                           
  4660                           ;mcc_generated_files/tmr6.c: 73:     PIR3bits.TMR6IF = 0;
  4661     0E3A  0020               	movlb	0	; select bank0
  4662     0E3B  1193               	bcf	19,3	;volatile
  4663     0E3C                     l3389:
  4664                           
  4665                           ;mcc_generated_files/tmr6.c: 76:     T6CON = 0x04;
  4666     0E3C  3004               	movlw	4
  4667     0E3D  0028               	movlb	8	; select bank8
  4668     0E3E  009E               	movwf	30	;volatile
  4669     0E3F                     l635:
  4670     0E3F  0008               	return
  4671     0E40                     __end_of_TMR6_Initialize:
  4672                           
  4673                           	psect	text8
  4674     0E1B                     __ptext8:	
  4675 ;; *************** function _TMR2_Initialize *****************
  4676 ;; Defined at:
  4677 ;;		line 62 in file "mcc_generated_files/tmr2.c"
  4678 ;; Parameters:    Size  Location     Type
  4679 ;;		None
  4680 ;; Auto vars:     Size  Location     Type
  4681 ;;		None
  4682 ;; Return value:  Size  Location     Type
  4683 ;;                  1    wreg      void 
  4684 ;; Registers used:
  4685 ;;		wreg, status,2
  4686 ;; Tracked objects:
  4687 ;;		On entry : 0/0
  4688 ;;		On exit  : 0/0
  4689 ;;		Unchanged: 0/0
  4690 ;; Data sizes:     COMMON   BANK0   BANK1   BANK2   BANK3   BANK4   BANK5   BANK6
  4691 ;;      Params:         0       0       0       0       0       0       0       0
  4692 ;;      Locals:         0       0       0       0       0       0       0       0
  4693 ;;      Temps:          0       0       0       0       0       0       0       0
  4694 ;;      Totals:         0       0       0       0       0       0       0       0
  4695 ;;Total ram usage:        0 bytes
  4696 ;; Hardware stack levels used: 1
  4697 ;; Hardware stack levels required when called: 4
  4698 ;; This function calls:
  4699 ;;		Nothing
  4700 ;; This function is called by:
  4701 ;;		_SYSTEM_Initialize
  4702 ;; This function uses a non-reentrant model
  4703 ;;
  4704                           
  4705     0E1B                     _TMR2_Initialize:	
  4706                           ;psect for function _TMR2_Initialize
  4707                           
  4708     0E1B                     l3399:	
  4709                           ;incstack = 0
  4710                           ; Regs used in _TMR2_Initialize: [wreg+status,2]
  4711                           
  4712                           
  4713                           ;mcc_generated_files/tmr2.c: 67:     PR2 = 0x63;
  4714     0E1B  3063               	movlw	99
  4715     0E1C  0020               	movlb	0	; select bank0
  4716     0E1D  009B               	movwf	27	;volatile
  4717     0E1E                     l3401:
  4718                           
  4719                           ;mcc_generated_files/tmr2.c: 70:     TMR2 = 0x00;
  4720     0E1E  019A               	clrf	26	;volatile
  4721     0E1F                     l3403:
  4722                           
  4723                           ;mcc_generated_files/tmr2.c: 73:     PIR1bits.TMR2IF = 0;
  4724     0E1F  1091               	bcf	17,1	;volatile
  4725     0E20                     l3405:
  4726                           
  4727                           ;mcc_generated_files/tmr2.c: 76:     T2CON = 0x3C;
  4728     0E20  303C               	movlw	60
  4729     0E21  009C               	movwf	28	;volatile
  4730     0E22                     l611:
  4731     0E22  0008               	return
  4732     0E23                     __end_of_TMR2_Initialize:
  4733                           
  4734                           	psect	text9
  4735     0F8B                     __ptext9:	
  4736 ;; *************** function _TMR0_Initialize *****************
  4737 ;; Defined at:
  4738 ;;		line 68 in file "mcc_generated_files/tmr0.c"
  4739 ;; Parameters:    Size  Location     Type
  4740 ;;		None
  4741 ;; Auto vars:     Size  Location     Type
  4742 ;;		None
  4743 ;; Return value:  Size  Location     Type
  4744 ;;                  1    wreg      void 
  4745 ;; Registers used:
  4746 ;;		wreg, status,2, status,0, pclath, cstack
  4747 ;; Tracked objects:
  4748 ;;		On entry : 0/0
  4749 ;;		On exit  : 0/0
  4750 ;;		Unchanged: 0/0
  4751 ;; Data sizes:     COMMON   BANK0   BANK1   BANK2   BANK3   BANK4   BANK5   BANK6
  4752 ;;      Params:         0       0       0       0       0       0       0       0
  4753 ;;      Locals:         0       0       0       0       0       0       0       0
  4754 ;;      Temps:          0       0       0       0       0       0       0       0
  4755 ;;      Totals:         0       0       0       0       0       0       0       0
  4756 ;;Total ram usage:        0 bytes
  4757 ;; Hardware stack levels used: 1
  4758 ;; Hardware stack levels required when called: 5
  4759 ;; This function calls:
  4760 ;;		_TMR0_ReadTimer
  4761 ;;		_TMR0_SetInterruptHandler
  4762 ;;		_TMR0_WriteTimer
  4763 ;; This function is called by:
  4764 ;;		_SYSTEM_Initialize
  4765 ;; This function uses a non-reentrant model
  4766 ;;
  4767                           
  4768     0F8B                     _TMR0_Initialize:	
  4769                           ;psect for function _TMR0_Initialize
  4770                           
  4771     0F8B                     l3359:	
  4772                           ;incstack = 0
  4773                           ; Regs used in _TMR0_Initialize: [wreg+status,2+status,0+pclath+cstack]
  4774                           
  4775                           
  4776                           ;mcc_generated_files/tmr0.c: 73:   OPTION_REG = (uint8_t)((OPTION_REG & 0xC0) | (0xD4 & 
      +                          0x3F));
  4777     0F8B  0021               	movlb	1	; select bank1
  4778     0F8C  0815               	movf	21,w	;volatile
  4779     0F8D  39C0               	andlw	192
  4780     0F8E  3814               	iorlw	20
  4781     0F8F  0095               	movwf	21	;volatile
  4782     0F90                     l3361:
  4783                           
  4784                           ;mcc_generated_files/tmr0.c: 76:   TMR0 = 0x06;
  4785     0F90  3006               	movlw	6
  4786     0F91  0020               	movlb	0	; select bank0
  4787     0F92  0095               	movwf	21	;volatile
  4788     0F93                     l3363:
  4789                           
  4790                           ;mcc_generated_files/tmr0.c: 79:   timer0ReloadVal = 6;
  4791     0F93  3006               	movlw	6
  4792     0F94  00BC               	movwf	_timer0ReloadVal	;volatile
  4793     0F95                     l3365:
  4794                           
  4795                           ;mcc_generated_files/tmr0.c: 81:   TMR0_WriteTimer(timer0ReloadVal);
  4796     0F95  083C               	movf	_timer0ReloadVal,w	;volatile
  4797     0F96  318D  25C2  318F   	fcall	_TMR0_WriteTimer
  4798     0F99                     l3367:
  4799                           
  4800                           ;mcc_generated_files/tmr0.c: 82:   TMR0_ReadTimer();
  4801     0F99  318D  2594  318F   	fcall	_TMR0_ReadTimer
  4802     0F9C                     l3369:
  4803                           
  4804                           ;mcc_generated_files/tmr0.c: 85:   INTCONbits.TMR0IF = 0;
  4805     0F9C  110B               	bcf	11,2	;volatile
  4806     0F9D                     l3371:
  4807                           
  4808                           ;mcc_generated_files/tmr0.c: 88:   INTCONbits.TMR0IE = 1;
  4809     0F9D  168B               	bsf	11,5	;volatile
  4810     0F9E                     l3373:
  4811                           
  4812                           ;mcc_generated_files/tmr0.c: 91:   TMR0_SetInterruptHandler(TMR0_DefaultInterruptHandler
      +                          );
  4813     0F9E  3087               	movlw	low _TMR0_DefaultInterruptHandler
  4814     0F9F  00F1               	movwf	TMR0_SetInterruptHandler@InterruptHandler
  4815     0FA0  300D               	movlw	high _TMR0_DefaultInterruptHandler
  4816     0FA1  00F2               	movwf	TMR0_SetInterruptHandler@InterruptHandler+1
  4817     0FA2  318D  25EB  318F   	fcall	_TMR0_SetInterruptHandler
  4818     0FA5                     l508:
  4819     0FA5  0008               	return
  4820     0FA6                     __end_of_TMR0_Initialize:
  4821                           
  4822                           	psect	text10
  4823     0DC2                     __ptext10:	
  4824 ;; *************** function _TMR0_WriteTimer *****************
  4825 ;; Defined at:
  4826 ;;		line 101 in file "mcc_generated_files/tmr0.c"
  4827 ;; Parameters:    Size  Location     Type
  4828 ;;  timerVal        1    wreg     unsigned char 
  4829 ;; Auto vars:     Size  Location     Type
  4830 ;;  timerVal        1    1[COMMON] unsigned char 
  4831 ;; Return value:  Size  Location     Type
  4832 ;;                  1    wreg      void 
  4833 ;; Registers used:
  4834 ;;		wreg
  4835 ;; Tracked objects:
  4836 ;;		On entry : 0/0
  4837 ;;		On exit  : 0/0
  4838 ;;		Unchanged: 0/0
  4839 ;; Data sizes:     COMMON   BANK0   BANK1   BANK2   BANK3   BANK4   BANK5   BANK6
  4840 ;;      Params:         0       0       0       0       0       0       0       0
  4841 ;;      Locals:         1       0       0       0       0       0       0       0
  4842 ;;      Temps:          0       0       0       0       0       0       0       0
  4843 ;;      Totals:         1       0       0       0       0       0       0       0
  4844 ;;Total ram usage:        1 bytes
  4845 ;; Hardware stack levels used: 1
  4846 ;; Hardware stack levels required when called: 4
  4847 ;; This function calls:
  4848 ;;		Nothing
  4849 ;; This function is called by:
  4850 ;;		_TMR0_Initialize
  4851 ;; This function uses a non-reentrant model
  4852 ;;
  4853                           
  4854     0DC2                     _TMR0_WriteTimer:	
  4855                           ;psect for function _TMR0_WriteTimer
  4856                           
  4857                           
  4858                           ;incstack = 0
  4859                           ; Regs used in _TMR0_WriteTimer: [wreg]
  4860                           ;TMR0_WriteTimer@timerVal stored from wreg
  4861     0DC2  00F1               	movwf	TMR0_WriteTimer@timerVal
  4862     0DC3                     l3107:
  4863                           
  4864                           ;mcc_generated_files/tmr0.c: 103:   TMR0 = timerVal;
  4865     0DC3  0871               	movf	TMR0_WriteTimer@timerVal,w
  4866     0DC4  0020               	movlb	0	; select bank0
  4867     0DC5  0095               	movwf	21	;volatile
  4868     0DC6                     l514:
  4869     0DC6  0008               	return
  4870     0DC7                     __end_of_TMR0_WriteTimer:
  4871                           
  4872                           	psect	text11
  4873     0D94                     __ptext11:	
  4874 ;; *************** function _TMR0_ReadTimer *****************
  4875 ;; Defined at:
  4876 ;;		line 94 in file "mcc_generated_files/tmr0.c"
  4877 ;; Parameters:    Size  Location     Type
  4878 ;;		None
  4879 ;; Auto vars:     Size  Location     Type
  4880 ;;  readVal         1    0        unsigned char 
  4881 ;; Return value:  Size  Location     Type
  4882 ;;                  1    wreg      unsigned char 
  4883 ;; Registers used:
  4884 ;;		wreg
  4885 ;; Tracked objects:
  4886 ;;		On entry : 0/0
  4887 ;;		On exit  : 0/0
  4888 ;;		Unchanged: 0/0
  4889 ;; Data sizes:     COMMON   BANK0   BANK1   BANK2   BANK3   BANK4   BANK5   BANK6
  4890 ;;      Params:         0       0       0       0       0       0       0       0
  4891 ;;      Locals:         0       0       0       0       0       0       0       0
  4892 ;;      Temps:          0       0       0       0       0       0       0       0
  4893 ;;      Totals:         0       0       0       0       0       0       0       0
  4894 ;;Total ram usage:        0 bytes
  4895 ;; Hardware stack levels used: 1
  4896 ;; Hardware stack levels required when called: 4
  4897 ;; This function calls:
  4898 ;;		Nothing
  4899 ;; This function is called by:
  4900 ;;		_TMR0_Initialize
  4901 ;; This function uses a non-reentrant model
  4902 ;;
  4903                           
  4904     0D94                     _TMR0_ReadTimer:	
  4905                           ;psect for function _TMR0_ReadTimer
  4906                           
  4907     0D94                     l3109:	
  4908                           ;incstack = 0
  4909                           ; Regs used in _TMR0_ReadTimer: [wreg]
  4910                           
  4911     0D94  0020               	movlb	0	; select bank0
  4912     0D95  0815               	movf	21,w	;volatile
  4913     0D96                     l511:
  4914     0D96  0008               	return
  4915     0D97                     __end_of_TMR0_ReadTimer:
  4916                           
  4917                           	psect	text12
  4918     0E4B                     __ptext12:	
  4919 ;; *************** function _PWM5_Initialize *****************
  4920 ;; Defined at:
  4921 ;;		line 64 in file "mcc_generated_files/pwm5.c"
  4922 ;; Parameters:    Size  Location     Type
  4923 ;;		None
  4924 ;; Auto vars:     Size  Location     Type
  4925 ;;		None
  4926 ;; Return value:  Size  Location     Type
  4927 ;;                  1    wreg      void 
  4928 ;; Registers used:
  4929 ;;		wreg, status,2, status,0
  4930 ;; Tracked objects:
  4931 ;;		On entry : 0/0
  4932 ;;		On exit  : 0/0
  4933 ;;		Unchanged: 0/0
  4934 ;; Data sizes:     COMMON   BANK0   BANK1   BANK2   BANK3   BANK4   BANK5   BANK6
  4935 ;;      Params:         0       0       0       0       0       0       0       0
  4936 ;;      Locals:         0       0       0       0       0       0       0       0
  4937 ;;      Temps:          0       0       0       0       0       0       0       0
  4938 ;;      Totals:         0       0       0       0       0       0       0       0
  4939 ;;Total ram usage:        0 bytes
  4940 ;; Hardware stack levels used: 1
  4941 ;; Hardware stack levels required when called: 4
  4942 ;; This function calls:
  4943 ;;		Nothing
  4944 ;; This function is called by:
  4945 ;;		_SYSTEM_Initialize
  4946 ;; This function uses a non-reentrant model
  4947 ;;
  4948                           
  4949     0E4B                     _PWM5_Initialize:	
  4950                           ;psect for function _PWM5_Initialize
  4951                           
  4952     0E4B                     l3391:	
  4953                           ;incstack = 0
  4954                           ; Regs used in _PWM5_Initialize: [wreg+status,2+status,0]
  4955                           
  4956                           
  4957                           ;mcc_generated_files/pwm5.c: 69:  CCP5CON = 0x0C;
  4958     0E4B  300C               	movlw	12
  4959     0E4C  0026               	movlb	6	; select bank6
  4960     0E4D  009E               	movwf	30	;volatile
  4961     0E4E                     l3393:
  4962                           
  4963                           ;mcc_generated_files/pwm5.c: 72:  CCPR5L = 0x00;
  4964     0E4E  019C               	clrf	28	;volatile
  4965     0E4F                     l3395:
  4966                           
  4967                           ;mcc_generated_files/pwm5.c: 75:  CCPR5H = 0x00;
  4968     0E4F  019D               	clrf	29	;volatile
  4969     0E50                     l3397:
  4970                           
  4971                           ;mcc_generated_files/pwm5.c: 78:  CCPTMRS1bits.C5TSEL = 0x2;
  4972     0E50  0025               	movlb	5	; select bank5
  4973     0E51  081F               	movf	31,w	;volatile
  4974     0E52  39FC               	andlw	-4
  4975     0E53  3802               	iorlw	2
  4976     0E54  009F               	movwf	31	;volatile
  4977     0E55                     l622:
  4978     0E55  0008               	return
  4979     0E56                     __end_of_PWM5_Initialize:
  4980                           
  4981                           	psect	text13
  4982     0F70                     __ptext13:	
  4983 ;; *************** function _PIN_MANAGER_Initialize *****************
  4984 ;; Defined at:
  4985 ;;		line 55 in file "mcc_generated_files/pin_manager.c"
  4986 ;; Parameters:    Size  Location     Type
  4987 ;;		None
  4988 ;; Auto vars:     Size  Location     Type
  4989 ;;		None
  4990 ;; Return value:  Size  Location     Type
  4991 ;;                  1    wreg      void 
  4992 ;; Registers used:
  4993 ;;		wreg, status,2
  4994 ;; Tracked objects:
  4995 ;;		On entry : 0/0
  4996 ;;		On exit  : 0/0
  4997 ;;		Unchanged: 0/0
  4998 ;; Data sizes:     COMMON   BANK0   BANK1   BANK2   BANK3   BANK4   BANK5   BANK6
  4999 ;;      Params:         0       0       0       0       0       0       0       0
  5000 ;;      Locals:         0       0       0       0       0       0       0       0
  5001 ;;      Temps:          0       0       0       0       0       0       0       0
  5002 ;;      Totals:         0       0       0       0       0       0       0       0
  5003 ;;Total ram usage:        0 bytes
  5004 ;; Hardware stack levels used: 1
  5005 ;; Hardware stack levels required when called: 4
  5006 ;; This function calls:
  5007 ;;		Nothing
  5008 ;; This function is called by:
  5009 ;;		_SYSTEM_Initialize
  5010 ;; This function uses a non-reentrant model
  5011 ;;
  5012                           
  5013     0F70                     _PIN_MANAGER_Initialize:	
  5014                           ;psect for function _PIN_MANAGER_Initialize
  5015                           
  5016     0F70                     l3305:	
  5017                           ;incstack = 0
  5018                           ; Regs used in _PIN_MANAGER_Initialize: [wreg+status,2]
  5019                           
  5020                           
  5021                           ;mcc_generated_files/pin_manager.c: 60:     LATE = 0x00;
  5022     0F70  0022               	movlb	2	; select bank2
  5023     0F71  0190               	clrf	16	;volatile
  5024                           
  5025                           ;mcc_generated_files/pin_manager.c: 61:     LATA = 0x00;
  5026     0F72  018C               	clrf	12	;volatile
  5027                           
  5028                           ;mcc_generated_files/pin_manager.c: 62:     LATB = 0x00;
  5029     0F73  018D               	clrf	13	;volatile
  5030                           
  5031                           ;mcc_generated_files/pin_manager.c: 63:     LATC = 0x00;
  5032     0F74  018E               	clrf	14	;volatile
  5033     0F75                     l3307:
  5034                           
  5035                           ;mcc_generated_files/pin_manager.c: 68:     TRISE = 0x08;
  5036     0F75  3008               	movlw	8
  5037     0F76  0021               	movlb	1	; select bank1
  5038     0F77  0090               	movwf	16	;volatile
  5039     0F78                     l3309:
  5040                           
  5041                           ;mcc_generated_files/pin_manager.c: 69:     TRISA = 0xEF;
  5042     0F78  30EF               	movlw	239
  5043     0F79  008C               	movwf	12	;volatile
  5044     0F7A                     l3311:
  5045                           
  5046                           ;mcc_generated_files/pin_manager.c: 70:     TRISB = 0xCD;
  5047     0F7A  30CD               	movlw	205
  5048     0F7B  008D               	movwf	13	;volatile
  5049     0F7C                     l3313:
  5050                           
  5051                           ;mcc_generated_files/pin_manager.c: 71:     TRISC = 0xCF;
  5052     0F7C  30CF               	movlw	207
  5053     0F7D  008E               	movwf	14	;volatile
  5054                           
  5055                           ;mcc_generated_files/pin_manager.c: 76:     ANSELB = 0x00;
  5056     0F7E  0023               	movlb	3	; select bank3
  5057     0F7F  018D               	clrf	13	;volatile
  5058     0F80                     l3315:
  5059                           
  5060                           ;mcc_generated_files/pin_manager.c: 77:     ANSELA = 0x37;
  5061     0F80  3037               	movlw	55
  5062     0F81  008C               	movwf	12	;volatile
  5063     0F82                     l3317:
  5064                           
  5065                           ;mcc_generated_files/pin_manager.c: 82:     WPUE = 0x00;
  5066     0F82  0024               	movlb	4	; select bank4
  5067     0F83  0190               	clrf	16	;volatile
  5068                           
  5069                           ;mcc_generated_files/pin_manager.c: 83:     WPUB = 0x08;
  5070     0F84  3008               	movlw	8
  5071     0F85  008D               	movwf	13	;volatile
  5072     0F86                     l3319:
  5073                           
  5074                           ;mcc_generated_files/pin_manager.c: 84:     OPTION_REGbits.nWPUEN = 0;
  5075     0F86  0021               	movlb	1	; select bank1
  5076     0F87  1395               	bcf	21,7	;volatile
  5077     0F88                     l3321:
  5078                           
  5079                           ;mcc_generated_files/pin_manager.c: 90:     APFCON = 0x00;
  5080     0F88  0022               	movlb	2	; select bank2
  5081     0F89  019D               	clrf	29	;volatile
  5082     0F8A                     l343:
  5083     0F8A  0008               	return
  5084     0F8B                     __end_of_PIN_MANAGER_Initialize:
  5085                           
  5086                           	psect	text14
  5087     07F4                     __ptext14:	
  5088 ;; *************** function _OSCILLATOR_Initialize *****************
  5089 ;; Defined at:
  5090 ;;		line 64 in file "mcc_generated_files/mcc.c"
  5091 ;; Parameters:    Size  Location     Type
  5092 ;;		None
  5093 ;; Auto vars:     Size  Location     Type
  5094 ;;		None
  5095 ;; Return value:  Size  Location     Type
  5096 ;;                  1    wreg      void 
  5097 ;; Registers used:
  5098 ;;		wreg, status,2
  5099 ;; Tracked objects:
  5100 ;;		On entry : 0/0
  5101 ;;		On exit  : 0/0
  5102 ;;		Unchanged: 0/0
  5103 ;; Data sizes:     COMMON   BANK0   BANK1   BANK2   BANK3   BANK4   BANK5   BANK6
  5104 ;;      Params:         0       0       0       0       0       0       0       0
  5105 ;;      Locals:         0       0       0       0       0       0       0       0
  5106 ;;      Temps:          0       0       0       0       0       0       0       0
  5107 ;;      Totals:         0       0       0       0       0       0       0       0
  5108 ;;Total ram usage:        0 bytes
  5109 ;; Hardware stack levels used: 1
  5110 ;; Hardware stack levels required when called: 4
  5111 ;; This function calls:
  5112 ;;		Nothing
  5113 ;; This function is called by:
  5114 ;;		_SYSTEM_Initialize
  5115 ;; This function uses a non-reentrant model
  5116 ;;
  5117                           
  5118     07F4                     _OSCILLATOR_Initialize:	
  5119                           ;psect for function _OSCILLATOR_Initialize
  5120                           
  5121     07F4                     l3375:	
  5122                           ;incstack = 0
  5123                           ; Regs used in _OSCILLATOR_Initialize: [wreg+status,2]
  5124                           
  5125                           
  5126                           ;mcc_generated_files/mcc.c: 67:     OSCCON = 0x70;
  5127     07F4  3070               	movlw	112
  5128     07F5  0021               	movlb	1	; select bank1
  5129     07F6  0099               	movwf	25	;volatile
  5130     07F7                     l3377:
  5131                           
  5132                           ;mcc_generated_files/mcc.c: 69:     OSCTUNE = 0x00;
  5133     07F7  0198               	clrf	24	;volatile
  5134     07F8                     l3379:
  5135                           
  5136                           ;mcc_generated_files/mcc.c: 71:     BORCON = 0x00;
  5137     07F8  0022               	movlb	2	; select bank2
  5138     07F9  0196               	clrf	22	;volatile
  5139     07FA                     l594:	
  5140                           ;mcc_generated_files/mcc.c: 74:     {;mcc_generated_files/mcc.c: 75:     }
  5141                           
  5142                           
  5143                           ;mcc_generated_files/mcc.c: 73:     while(PLLR == 0)
  5144     07FA  0021               	movlb	1	; select bank1
  5145     07FB  1F1A               	btfss	26,6	;volatile
  5146     07FC  2FFE               	goto	u2441
  5147     07FD  2FFF               	goto	u2440
  5148     07FE                     u2441:
  5149     07FE  2FFA               	goto	l594
  5150     07FF                     u2440:
  5151     07FF                     l597:
  5152     07FF  0008               	return
  5153     0800                     __end_of_OSCILLATOR_Initialize:
  5154                           
  5155                           	psect	text15
  5156     0E56                     __ptext15:	
  5157 ;; *************** function _LIN_Slave_Initialize *****************
  5158 ;; Defined at:
  5159 ;;		line 207 in file "mcc_generated_files/LINDrivers/lin_app.c"
  5160 ;; Parameters:    Size  Location     Type
  5161 ;;		None
  5162 ;; Auto vars:     Size  Location     Type
  5163 ;;		None
  5164 ;; Return value:  Size  Location     Type
  5165 ;;                  1    wreg      void 
  5166 ;; Registers used:
  5167 ;;		wreg, status,2, status,0, pclath, cstack
  5168 ;; Tracked objects:
  5169 ;;		On entry : 0/0
  5170 ;;		On exit  : 0/0
  5171 ;;		Unchanged: 0/0
  5172 ;; Data sizes:     COMMON   BANK0   BANK1   BANK2   BANK3   BANK4   BANK5   BANK6
  5173 ;;      Params:         0       0       0       0       0       0       0       0
  5174 ;;      Locals:         0       0       0       0       0       0       0       0
  5175 ;;      Temps:          0       0       0       0       0       0       0       0
  5176 ;;      Totals:         0       0       0       0       0       0       0       0
  5177 ;;Total ram usage:        0 bytes
  5178 ;; Hardware stack levels used: 1
  5179 ;; Hardware stack levels required when called: 7
  5180 ;; This function calls:
  5181 ;;		_LIN_init
  5182 ;; This function is called by:
  5183 ;;		_SYSTEM_Initialize
  5184 ;; This function uses a non-reentrant model
  5185 ;;
  5186                           
  5187     0E56                     _LIN_Slave_Initialize:	
  5188                           ;psect for function _LIN_Slave_Initialize
  5189                           
  5190     0E56                     l3113:	
  5191                           ;incstack = 0
  5192                           ; Regs used in _LIN_Slave_Initialize: [wreg+status,2+status,0+pclath+cstack]
  5193                           
  5194                           
  5195                           ;mcc_generated_files/LINDrivers/lin_app.c: 209:   LIN_init((sizeof(scheduleTable)/sizeof
      +                          (lin_rx_cmd_t)), scheduleTable, processLIN);
  5196     0E56  3000               	movlw	low (_scheduleTable| (0+32768))
  5197     0E57  00F3               	movwf	LIN_init@command
  5198     0E58  3090               	movlw	high (_scheduleTable| (0+32768))
  5199     0E59  00F4               	movwf	LIN_init@command+1
  5200     0E5A  306B               	movlw	low _processLIN
  5201     0E5B  00F5               	movwf	LIN_init@processData
  5202     0E5C  3001               	movlw	high _processLIN
  5203     0E5D  00F6               	movwf	LIN_init@processData+1
  5204     0E5E  3001               	movlw	1
  5205     0E5F  318E  26BD  318E   	fcall	_LIN_init
  5206     0E62                     l93:
  5207     0E62  0008               	return
  5208     0E63                     __end_of_LIN_Slave_Initialize:
  5209                           
  5210                           	psect	text16
  5211     0EBD                     __ptext16:	
  5212 ;; *************** function _LIN_init *****************
  5213 ;; Defined at:
  5214 ;;		line 61 in file "mcc_generated_files/LINDrivers/lin_slave.c"
  5215 ;; Parameters:    Size  Location     Type
  5216 ;;  tableLength     1    wreg     unsigned char 
  5217 ;;  command         2    3[COMMON] const PTR const struct .
  5218 ;;		 -> scheduleTable(4), 
  5219 ;;  processData     2    5[COMMON] PTR FTN()void 
  5220 ;;		 -> processLIN(1), 
  5221 ;; Auto vars:     Size  Location     Type
  5222 ;;  tableLength     1    7[COMMON] unsigned char 
  5223 ;; Return value:  Size  Location     Type
  5224 ;;                  1    wreg      void 
  5225 ;; Registers used:
  5226 ;;		wreg, status,2, status,0, pclath, cstack
  5227 ;; Tracked objects:
  5228 ;;		On entry : 0/0
  5229 ;;		On exit  : 0/0
  5230 ;;		Unchanged: 0/0
  5231 ;; Data sizes:     COMMON   BANK0   BANK1   BANK2   BANK3   BANK4   BANK5   BANK6
  5232 ;;      Params:         4       0       0       0       0       0       0       0
  5233 ;;      Locals:         1       0       0       0       0       0       0       0
  5234 ;;      Temps:          0       0       0       0       0       0       0       0
  5235 ;;      Totals:         5       0       0       0       0       0       0       0
  5236 ;;Total ram usage:        5 bytes
  5237 ;; Hardware stack levels used: 1
  5238 ;; Hardware stack levels required when called: 6
  5239 ;; This function calls:
  5240 ;;		_LIN_enableRx
  5241 ;;		_LIN_setTimerHandler
  5242 ;;		_LIN_stopTimer
  5243 ;; This function is called by:
  5244 ;;		_LIN_Slave_Initialize
  5245 ;; This function uses a non-reentrant model
  5246 ;;
  5247                           
  5248     0EBD                     _LIN_init:	
  5249                           ;psect for function _LIN_init
  5250                           
  5251                           
  5252                           ;incstack = 0
  5253                           ; Regs used in _LIN_init: [wreg+status,2+status,0+pclath+cstack]
  5254                           ;LIN_init@tableLength stored from wreg
  5255     0EBD  00F7               	movwf	LIN_init@tableLength
  5256     0EBE                     l2975:
  5257                           
  5258                           ;mcc_generated_files/LINDrivers/lin_slave.c: 61: void LIN_init(uint8_t tableLength, cons
      +                          t lin_rx_cmd_t *const command,;mcc_generated_files/LINDrivers/lin_slave.c: 62:          
      +                               void (*processData)(void)) {;mcc_generated_files/LINDrivers/lin_slave.c: 63:   LIN_
      +                          rxCommand = command;
  5259     0EBE  0874               	movf	LIN_init@command+1,w
  5260     0EBF  0020               	movlb	0	; select bank0
  5261     0EC0  00AF               	movwf	_LIN_rxCommand+1
  5262     0EC1  0873               	movf	LIN_init@command,w
  5263     0EC2  00AE               	movwf	_LIN_rxCommand
  5264                           
  5265                           ;mcc_generated_files/LINDrivers/lin_slave.c: 64:   LIN_rxCommandLength = tableLength;
  5266     0EC3  0877               	movf	LIN_init@tableLength,w
  5267     0EC4  00C7               	movwf	_LIN_rxCommandLength
  5268                           
  5269                           ;mcc_generated_files/LINDrivers/lin_slave.c: 65:   LIN_processData = processData;
  5270     0EC5  0876               	movf	LIN_init@processData+1,w
  5271     0EC6  00B1               	movwf	_LIN_processData+1
  5272     0EC7  0875               	movf	LIN_init@processData,w
  5273     0EC8  00B0               	movwf	_LIN_processData
  5274     0EC9                     l2977:
  5275                           
  5276                           ;mcc_generated_files/LINDrivers/lin_slave.c: 66:   LIN_stopTimer();
  5277     0EC9  318D  25A3  318E   	fcall	_LIN_stopTimer
  5278     0ECC                     l2979:
  5279                           
  5280                           ;mcc_generated_files/LINDrivers/lin_slave.c: 67:   LIN_enableRx();
  5281     0ECC  318D  25BD  318E   	fcall	_LIN_enableRx
  5282     0ECF                     l2981:
  5283                           
  5284                           ;mcc_generated_files/LINDrivers/lin_slave.c: 68:   LIN_setTimerHandler();
  5285     0ECF  318E  2613  318E   	fcall	_LIN_setTimerHandler
  5286     0ED2                     l205:
  5287     0ED2  0008               	return
  5288     0ED3                     __end_of_LIN_init:
  5289                           
  5290                           	psect	text17
  5291     0E13                     __ptext17:	
  5292 ;; *************** function _LIN_setTimerHandler *****************
  5293 ;; Defined at:
  5294 ;;		line 330 in file "mcc_generated_files/LINDrivers/lin_slave.c"
  5295 ;; Parameters:    Size  Location     Type
  5296 ;;		None
  5297 ;; Auto vars:     Size  Location     Type
  5298 ;;		None
  5299 ;; Return value:  Size  Location     Type
  5300 ;;                  1    wreg      void 
  5301 ;; Registers used:
  5302 ;;		wreg, status,2, status,0, pclath, cstack
  5303 ;; Tracked objects:
  5304 ;;		On entry : 0/0
  5305 ;;		On exit  : 0/0
  5306 ;;		Unchanged: 0/0
  5307 ;; Data sizes:     COMMON   BANK0   BANK1   BANK2   BANK3   BANK4   BANK5   BANK6
  5308 ;;      Params:         0       0       0       0       0       0       0       0
  5309 ;;      Locals:         0       0       0       0       0       0       0       0
  5310 ;;      Temps:          0       0       0       0       0       0       0       0
  5311 ;;      Totals:         0       0       0       0       0       0       0       0
  5312 ;;Total ram usage:        0 bytes
  5313 ;; Hardware stack levels used: 1
  5314 ;; Hardware stack levels required when called: 5
  5315 ;; This function calls:
  5316 ;;		_TMR0_SetInterruptHandler
  5317 ;; This function is called by:
  5318 ;;		_LIN_init
  5319 ;; This function uses a non-reentrant model
  5320 ;;
  5321                           
  5322     0E13                     _LIN_setTimerHandler:	
  5323                           ;psect for function _LIN_setTimerHandler
  5324                           
  5325     0E13                     l2883:	
  5326                           ;incstack = 0
  5327                           ; Regs used in _LIN_setTimerHandler: [wreg+status,2+status,0+pclath+cstack]
  5328                           
  5329     0E13  3063               	movlw	low _LIN_timerHandler
  5330     0E14  00F1               	movwf	TMR0_SetInterruptHandler@InterruptHandler
  5331     0E15  300E               	movlw	high _LIN_timerHandler
  5332     0E16  00F2               	movwf	TMR0_SetInterruptHandler@InterruptHandler+1
  5333     0E17  318D  25EB  318E   	fcall	_TMR0_SetInterruptHandler
  5334     0E1A                     l299:
  5335     0E1A  0008               	return
  5336     0E1B                     __end_of_LIN_setTimerHandler:
  5337                           
  5338                           	psect	text18
  5339     0DEB                     __ptext18:	
  5340 ;; *************** function _TMR0_SetInterruptHandler *****************
  5341 ;; Defined at:
  5342 ;;		line 127 in file "mcc_generated_files/tmr0.c"
  5343 ;; Parameters:    Size  Location     Type
  5344 ;;  InterruptHan    2    1[COMMON] PTR FTN()void 
  5345 ;;		 -> TMR0_DefaultInterruptHandler(1), LIN_timerHandler(1), 
  5346 ;; Auto vars:     Size  Location     Type
  5347 ;;		None
  5348 ;; Return value:  Size  Location     Type
  5349 ;;                  1    wreg      void 
  5350 ;; Registers used:
  5351 ;;		wreg
  5352 ;; Tracked objects:
  5353 ;;		On entry : 0/0
  5354 ;;		On exit  : 0/0
  5355 ;;		Unchanged: 0/0
  5356 ;; Data sizes:     COMMON   BANK0   BANK1   BANK2   BANK3   BANK4   BANK5   BANK6
  5357 ;;      Params:         2       0       0       0       0       0       0       0
  5358 ;;      Locals:         0       0       0       0       0       0       0       0
  5359 ;;      Temps:          0       0       0       0       0       0       0       0
  5360 ;;      Totals:         2       0       0       0       0       0       0       0
  5361 ;;Total ram usage:        2 bytes
  5362 ;; Hardware stack levels used: 1
  5363 ;; Hardware stack levels required when called: 4
  5364 ;; This function calls:
  5365 ;;		Nothing
  5366 ;; This function is called by:
  5367 ;;		_LIN_setTimerHandler
  5368 ;;		_TMR0_Initialize
  5369 ;; This function uses a non-reentrant model
  5370 ;;
  5371                           
  5372     0DEB                     _TMR0_SetInterruptHandler:	
  5373                           ;psect for function _TMR0_SetInterruptHandler
  5374                           
  5375     0DEB                     l2813:	
  5376                           ;incstack = 0
  5377                           ; Regs used in _TMR0_SetInterruptHandler: [wreg]
  5378                           
  5379                           
  5380                           ;mcc_generated_files/tmr0.c: 128:   TMR0_InterruptHandler = InterruptHandler;
  5381     0DEB  0872               	movf	TMR0_SetInterruptHandler@InterruptHandler+1,w
  5382     0DEC  0020               	movlb	0	; select bank0
  5383     0DED  00A3               	movwf	_TMR0_InterruptHandler+1
  5384     0DEE  0871               	movf	TMR0_SetInterruptHandler@InterruptHandler,w
  5385     0DEF  00A2               	movwf	_TMR0_InterruptHandler
  5386     0DF0                     l524:
  5387     0DF0  0008               	return
  5388     0DF1                     __end_of_TMR0_SetInterruptHandler:
  5389                           
  5390                           	psect	text19
  5391     062C                     __ptext19:	
  5392 ;; *************** function _EUSART_Initialize *****************
  5393 ;; Defined at:
  5394 ;;		line 98 in file "mcc_generated_files/eusart.c"
  5395 ;; Parameters:    Size  Location     Type
  5396 ;;		None
  5397 ;; Auto vars:     Size  Location     Type
  5398 ;;		None
  5399 ;; Return value:  Size  Location     Type
  5400 ;;                  1    wreg      void 
  5401 ;; Registers used:
  5402 ;;		wreg, status,2, status,0, pclath, cstack
  5403 ;; Tracked objects:
  5404 ;;		On entry : 0/0
  5405 ;;		On exit  : 0/0
  5406 ;;		Unchanged: 0/0
  5407 ;; Data sizes:     COMMON   BANK0   BANK1   BANK2   BANK3   BANK4   BANK5   BANK6
  5408 ;;      Params:         0       0       0       0       0       0       0       0
  5409 ;;      Locals:         0       0       0       0       0       0       0       0
  5410 ;;      Temps:          0       0       0       0       0       0       0       0
  5411 ;;      Totals:         0       0       0       0       0       0       0       0
  5412 ;;Total ram usage:        0 bytes
  5413 ;; Hardware stack levels used: 1
  5414 ;; Hardware stack levels required when called: 5
  5415 ;; This function calls:
  5416 ;;		_EUSART_SetErrorHandler
  5417 ;;		_EUSART_SetFramingErrorHandler
  5418 ;;		_EUSART_SetOverrunErrorHandler
  5419 ;;		_EUSART_SetRxInterruptHandler
  5420 ;;		_EUSART_SetTxInterruptHandler
  5421 ;; This function is called by:
  5422 ;;		_SYSTEM_Initialize
  5423 ;; This function uses a non-reentrant model
  5424 ;;
  5425                           
  5426     062C                     _EUSART_Initialize:	
  5427                           ;psect for function _EUSART_Initialize
  5428                           
  5429     062C                     l3323:	
  5430                           ;incstack = 0
  5431                           ; Regs used in _EUSART_Initialize: [wreg+status,2+status,0+pclath+cstack]
  5432                           
  5433                           
  5434                           ;mcc_generated_files/eusart.c: 101:     PIE1bits.RCIE = 0;
  5435     062C  0021               	movlb	1	; select bank1
  5436     062D  1291               	bcf	17,5	;volatile
  5437     062E                     l3325:
  5438                           
  5439                           ;mcc_generated_files/eusart.c: 102:     EUSART_SetRxInterruptHandler(EUSART_Receive_ISR)
      +                          ;
  5440     062E  306A               	movlw	low _EUSART_Receive_ISR
  5441     062F  00F1               	movwf	EUSART_SetRxInterruptHandler@interruptHandler
  5442     0630  3006               	movlw	high _EUSART_Receive_ISR
  5443     0631  00F2               	movwf	EUSART_SetRxInterruptHandler@interruptHandler+1
  5444     0632  318D  25DF  3186   	fcall	_EUSART_SetRxInterruptHandler
  5445     0635                     l3327:
  5446                           
  5447                           ;mcc_generated_files/eusart.c: 103:     PIE1bits.TXIE = 0;
  5448     0635  0021               	movlb	1	; select bank1
  5449     0636  1211               	bcf	17,4	;volatile
  5450                           
  5451                           ;mcc_generated_files/eusart.c: 104:     EUSART_SetTxInterruptHandler(EUSART_Transmit_ISR
      +                          );
  5452     0637  30DE               	movlw	low _EUSART_Transmit_ISR
  5453     0638  00F1               	movwf	EUSART_SetTxInterruptHandler@interruptHandler
  5454     0639  300F               	movlw	high _EUSART_Transmit_ISR
  5455     063A  00F2               	movwf	EUSART_SetTxInterruptHandler@interruptHandler+1
  5456     063B  318D  25E5  3186   	fcall	_EUSART_SetTxInterruptHandler
  5457     063E                     l3329:
  5458                           
  5459                           ;mcc_generated_files/eusart.c: 108:     BAUDCON = 0x18;
  5460     063E  3018               	movlw	24
  5461     063F  0023               	movlb	3	; select bank3
  5462     0640  009F               	movwf	31	;volatile
  5463     0641                     l3331:
  5464                           
  5465                           ;mcc_generated_files/eusart.c: 111:     RCSTA = 0x90;
  5466     0641  3090               	movlw	144
  5467     0642  009D               	movwf	29	;volatile
  5468     0643                     l3333:
  5469                           
  5470                           ;mcc_generated_files/eusart.c: 114:     TXSTA = 0x04;
  5471     0643  3004               	movlw	4
  5472     0644  009E               	movwf	30	;volatile
  5473     0645                     l3335:
  5474                           
  5475                           ;mcc_generated_files/eusart.c: 117:     SPBRGL = 0xFF;
  5476     0645  30FF               	movlw	255
  5477     0646  009B               	movwf	27	;volatile
  5478     0647                     l3337:
  5479                           
  5480                           ;mcc_generated_files/eusart.c: 120:     SPBRGH = 0x02;
  5481     0647  3002               	movlw	2
  5482     0648  009C               	movwf	28	;volatile
  5483     0649                     l3339:
  5484                           
  5485                           ;mcc_generated_files/eusart.c: 123:     EUSART_SetFramingErrorHandler(EUSART_DefaultFram
      +                          ingErrorHandler);
  5486     0649  3086               	movlw	low _EUSART_DefaultFramingErrorHandler
  5487     064A  00F1               	movwf	EUSART_SetFramingErrorHandler@interruptHandler
  5488     064B  300D               	movlw	high _EUSART_DefaultFramingErrorHandler
  5489     064C  00F2               	movwf	EUSART_SetFramingErrorHandler@interruptHandler+1
  5490     064D  318D  25D3  3186   	fcall	_EUSART_SetFramingErrorHandler
  5491     0650                     l3341:
  5492                           
  5493                           ;mcc_generated_files/eusart.c: 124:     EUSART_SetOverrunErrorHandler(EUSART_DefaultOver
      +                          runErrorHandler);
  5494     0650  309B               	movlw	low _EUSART_DefaultOverrunErrorHandler
  5495     0651  00F1               	movwf	EUSART_SetOverrunErrorHandler@interruptHandler
  5496     0652  300D               	movlw	high _EUSART_DefaultOverrunErrorHandler
  5497     0653  00F2               	movwf	EUSART_SetOverrunErrorHandler@interruptHandler+1
  5498     0654  318D  25D9  3186   	fcall	_EUSART_SetOverrunErrorHandler
  5499     0657                     l3343:
  5500                           
  5501                           ;mcc_generated_files/eusart.c: 125:     EUSART_SetErrorHandler(EUSART_DefaultErrorHandle
      +                          r);
  5502     0657  3097               	movlw	low _EUSART_DefaultErrorHandler
  5503     0658  00F1               	movwf	EUSART_SetErrorHandler@interruptHandler
  5504     0659  300D               	movlw	high _EUSART_DefaultErrorHandler
  5505     065A  00F2               	movwf	EUSART_SetErrorHandler@interruptHandler+1
  5506     065B  318D  25CD  3186   	fcall	_EUSART_SetErrorHandler
  5507     065E                     l3345:
  5508                           
  5509                           ;mcc_generated_files/eusart.c: 127:     eusartRxLastError.status = 0;
  5510     065E  0020               	movlb	0	; select bank0
  5511     065F  01BD               	clrf	_eusartRxLastError	;volatile
  5512     0660                     l3347:
  5513                           
  5514                           ;mcc_generated_files/eusart.c: 130:     eusartTxHead = 0;
  5515     0660  01C2               	clrf	_eusartTxHead	;volatile
  5516     0661                     l3349:
  5517                           
  5518                           ;mcc_generated_files/eusart.c: 131:     eusartTxTail = 0;
  5519     0661  01C1               	clrf	_eusartTxTail	;volatile
  5520     0662                     l3351:
  5521                           
  5522                           ;mcc_generated_files/eusart.c: 132:     eusartTxBufferRemaining = sizeof(eusartTxBuffer)
      +                          ;
  5523     0662  3008               	movlw	8
  5524     0663  00C0               	movwf	_eusartTxBufferRemaining	;volatile
  5525                           
  5526                           ;mcc_generated_files/eusart.c: 134:     eusartRxHead = 0;
  5527     0664  01FC               	clrf	_eusartRxHead	;volatile
  5528                           
  5529                           ;mcc_generated_files/eusart.c: 135:     eusartRxTail = 0;
  5530     0665  01BF               	clrf	_eusartRxTail	;volatile
  5531                           
  5532                           ;mcc_generated_files/eusart.c: 136:     eusartRxCount = 0;
  5533     0666  01BE               	clrf	_eusartRxCount	;volatile
  5534     0667                     l3353:
  5535                           
  5536                           ;mcc_generated_files/eusart.c: 139:     PIE1bits.RCIE = 1;
  5537     0667  0021               	movlb	1	; select bank1
  5538     0668  1691               	bsf	17,5	;volatile
  5539     0669                     l418:
  5540     0669  0008               	return
  5541     066A                     __end_of_EUSART_Initialize:
  5542                           
  5543                           	psect	text20
  5544     0DE5                     __ptext20:	
  5545 ;; *************** function _EUSART_SetTxInterruptHandler *****************
  5546 ;; Defined at:
  5547 ;;		line 304 in file "mcc_generated_files/eusart.c"
  5548 ;; Parameters:    Size  Location     Type
  5549 ;;  interruptHan    2    1[COMMON] PTR FTN()void 
  5550 ;;		 -> EUSART_Transmit_ISR(1), 
  5551 ;; Auto vars:     Size  Location     Type
  5552 ;;		None
  5553 ;; Return value:  Size  Location     Type
  5554 ;;                  1    wreg      void 
  5555 ;; Registers used:
  5556 ;;		wreg
  5557 ;; Tracked objects:
  5558 ;;		On entry : 0/0
  5559 ;;		On exit  : 0/0
  5560 ;;		Unchanged: 0/0
  5561 ;; Data sizes:     COMMON   BANK0   BANK1   BANK2   BANK3   BANK4   BANK5   BANK6
  5562 ;;      Params:         2       0       0       0       0       0       0       0
  5563 ;;      Locals:         0       0       0       0       0       0       0       0
  5564 ;;      Temps:          0       0       0       0       0       0       0       0
  5565 ;;      Totals:         2       0       0       0       0       0       0       0
  5566 ;;Total ram usage:        2 bytes
  5567 ;; Hardware stack levels used: 1
  5568 ;; Hardware stack levels required when called: 4
  5569 ;; This function calls:
  5570 ;;		Nothing
  5571 ;; This function is called by:
  5572 ;;		_EUSART_Initialize
  5573 ;; This function uses a non-reentrant model
  5574 ;;
  5575                           
  5576     0DE5                     _EUSART_SetTxInterruptHandler:	
  5577                           ;psect for function _EUSART_SetTxInterruptHandler
  5578                           
  5579     0DE5                     l3089:	
  5580                           ;incstack = 0
  5581                           ; Regs used in _EUSART_SetTxInterruptHandler: [wreg]
  5582                           
  5583                           
  5584                           ;mcc_generated_files/eusart.c: 305:     EUSART_TxDefaultInterruptHandler = interruptHand
      +                          ler;
  5585     0DE5  0872               	movf	EUSART_SetTxInterruptHandler@interruptHandler+1,w
  5586     0DE6  0020               	movlb	0	; select bank0
  5587     0DE7  00AD               	movwf	_EUSART_TxDefaultInterruptHandler+1
  5588     0DE8  0871               	movf	EUSART_SetTxInterruptHandler@interruptHandler,w
  5589     0DE9  00AC               	movwf	_EUSART_TxDefaultInterruptHandler
  5590     0DEA                     l484:
  5591     0DEA  0008               	return
  5592     0DEB                     __end_of_EUSART_SetTxInterruptHandler:
  5593                           
  5594                           	psect	text21
  5595     0DDF                     __ptext21:	
  5596 ;; *************** function _EUSART_SetRxInterruptHandler *****************
  5597 ;; Defined at:
  5598 ;;		line 308 in file "mcc_generated_files/eusart.c"
  5599 ;; Parameters:    Size  Location     Type
  5600 ;;  interruptHan    2    1[COMMON] PTR FTN()void 
  5601 ;;		 -> EUSART_Receive_ISR(1), 
  5602 ;; Auto vars:     Size  Location     Type
  5603 ;;		None
  5604 ;; Return value:  Size  Location     Type
  5605 ;;                  1    wreg      void 
  5606 ;; Registers used:
  5607 ;;		wreg
  5608 ;; Tracked objects:
  5609 ;;		On entry : 0/0
  5610 ;;		On exit  : 0/0
  5611 ;;		Unchanged: 0/0
  5612 ;; Data sizes:     COMMON   BANK0   BANK1   BANK2   BANK3   BANK4   BANK5   BANK6
  5613 ;;      Params:         2       0       0       0       0       0       0       0
  5614 ;;      Locals:         0       0       0       0       0       0       0       0
  5615 ;;      Temps:          0       0       0       0       0       0       0       0
  5616 ;;      Totals:         2       0       0       0       0       0       0       0
  5617 ;;Total ram usage:        2 bytes
  5618 ;; Hardware stack levels used: 1
  5619 ;; Hardware stack levels required when called: 4
  5620 ;; This function calls:
  5621 ;;		Nothing
  5622 ;; This function is called by:
  5623 ;;		_EUSART_Initialize
  5624 ;; This function uses a non-reentrant model
  5625 ;;
  5626                           
  5627     0DDF                     _EUSART_SetRxInterruptHandler:	
  5628                           ;psect for function _EUSART_SetRxInterruptHandler
  5629                           
  5630     0DDF                     l3087:	
  5631                           ;incstack = 0
  5632                           ; Regs used in _EUSART_SetRxInterruptHandler: [wreg]
  5633                           
  5634                           
  5635                           ;mcc_generated_files/eusart.c: 309:     EUSART_RxDefaultInterruptHandler = interruptHand
      +                          ler;
  5636     0DDF  0872               	movf	EUSART_SetRxInterruptHandler@interruptHandler+1,w
  5637     0DE0  0020               	movlb	0	; select bank0
  5638     0DE1  00AB               	movwf	_EUSART_RxDefaultInterruptHandler+1
  5639     0DE2  0871               	movf	EUSART_SetRxInterruptHandler@interruptHandler,w
  5640     0DE3  00AA               	movwf	_EUSART_RxDefaultInterruptHandler
  5641     0DE4                     l487:
  5642     0DE4  0008               	return
  5643     0DE5                     __end_of_EUSART_SetRxInterruptHandler:
  5644                           
  5645                           	psect	text22
  5646     0DD9                     __ptext22:	
  5647 ;; *************** function _EUSART_SetOverrunErrorHandler *****************
  5648 ;; Defined at:
  5649 ;;		line 296 in file "mcc_generated_files/eusart.c"
  5650 ;; Parameters:    Size  Location     Type
  5651 ;;  interruptHan    2    1[COMMON] PTR FTN()void 
  5652 ;;		 -> EUSART_DefaultOverrunErrorHandler(1), 
  5653 ;; Auto vars:     Size  Location     Type
  5654 ;;		None
  5655 ;; Return value:  Size  Location     Type
  5656 ;;                  1    wreg      void 
  5657 ;; Registers used:
  5658 ;;		wreg
  5659 ;; Tracked objects:
  5660 ;;		On entry : 0/0
  5661 ;;		On exit  : 0/0
  5662 ;;		Unchanged: 0/0
  5663 ;; Data sizes:     COMMON   BANK0   BANK1   BANK2   BANK3   BANK4   BANK5   BANK6
  5664 ;;      Params:         2       0       0       0       0       0       0       0
  5665 ;;      Locals:         0       0       0       0       0       0       0       0
  5666 ;;      Temps:          0       0       0       0       0       0       0       0
  5667 ;;      Totals:         2       0       0       0       0       0       0       0
  5668 ;;Total ram usage:        2 bytes
  5669 ;; Hardware stack levels used: 1
  5670 ;; Hardware stack levels required when called: 4
  5671 ;; This function calls:
  5672 ;;		Nothing
  5673 ;; This function is called by:
  5674 ;;		_EUSART_Initialize
  5675 ;; This function uses a non-reentrant model
  5676 ;;
  5677                           
  5678     0DD9                     _EUSART_SetOverrunErrorHandler:	
  5679                           ;psect for function _EUSART_SetOverrunErrorHandler
  5680                           
  5681     0DD9                     l3093:	
  5682                           ;incstack = 0
  5683                           ; Regs used in _EUSART_SetOverrunErrorHandler: [wreg]
  5684                           
  5685                           
  5686                           ;mcc_generated_files/eusart.c: 297:     EUSART_OverrunErrorHandler = interruptHandler;
  5687     0DD9  0872               	movf	EUSART_SetOverrunErrorHandler@interruptHandler+1,w
  5688     0DDA  0020               	movlb	0	; select bank0
  5689     0DDB  00A7               	movwf	_EUSART_OverrunErrorHandler+1
  5690     0DDC  0871               	movf	EUSART_SetOverrunErrorHandler@interruptHandler,w
  5691     0DDD  00A6               	movwf	_EUSART_OverrunErrorHandler
  5692     0DDE                     l478:
  5693     0DDE  0008               	return
  5694     0DDF                     __end_of_EUSART_SetOverrunErrorHandler:
  5695                           
  5696                           	psect	text23
  5697     0DD3                     __ptext23:	
  5698 ;; *************** function _EUSART_SetFramingErrorHandler *****************
  5699 ;; Defined at:
  5700 ;;		line 292 in file "mcc_generated_files/eusart.c"
  5701 ;; Parameters:    Size  Location     Type
  5702 ;;  interruptHan    2    1[COMMON] PTR FTN()void 
  5703 ;;		 -> EUSART_DefaultFramingErrorHandler(1), 
  5704 ;; Auto vars:     Size  Location     Type
  5705 ;;		None
  5706 ;; Return value:  Size  Location     Type
  5707 ;;                  1    wreg      void 
  5708 ;; Registers used:
  5709 ;;		wreg
  5710 ;; Tracked objects:
  5711 ;;		On entry : 0/0
  5712 ;;		On exit  : 0/0
  5713 ;;		Unchanged: 0/0
  5714 ;; Data sizes:     COMMON   BANK0   BANK1   BANK2   BANK3   BANK4   BANK5   BANK6
  5715 ;;      Params:         2       0       0       0       0       0       0       0
  5716 ;;      Locals:         0       0       0       0       0       0       0       0
  5717 ;;      Temps:          0       0       0       0       0       0       0       0
  5718 ;;      Totals:         2       0       0       0       0       0       0       0
  5719 ;;Total ram usage:        2 bytes
  5720 ;; Hardware stack levels used: 1
  5721 ;; Hardware stack levels required when called: 4
  5722 ;; This function calls:
  5723 ;;		Nothing
  5724 ;; This function is called by:
  5725 ;;		_EUSART_Initialize
  5726 ;; This function uses a non-reentrant model
  5727 ;;
  5728                           
  5729     0DD3                     _EUSART_SetFramingErrorHandler:	
  5730                           ;psect for function _EUSART_SetFramingErrorHandler
  5731                           
  5732     0DD3                     l3091:	
  5733                           ;incstack = 0
  5734                           ; Regs used in _EUSART_SetFramingErrorHandler: [wreg]
  5735                           
  5736                           
  5737                           ;mcc_generated_files/eusart.c: 293:     EUSART_FramingErrorHandler = interruptHandler;
  5738     0DD3  0872               	movf	EUSART_SetFramingErrorHandler@interruptHandler+1,w
  5739     0DD4  0020               	movlb	0	; select bank0
  5740     0DD5  00A9               	movwf	_EUSART_FramingErrorHandler+1
  5741     0DD6  0871               	movf	EUSART_SetFramingErrorHandler@interruptHandler,w
  5742     0DD7  00A8               	movwf	_EUSART_FramingErrorHandler
  5743     0DD8                     l475:
  5744     0DD8  0008               	return
  5745     0DD9                     __end_of_EUSART_SetFramingErrorHandler:
  5746                           
  5747                           	psect	text24
  5748     0DCD                     __ptext24:	
  5749 ;; *************** function _EUSART_SetErrorHandler *****************
  5750 ;; Defined at:
  5751 ;;		line 300 in file "mcc_generated_files/eusart.c"
  5752 ;; Parameters:    Size  Location     Type
  5753 ;;  interruptHan    2    1[COMMON] PTR FTN()void 
  5754 ;;		 -> EUSART_DefaultErrorHandler(1), 
  5755 ;; Auto vars:     Size  Location     Type
  5756 ;;		None
  5757 ;; Return value:  Size  Location     Type
  5758 ;;                  1    wreg      void 
  5759 ;; Registers used:
  5760 ;;		wreg
  5761 ;; Tracked objects:
  5762 ;;		On entry : 0/0
  5763 ;;		On exit  : 0/0
  5764 ;;		Unchanged: 0/0
  5765 ;; Data sizes:     COMMON   BANK0   BANK1   BANK2   BANK3   BANK4   BANK5   BANK6
  5766 ;;      Params:         2       0       0       0       0       0       0       0
  5767 ;;      Locals:         0       0       0       0       0       0       0       0
  5768 ;;      Temps:          0       0       0       0       0       0       0       0
  5769 ;;      Totals:         2       0       0       0       0       0       0       0
  5770 ;;Total ram usage:        2 bytes
  5771 ;; Hardware stack levels used: 1
  5772 ;; Hardware stack levels required when called: 4
  5773 ;; This function calls:
  5774 ;;		Nothing
  5775 ;; This function is called by:
  5776 ;;		_EUSART_Initialize
  5777 ;; This function uses a non-reentrant model
  5778 ;;
  5779                           
  5780     0DCD                     _EUSART_SetErrorHandler:	
  5781                           ;psect for function _EUSART_SetErrorHandler
  5782                           
  5783     0DCD                     l3095:	
  5784                           ;incstack = 0
  5785                           ; Regs used in _EUSART_SetErrorHandler: [wreg]
  5786                           
  5787                           
  5788                           ;mcc_generated_files/eusart.c: 301:     EUSART_ErrorHandler = interruptHandler;
  5789     0DCD  0872               	movf	EUSART_SetErrorHandler@interruptHandler+1,w
  5790     0DCE  0020               	movlb	0	; select bank0
  5791     0DCF  00A5               	movwf	_EUSART_ErrorHandler+1
  5792     0DD0  0871               	movf	EUSART_SetErrorHandler@interruptHandler,w
  5793     0DD1  00A4               	movwf	_EUSART_ErrorHandler
  5794     0DD2                     l481:
  5795     0DD2  0008               	return
  5796     0DD3                     __end_of_EUSART_SetErrorHandler:
  5797                           
  5798                           	psect	text25
  5799     0053                     __ptext25:	
  5800 ;; *************** function _LIN_handler *****************
  5801 ;; Defined at:
  5802 ;;		line 98 in file "mcc_generated_files/LINDrivers/lin_slave.c"
  5803 ;; Parameters:    Size  Location     Type
  5804 ;;		None
  5805 ;; Auto vars:     Size  Location     Type
  5806 ;;		None
  5807 ;; Return value:  Size  Location     Type
  5808 ;;                  1    wreg      enum E36
  5809 ;; Registers used:
  5810 ;;		wreg, fsr0l, fsr0h, fsr1l, fsr1h, status,2, status,0, pclath, cstack
  5811 ;; Tracked objects:
  5812 ;;		On entry : 0/0
  5813 ;;		On exit  : 0/0
  5814 ;;		Unchanged: 0/0
  5815 ;; Data sizes:     COMMON   BANK0   BANK1   BANK2   BANK3   BANK4   BANK5   BANK6
  5816 ;;      Params:         0       0       0       0       0       0       0       0
  5817 ;;      Locals:         0       0       0       0       0       0       0       0
  5818 ;;      Temps:          0       2       0       0       0       0       0       0
  5819 ;;      Totals:         0       2       0       0       0       0       0       0
  5820 ;;Total ram usage:        2 bytes
  5821 ;; Hardware stack levels used: 1
  5822 ;; Hardware stack levels required when called: 10
  5823 ;; This function calls:
  5824 ;;		NULL
  5825 ;;		_EUSART_Read
  5826 ;;		_EUSART_is_rx_ready
  5827 ;;		_LIN_breakCheck
  5828 ;;		_LIN_checkPID
  5829 ;;		_LIN_disableRx
  5830 ;;		_LIN_enableRx
  5831 ;;		_LIN_getChecksum
  5832 ;;		_LIN_getFromTable
  5833 ;;		_LIN_queuePacket
  5834 ;;		_LIN_startTimer
  5835 ;;		_LIN_stopTimer
  5836 ;;		_memset
  5837 ;;		_processLIN
  5838 ;; This function is called by:
  5839 ;;		_main
  5840 ;; This function uses a non-reentrant model
  5841 ;;
  5842                           
  5843     0053                     _LIN_handler:	
  5844                           ;psect for function _LIN_handler
  5845                           
  5846     0053                     l3489:	
  5847                           ;incstack = 0
  5848                           ; Regs used in _LIN_handler: [wreg-fsr1h+status,2+status,0+pclath+cstack]
  5849                           
  5850                           
  5851                           ;mcc_generated_files/LINDrivers/lin_slave.c: 100:   static lin_rx_state_t LIN_rxState = 
      +                          LIN_RX_IDLE;;mcc_generated_files/LINDrivers/lin_slave.c: 101:   static uint8_t rxDataInd
      +                          ex = 0;;mcc_generated_files/LINDrivers/lin_slave.c: 104:   if (LIN_rxInProgress == 1) {
  5852     0053  0020               	movlb	0	; select bank0
  5853     0054  0348               	decf	_LIN_rxInProgress,w
  5854     0055  1D03               	btfss	3,2
  5855     0056  2858               	goto	u2551
  5856     0057  2859               	goto	u2550
  5857     0058                     u2551:
  5858     0058  2942               	goto	l3581
  5859     0059                     u2550:
  5860     0059                     l3491:
  5861                           
  5862                           ;mcc_generated_files/LINDrivers/lin_slave.c: 105:     if (LIN_timerRunning == 0) {
  5863     0059  0846               	movf	_LIN_timerRunning,w
  5864     005A  1D03               	btfss	3,2
  5865     005B  285D               	goto	u2561
  5866     005C  285E               	goto	u2560
  5867     005D                     u2561:
  5868     005D  2942               	goto	l3581
  5869     005E                     u2560:
  5870     005E                     l3493:
  5871                           
  5872                           ;mcc_generated_files/LINDrivers/lin_slave.c: 107:       LIN_rxState = LIN_RX_ERROR;
  5873     005E  3008               	movlw	8
  5874     005F  00C4               	movwf	LIN_handler@LIN_rxState
  5875     0060  2942               	goto	l3581
  5876     0061                     l3495:
  5877                           
  5878                           ;mcc_generated_files/LINDrivers/lin_slave.c: 114:     if (EUSART_is_rx_ready() > 0) {
  5879     0061  318E  2623  3180   	fcall	_EUSART_is_rx_ready
  5880     0064  3A00               	xorlw	0
  5881     0065  1903               	skipnz
  5882     0066  2868               	goto	u2571
  5883     0067  2869               	goto	u2570
  5884     0068                     u2571:
  5885     0068  296A               	goto	l251
  5886     0069                     u2570:
  5887     0069                     l3497:
  5888                           
  5889                           ;mcc_generated_files/LINDrivers/lin_slave.c: 116:       LIN_startTimer(20);
  5890     0069  3014               	movlw	20
  5891     006A  318E  2640  3180   	fcall	_LIN_startTimer
  5892     006D                     l3499:
  5893                           
  5894                           ;mcc_generated_files/LINDrivers/lin_slave.c: 117:       LIN_rxInProgress = 1;
  5895     006D  0020               	movlb	0	; select bank0
  5896     006E  01C8               	clrf	_LIN_rxInProgress
  5897     006F  0AC8               	incf	_LIN_rxInProgress,f
  5898     0070                     l3501:
  5899                           
  5900                           ;mcc_generated_files/LINDrivers/lin_slave.c: 118:       LIN_rxState = LIN_RX_BREAK;
  5901     0070  01C4               	clrf	LIN_handler@LIN_rxState
  5902     0071  0AC4               	incf	LIN_handler@LIN_rxState,f
  5903     0072  296A               	goto	l251
  5904     0073                     l3503:
  5905                           
  5906                           ;mcc_generated_files/LINDrivers/lin_slave.c: 123:     if (EUSART_is_rx_ready() > 0) {
  5907     0073  318E  2623  3180   	fcall	_EUSART_is_rx_ready
  5908     0076  3A00               	xorlw	0
  5909     0077  1903               	skipnz
  5910     0078  287A               	goto	u2581
  5911     0079  287B               	goto	u2580
  5912     007A                     u2581:
  5913     007A  296A               	goto	l251
  5914     007B                     u2580:
  5915     007B                     l3505:
  5916                           
  5917                           ;mcc_generated_files/LINDrivers/lin_slave.c: 124:       if (LIN_breakCheck() == 1) {
  5918     007B  318E  2694  3180   	fcall	_LIN_breakCheck
  5919     007E  3A01               	xorlw	1
  5920     007F  1D03               	skipz
  5921     0080  2882               	goto	u2591
  5922     0081  2883               	goto	u2590
  5923     0082                     u2591:
  5924     0082  2887               	goto	l3509
  5925     0083                     u2590:
  5926     0083                     l3507:
  5927                           
  5928                           ;mcc_generated_files/LINDrivers/lin_slave.c: 125:         LIN_rxState = LIN_RX_SYNC;
  5929     0083  3002               	movlw	2
  5930     0084  0020               	movlb	0	; select bank0
  5931     0085  00C4               	movwf	LIN_handler@LIN_rxState
  5932                           
  5933                           ;mcc_generated_files/LINDrivers/lin_slave.c: 126:       } else {
  5934     0086  296A               	goto	l251
  5935     0087                     l3509:
  5936                           
  5937                           ;mcc_generated_files/LINDrivers/lin_slave.c: 127:         LIN_rxState = LIN_RX_ERROR;
  5938     0087  3008               	movlw	8
  5939     0088  0020               	movlb	0	; select bank0
  5940     0089  00C4               	movwf	LIN_handler@LIN_rxState
  5941     008A  296A               	goto	l251
  5942     008B                     l3511:
  5943                           
  5944                           ;mcc_generated_files/LINDrivers/lin_slave.c: 133:     if (EUSART_is_rx_ready() > 0) {
  5945     008B  318E  2623  3180   	fcall	_EUSART_is_rx_ready
  5946     008E  3A00               	xorlw	0
  5947     008F  1903               	skipnz
  5948     0090  2892               	goto	u2601
  5949     0091  2893               	goto	u2600
  5950     0092                     u2601:
  5951     0092  296A               	goto	l251
  5952     0093                     u2600:
  5953     0093                     l3513:
  5954                           
  5955                           ;mcc_generated_files/LINDrivers/lin_slave.c: 134:       if (EUSART_Read() == 0x55) {
  5956     0093  3187  2784  3180   	fcall	_EUSART_Read
  5957     0096  3A55               	xorlw	85
  5958     0097  1D03               	skipz
  5959     0098  289A               	goto	u2611
  5960     0099  289B               	goto	u2610
  5961     009A                     u2611:
  5962     009A  2887               	goto	l3509
  5963     009B                     u2610:
  5964     009B                     l3515:
  5965                           
  5966                           ;mcc_generated_files/LINDrivers/lin_slave.c: 135:         LIN_rxState = LIN_RX_PID;
  5967     009B  3003               	movlw	3
  5968     009C  0020               	movlb	0	; select bank0
  5969     009D  00C4               	movwf	LIN_handler@LIN_rxState
  5970                           
  5971                           ;mcc_generated_files/LINDrivers/lin_slave.c: 136:       } else {
  5972     009E  296A               	goto	l251
  5973     009F                     l3519:
  5974                           
  5975                           ;mcc_generated_files/LINDrivers/lin_slave.c: 144:     if (EUSART_is_rx_ready() > 0) {
  5976     009F  318E  2623  3180   	fcall	_EUSART_is_rx_ready
  5977     00A2  3A00               	xorlw	0
  5978     00A3  1903               	skipnz
  5979     00A4  28A6               	goto	u2621
  5980     00A5  28A7               	goto	u2620
  5981     00A6                     u2621:
  5982     00A6  296A               	goto	l251
  5983     00A7                     u2620:
  5984     00A7                     l3521:
  5985                           
  5986                           ;mcc_generated_files/LINDrivers/lin_slave.c: 145:       LIN_packet.PID = EUSART_Read();
  5987     00A7  3187  2784  3180   	fcall	_EUSART_Read
  5988     00AA  0020               	movlb	0	; select bank0
  5989     00AB  00D0               	movwf	_LIN_packet
  5990     00AC                     l3523:
  5991                           
  5992                           ;mcc_generated_files/LINDrivers/lin_slave.c: 148:       if (LIN_checkPID(LIN_packet.PID)
      +                           == 0) {
  5993     00AC  0850               	movf	_LIN_packet,w
  5994     00AD  318E  26EB  3180   	fcall	_LIN_checkPID
  5995     00B0  3A00               	xorlw	0
  5996     00B1  1D03               	skipz
  5997     00B2  28B4               	goto	u2631
  5998     00B3  28B5               	goto	u2630
  5999     00B4                     u2631:
  6000     00B4  28B6               	goto	l3527
  6001     00B5                     u2630:
  6002     00B5  2887               	goto	l3509
  6003     00B6                     l3527:
  6004                           
  6005                           ;mcc_generated_files/LINDrivers/lin_slave.c: 153:       LIN_packet.type = LIN_getFromTab
      +                          le(LIN_packet.PID, TYPE);
  6006     00B6  01F1               	clrf	LIN_getFromTable@param
  6007     00B7  0AF1               	incf	LIN_getFromTable@param,f
  6008     00B8  0020               	movlb	0	; select bank0
  6009     00B9  0850               	movf	_LIN_packet,w
  6010     00BA  3184  24C8  3180   	fcall	_LIN_getFromTable
  6011     00BD  0020               	movlb	0	; select bank0
  6012     00BE  00DA               	movwf	_LIN_packet+10
  6013     00BF                     l3529:
  6014                           
  6015                           ;mcc_generated_files/LINDrivers/lin_slave.c: 154:       if (LIN_packet.type == RECEIVE) 
      +                          {
  6016     00BF  035A               	decf	_LIN_packet+10,w
  6017     00C0  1D03               	btfss	3,2
  6018     00C1  28C3               	goto	u2641
  6019     00C2  28C4               	goto	u2640
  6020     00C3                     u2641:
  6021     00C3  28CF               	goto	l3535
  6022     00C4                     u2640:
  6023     00C4                     l3531:
  6024                           
  6025                           ;mcc_generated_files/LINDrivers/lin_slave.c: 156:         LIN_packet.length = LIN_getFro
      +                          mTable(LIN_packet.PID, LENGTH);
  6026     00C4  3002               	movlw	2
  6027     00C5  00F1               	movwf	LIN_getFromTable@param
  6028     00C6  0850               	movf	_LIN_packet,w
  6029     00C7  3184  24C8  3180   	fcall	_LIN_getFromTable
  6030     00CA  0020               	movlb	0	; select bank0
  6031     00CB  00DB               	movwf	_LIN_packet+11
  6032     00CC                     l3533:
  6033                           
  6034                           ;mcc_generated_files/LINDrivers/lin_slave.c: 157:         LIN_rxState = LIN_RX_DATA;
  6035     00CC  3004               	movlw	4
  6036     00CD  00C4               	movwf	LIN_handler@LIN_rxState
  6037                           
  6038                           ;mcc_generated_files/LINDrivers/lin_slave.c: 158:       } else {
  6039     00CE  296A               	goto	l251
  6040     00CF                     l3535:
  6041                           
  6042                           ;mcc_generated_files/LINDrivers/lin_slave.c: 159:         LIN_disableRx();
  6043     00CF  318D  25B8  3180   	fcall	_LIN_disableRx
  6044     00D2                     l3537:
  6045                           
  6046                           ;mcc_generated_files/LINDrivers/lin_slave.c: 160:         LIN_rxState = LIN_RX_TX_DATA;
  6047     00D2  3006               	movlw	6
  6048     00D3  0020               	movlb	0	; select bank0
  6049     00D4  00C4               	movwf	LIN_handler@LIN_rxState
  6050     00D5  296A               	goto	l251
  6051     00D6                     l3539:
  6052                           
  6053                           ;mcc_generated_files/LINDrivers/lin_slave.c: 166:     if (EUSART_is_rx_ready() > 0) {
  6054     00D6  318E  2623  3180   	fcall	_EUSART_is_rx_ready
  6055     00D9  3A00               	xorlw	0
  6056     00DA  1903               	skipnz
  6057     00DB  28DD               	goto	u2651
  6058     00DC  28DE               	goto	u2650
  6059     00DD                     u2651:
  6060     00DD  296A               	goto	l251
  6061     00DE                     u2650:
  6062     00DE                     l3541:
  6063                           
  6064                           ;mcc_generated_files/LINDrivers/lin_slave.c: 167:       LIN_packet.data[rxDataIndex] = E
      +                          USART_Read();
  6065     00DE  3187  2784  3180   	fcall	_EUSART_Read
  6066     00E1  0020               	movlb	0	; select bank0
  6067     00E2  00EB               	movwf	??_LIN_handler
  6068     00E3  0843               	movf	LIN_handler@rxDataIndex,w
  6069     00E4  3E51               	addlw	(low ((_LIN_packet| 0+1)))& (0+255)
  6070     00E5  0086               	movwf	6
  6071     00E6  0187               	clrf	7
  6072     00E7  086B               	movf	??_LIN_handler,w
  6073     00E8  0081               	movwf	1
  6074     00E9                     l3543:
  6075                           
  6076                           ;mcc_generated_files/LINDrivers/lin_slave.c: 168:       if (++rxDataIndex >= LIN_packet.
      +                          length) {
  6077     00E9  3001               	movlw	1
  6078     00EA  00EB               	movwf	??_LIN_handler
  6079     00EB  086B               	movf	??_LIN_handler,w
  6080     00EC  07C3               	addwf	LIN_handler@rxDataIndex,f
  6081     00ED  085B               	movf	_LIN_packet+11,w
  6082     00EE  0243               	subwf	LIN_handler@rxDataIndex,w
  6083     00EF  1C03               	skipc
  6084     00F0  28F2               	goto	u2661
  6085     00F1  28F3               	goto	u2660
  6086     00F2                     u2661:
  6087     00F2  296A               	goto	l251
  6088     00F3                     u2660:
  6089     00F3                     l3545:
  6090                           
  6091                           ;mcc_generated_files/LINDrivers/lin_slave.c: 170:         rxDataIndex = 0;
  6092     00F3  01C3               	clrf	LIN_handler@rxDataIndex
  6093     00F4                     l3547:
  6094                           
  6095                           ;mcc_generated_files/LINDrivers/lin_slave.c: 171:         LIN_rxState = LIN_RX_CHECKSUM;
  6096     00F4  3005               	movlw	5
  6097     00F5  00C4               	movwf	LIN_handler@LIN_rxState
  6098     00F6  296A               	goto	l251
  6099     00F7                     l3549:
  6100                           
  6101                           ;mcc_generated_files/LINDrivers/lin_slave.c: 177:     if (EUSART_is_rx_ready() > 0) {
  6102     00F7  318E  2623  3180   	fcall	_EUSART_is_rx_ready
  6103     00FA  3A00               	xorlw	0
  6104     00FB  1903               	skipnz
  6105     00FC  28FE               	goto	u2671
  6106     00FD  28FF               	goto	u2670
  6107     00FE                     u2671:
  6108     00FE  296A               	goto	l251
  6109     00FF                     u2670:
  6110     00FF                     l3551:
  6111                           
  6112                           ;mcc_generated_files/LINDrivers/lin_slave.c: 178:       LIN_packet.checksum = EUSART_Rea
      +                          d();
  6113     00FF  3187  2784  3180   	fcall	_EUSART_Read
  6114     0102  0020               	movlb	0	; select bank0
  6115     0103  00D9               	movwf	_LIN_packet+9
  6116                           
  6117                           ;mcc_generated_files/LINDrivers/lin_slave.c: 179:       if (LIN_packet.checksum !=
  6118     0104  0850               	movf	_LIN_packet,w
  6119     0105  00F1               	movwf	LIN_getChecksum@pid
  6120     0106  3051               	movlw	(low ((_LIN_packet| 0+1)))& (0+255)
  6121     0107  00F2               	movwf	LIN_getChecksum@data
  6122     0108  085B               	movf	_LIN_packet+11,w
  6123     0109  3186  26A3  3180   	fcall	_LIN_getChecksum
  6124     010C  0020               	movlb	0	; select bank0
  6125     010D  0659               	xorwf	_LIN_packet+9,w
  6126     010E  1903               	skipnz
  6127     010F  2911               	goto	u2681
  6128     0110  2912               	goto	u2680
  6129     0111                     u2681:
  6130     0111  2913               	goto	l3555
  6131     0112                     u2680:
  6132     0112  2887               	goto	l3509
  6133     0113                     l3555:
  6134                           
  6135                           ;mcc_generated_files/LINDrivers/lin_slave.c: 184:         LIN_rxState = LIN_RX_RDY;
  6136     0113  3007               	movlw	7
  6137     0114  00C4               	movwf	LIN_handler@LIN_rxState
  6138     0115  296A               	goto	l251
  6139     0116                     l3557:
  6140                           
  6141                           ;mcc_generated_files/LINDrivers/lin_slave.c: 189:     LIN_queuePacket(LIN_packet.PID);
  6142     0116  0850               	movf	_LIN_packet,w
  6143     0117  3184  245D  3180   	fcall	_LIN_queuePacket
  6144     011A                     l3559:
  6145                           
  6146                           ;mcc_generated_files/LINDrivers/lin_slave.c: 190:     LIN_rxState = LIN_RX_RDY;
  6147     011A  3007               	movlw	7
  6148     011B  0020               	movlb	0	; select bank0
  6149     011C  00C4               	movwf	LIN_handler@LIN_rxState
  6150     011D                     l3561:
  6151                           
  6152                           ;mcc_generated_files/LINDrivers/lin_slave.c: 192:     LIN_processData();
  6153     011D  0831               	movf	_LIN_processData+1,w
  6154     011E  008A               	movwf	10
  6155     011F  0830               	movf	_LIN_processData,w
  6156     0120  000A               	callw
  6157     0121  3180               	pagesel	$
  6158     0122                     l3563:
  6159                           
  6160                           ;mcc_generated_files/LINDrivers/lin_slave.c: 194:     LIN_stopTimer();
  6161     0122  318D  25A3  3180   	fcall	_LIN_stopTimer
  6162     0125                     l3565:
  6163                           
  6164                           ;mcc_generated_files/LINDrivers/lin_slave.c: 195:     rxDataIndex = 0;
  6165     0125  0020               	movlb	0	; select bank0
  6166     0126  01C3               	clrf	LIN_handler@rxDataIndex
  6167     0127                     l3567:
  6168                           
  6169                           ;mcc_generated_files/LINDrivers/lin_slave.c: 196:     LIN_rxInProgress = 0;
  6170     0127  01C8               	clrf	_LIN_rxInProgress
  6171     0128                     l3569:
  6172                           
  6173                           ;mcc_generated_files/LINDrivers/lin_slave.c: 197:     memset(LIN_packet.rawPacket, 0,
  6174     0128  3000               	movlw	0
  6175     0129  00F1               	movwf	memset@c
  6176     012A  00F2               	movwf	memset@c+1
  6177     012B  300D               	movlw	13
  6178     012C  00F3               	movwf	memset@n
  6179     012D  3000               	movlw	0
  6180     012E  00F4               	movwf	memset@n+1
  6181     012F  3050               	movlw	(low (_LIN_packet| 0))& (0+255)
  6182     0130  318F  2705  3180   	fcall	_memset
  6183     0133                     l3571:
  6184                           
  6185                           ;mcc_generated_files/LINDrivers/lin_slave.c: 200:     if (TXSTAbits.TRMT) {
  6186     0133  0023               	movlb	3	; select bank3
  6187     0134  1C9E               	btfss	30,1	;volatile
  6188     0135  2937               	goto	u2691
  6189     0136  2938               	goto	u2690
  6190     0137                     u2691:
  6191     0137  293E               	goto	l3577
  6192     0138                     u2690:
  6193     0138                     l3573:
  6194                           
  6195                           ;mcc_generated_files/LINDrivers/lin_slave.c: 201:       LIN_enableRx();
  6196     0138  318D  25BD  3180   	fcall	_LIN_enableRx
  6197     013B                     l3575:
  6198                           
  6199                           ;mcc_generated_files/LINDrivers/lin_slave.c: 202:       LIN_rxState = LIN_RX_IDLE;
  6200     013B  0020               	movlb	0	; select bank0
  6201     013C  01C4               	clrf	LIN_handler@LIN_rxState
  6202                           
  6203                           ;mcc_generated_files/LINDrivers/lin_slave.c: 203:     } else {
  6204     013D  296A               	goto	l251
  6205     013E                     l3577:
  6206                           
  6207                           ;mcc_generated_files/LINDrivers/lin_slave.c: 204:       LIN_rxState = LIN_RX_WAIT;
  6208     013E  3009               	movlw	9
  6209     013F  0020               	movlb	0	; select bank0
  6210     0140  00C4               	movwf	LIN_handler@LIN_rxState
  6211     0141  296A               	goto	l251
  6212     0142                     l3581:
  6213     0142  0844               	movf	LIN_handler@LIN_rxState,w
  6214     0143  00EB               	movwf	??_LIN_handler
  6215     0144  01EC               	clrf	??_LIN_handler+1
  6216                           
  6217                           ; Switch on 2 bytes has been partitioned into a top level switch of size 1, and 1 sub-sw
      +                          itches
  6218                           ; Switch size 1, requested type "simple"
  6219                           ; Number of cases is 1, Range of values is 0 to 0
  6220                           ; switch strategies available:
  6221                           ; Name         Instructions Cycles
  6222                           ; simple_byte            4     3 (average)
  6223                           ; direct_byte            8     6 (fixed)
  6224                           ; jumptable            260     6 (fixed)
  6225                           ;	Chosen strategy is simple_byte
  6226     0145  086C               	movf	??_LIN_handler+1,w
  6227     0146  3A00               	xorlw	0	; case 0
  6228     0147  1903               	skipnz
  6229     0148  294A               	goto	l4039
  6230     0149  296A               	goto	l251
  6231     014A                     l4039:
  6232                           
  6233                           ; Switch size 1, requested type "simple"
  6234                           ; Number of cases is 10, Range of values is 0 to 9
  6235                           ; switch strategies available:
  6236                           ; Name         Instructions Cycles
  6237                           ; direct_byte           26     6 (fixed)
  6238                           ; simple_byte           31    16 (average)
  6239                           ; jumptable            260     6 (fixed)
  6240                           ;	Chosen strategy is simple_byte
  6241     014A  086B               	movf	??_LIN_handler,w
  6242     014B  3A00               	xorlw	0	; case 0
  6243     014C  1903               	skipnz
  6244     014D  2861               	goto	l3495
  6245     014E  3A01               	xorlw	1	; case 1
  6246     014F  1903               	skipnz
  6247     0150  2873               	goto	l3503
  6248     0151  3A03               	xorlw	3	; case 2
  6249     0152  1903               	skipnz
  6250     0153  288B               	goto	l3511
  6251     0154  3A01               	xorlw	1	; case 3
  6252     0155  1903               	skipnz
  6253     0156  289F               	goto	l3519
  6254     0157  3A07               	xorlw	7	; case 4
  6255     0158  1903               	skipnz
  6256     0159  28D6               	goto	l3539
  6257     015A  3A01               	xorlw	1	; case 5
  6258     015B  1903               	skipnz
  6259     015C  28F7               	goto	l3549
  6260     015D  3A03               	xorlw	3	; case 6
  6261     015E  1903               	skipnz
  6262     015F  2916               	goto	l3557
  6263     0160  3A01               	xorlw	1	; case 7
  6264     0161  1903               	skipnz
  6265     0162  291D               	goto	l3561
  6266     0163  3A0F               	xorlw	15	; case 8
  6267     0164  1903               	skipnz
  6268     0165  2922               	goto	l3563
  6269     0166  3A01               	xorlw	1	; case 9
  6270     0167  1903               	skipnz
  6271     0168  2933               	goto	l3571
  6272     0169  296A               	goto	l251
  6273     016A                     l251:
  6274     016A  0008               	return
  6275     016B                     __end_of_LIN_handler:
  6276                           
  6277                           	psect	text26
  6278     016B                     __ptext26:	
  6279 ;; *************** function _processLIN *****************
  6280 ;; Defined at:
  6281 ;;		line 213 in file "mcc_generated_files/LINDrivers/lin_app.c"
  6282 ;; Parameters:    Size  Location     Type
  6283 ;;		None
  6284 ;; Auto vars:     Size  Location     Type
  6285 ;;  tempRxData      8    6[BANK0 ] unsigned char [8]
  6286 ;;  cmd             1    5[BANK0 ] unsigned char 
  6287 ;; Return value:  Size  Location     Type
  6288 ;;                  1    wreg      void 
  6289 ;; Registers used:
  6290 ;;		wreg, fsr0l, fsr0h, fsr1l, fsr1h, status,2, status,0, pclath, cstack
  6291 ;; Tracked objects:
  6292 ;;		On entry : 0/0
  6293 ;;		On exit  : 0/0
  6294 ;;		Unchanged: 0/0
  6295 ;; Data sizes:     COMMON   BANK0   BANK1   BANK2   BANK3   BANK4   BANK5   BANK6
  6296 ;;      Params:         0       0       0       0       0       0       0       0
  6297 ;;      Locals:         0       9       0       0       0       0       0       0
  6298 ;;      Temps:          0       0       0       0       0       0       0       0
  6299 ;;      Totals:         0       9       0       0       0       0       0       0
  6300 ;;Total ram usage:        9 bytes
  6301 ;; Hardware stack levels used: 1
  6302 ;; Hardware stack levels required when called: 9
  6303 ;; This function calls:
  6304 ;;		_DRL_OFF
  6305 ;;		_DRL_ON
  6306 ;;		_HIBEAM_OFF
  6307 ;;		_HIBEAM_ON
  6308 ;;		_LEFT_OFF
  6309 ;;		_LEFT_ON
  6310 ;;		_LEFT_ON2
  6311 ;;		_LIN_getPacket
  6312 ;;		_LOBEAM_OFF
  6313 ;;		_LOBEAM_ON
  6314 ;;		_POS_OFF
  6315 ;;		_POS_ON
  6316 ;;		_RIGHT_OFF
  6317 ;;		_RIGHT_ON
  6318 ;;		_RIGHT_ON2
  6319 ;; This function is called by:
  6320 ;;		_LIN_Slave_Initialize
  6321 ;;		_LIN_handler
  6322 ;; This function uses a non-reentrant model
  6323 ;;
  6324                           
  6325     016B                     _processLIN:	
  6326                           ;psect for function _processLIN
  6327                           
  6328     016B                     l3115:	
  6329                           ;incstack = 0
  6330                           ; Regs used in _processLIN: [wreg-fsr1h+status,2+status,0+pclath+cstack]
  6331                           
  6332                           
  6333                           ;mcc_generated_files/LINDrivers/lin_app.c: 214:   uint8_t tempRxData[8];;mcc_generated_f
      +                          iles/LINDrivers/lin_app.c: 215:   uint8_t cmd;;mcc_generated_files/LINDrivers/lin_app.c:
      +                           217:   lampState.Byte = 0;
  6334     016B  0020               	movlb	0	; select bank0
  6335     016C  01CD               	clrf	_lampState
  6336                           
  6337                           ;mcc_generated_files/LINDrivers/lin_app.c: 218:   lampFlags.Byte = 0;
  6338     016D  01CB               	clrf	_lampFlags
  6339     016E                     l3117:
  6340                           
  6341                           ;mcc_generated_files/LINDrivers/lin_app.c: 221:   cmd = LIN_getPacket(tempRxData);
  6342     016E  3063               	movlw	(low (processLIN@tempRxData| 0))& (0+255)
  6343     016F  318F  27A6  3181   	fcall	_LIN_getPacket
  6344     0172  0020               	movlb	0	; select bank0
  6345     0173  00E2               	movwf	processLIN@cmd
  6346                           
  6347                           ;mcc_generated_files/LINDrivers/lin_app.c: 224:   switch (cmd) {
  6348     0174  29ED               	goto	l3179
  6349     0175                     l3119:
  6350                           
  6351                           ;mcc_generated_files/LINDrivers/lin_app.c: 228:     if ((tempRxData[2] == 0x49) || (temp
      +                          RxData[2] == 0x51)) {
  6352     0175  3049               	movlw	73
  6353     0176  0665               	xorwf	processLIN@tempRxData+2,w
  6354     0177  1903               	btfsc	3,2
  6355     0178  297A               	goto	u2081
  6356     0179  297B               	goto	u2080
  6357     017A                     u2081:
  6358     017A  2981               	goto	l3123
  6359     017B                     u2080:
  6360     017B                     l3121:
  6361     017B  3051               	movlw	81
  6362     017C  0665               	xorwf	processLIN@tempRxData+2,w
  6363     017D  1D03               	btfss	3,2
  6364     017E  2980               	goto	u2091
  6365     017F  2981               	goto	u2090
  6366     0180                     u2091:
  6367     0180  2985               	goto	l3127
  6368     0181                     u2090:
  6369     0181                     l3123:
  6370                           
  6371                           ;mcc_generated_files/LINDrivers/lin_app.c: 229:       lampState.mode = eOFF_DRL;
  6372     0181  30F8               	movlw	-8
  6373     0182  05CD               	andwf	_lampState,f
  6374     0183                     l3125:
  6375                           
  6376                           ;mcc_generated_files/LINDrivers/lin_app.c: 230:       lampFlags.fDRL = 1;
  6377     0183  144B               	bsf	_lampFlags,0
  6378                           
  6379                           ;mcc_generated_files/LINDrivers/lin_app.c: 231:     } else if ((tempRxData[2] == 0x0A) |
      +                          | (tempRxData[2] == 0x14) ||
  6380     0184  29D1               	goto	l3165
  6381     0185                     l3127:
  6382     0185  300A               	movlw	10
  6383     0186  0665               	xorwf	processLIN@tempRxData+2,w
  6384     0187  1903               	btfsc	3,2
  6385     0188  298A               	goto	u2101
  6386     0189  298B               	goto	u2100
  6387     018A                     u2101:
  6388     018A  2997               	goto	l3133
  6389     018B                     u2100:
  6390     018B                     l3129:
  6391     018B  3014               	movlw	20
  6392     018C  0665               	xorwf	processLIN@tempRxData+2,w
  6393     018D  1903               	btfsc	3,2
  6394     018E  2990               	goto	u2111
  6395     018F  2991               	goto	u2110
  6396     0190                     u2111:
  6397     0190  2997               	goto	l3133
  6398     0191                     u2110:
  6399     0191                     l3131:
  6400     0191  3012               	movlw	18
  6401     0192  0665               	xorwf	processLIN@tempRxData+2,w
  6402     0193  1D03               	btfss	3,2
  6403     0194  2996               	goto	u2121
  6404     0195  2997               	goto	u2120
  6405     0196                     u2121:
  6406     0196  299D               	goto	l3137
  6407     0197                     u2120:
  6408     0197                     l3133:
  6409                           
  6410                           ;mcc_generated_files/LINDrivers/lin_app.c: 232:                (tempRxData[2] == 0x12)) 
      +                          {;mcc_generated_files/LINDrivers/lin_app.c: 233:       lampState.mode = ePOS;
  6411     0197  084D               	movf	_lampState,w
  6412     0198  39F8               	andlw	-8
  6413     0199  3801               	iorlw	1
  6414     019A  00CD               	movwf	_lampState
  6415     019B                     l3135:
  6416                           
  6417                           ;mcc_generated_files/LINDrivers/lin_app.c: 234:       lampFlags.fPOS = 1;
  6418     019B  14CB               	bsf	_lampFlags,1
  6419                           
  6420                           ;mcc_generated_files/LINDrivers/lin_app.c: 235:     } else if ((tempRxData[2] == 0x8C) |
      +                          |
  6421     019C  29D1               	goto	l3165
  6422     019D                     l3137:
  6423     019D  308C               	movlw	140
  6424     019E  0665               	xorwf	processLIN@tempRxData+2,w
  6425     019F  1903               	btfsc	3,2
  6426     01A0  29A2               	goto	u2131
  6427     01A1  29A3               	goto	u2130
  6428     01A2                     u2131:
  6429     01A2  29AF               	goto	l3143
  6430     01A3                     u2130:
  6431     01A3                     l3139:
  6432     01A3  3094               	movlw	148
  6433     01A4  0665               	xorwf	processLIN@tempRxData+2,w
  6434     01A5  1903               	btfsc	3,2
  6435     01A6  29A8               	goto	u2141
  6436     01A7  29A9               	goto	u2140
  6437     01A8                     u2141:
  6438     01A8  29AF               	goto	l3143
  6439     01A9                     u2140:
  6440     01A9                     l3141:
  6441     01A9  30AC               	movlw	172
  6442     01AA  0665               	xorwf	processLIN@tempRxData+2,w
  6443     01AB  1D03               	btfss	3,2
  6444     01AC  29AE               	goto	u2151
  6445     01AD  29AF               	goto	u2150
  6446     01AE                     u2151:
  6447     01AE  29B5               	goto	l3149
  6448     01AF                     u2150:
  6449     01AF                     l3143:
  6450                           
  6451                           ;mcc_generated_files/LINDrivers/lin_app.c: 237:                (tempRxData[2] == 0xAC)) 
      +                          {;mcc_generated_files/LINDrivers/lin_app.c: 238:       lampState.mode = eAUTO_LOBEAM_POS
      +                          ;
  6452     01AF  084D               	movf	_lampState,w
  6453     01B0  39F8               	andlw	-8
  6454     01B1  3803               	iorlw	3
  6455     01B2  00CD               	movwf	_lampState
  6456     01B3                     l3145:
  6457                           
  6458                           ;mcc_generated_files/LINDrivers/lin_app.c: 239:       lampFlags.fLOBEAM = 1;
  6459     01B3  154B               	bsf	_lampFlags,2
  6460     01B4  299B               	goto	l3135
  6461     01B5                     l3149:
  6462     01B5  304C               	movlw	76
  6463     01B6  0665               	xorwf	processLIN@tempRxData+2,w
  6464     01B7  1D03               	btfss	3,2
  6465     01B8  29BA               	goto	u2161
  6466     01B9  29BB               	goto	u2160
  6467     01BA                     u2161:
  6468     01BA  29C0               	goto	l3155
  6469     01BB                     u2160:
  6470     01BB                     l3151:
  6471                           
  6472                           ;mcc_generated_files/LINDrivers/lin_app.c: 242:       lampState.mode = eAUTO_DRL;
  6473     01BB  084D               	movf	_lampState,w
  6474     01BC  39F8               	andlw	-8
  6475     01BD  3802               	iorlw	2
  6476     01BE  00CD               	movwf	_lampState
  6477     01BF  2983               	goto	l3125
  6478     01C0                     l3155:
  6479     01C0  300B               	movlw	11
  6480     01C1  0665               	xorwf	processLIN@tempRxData+2,w
  6481     01C2  1903               	btfsc	3,2
  6482     01C3  29C5               	goto	u2171
  6483     01C4  29C6               	goto	u2170
  6484     01C5                     u2171:
  6485     01C5  29CC               	goto	l3159
  6486     01C6                     u2170:
  6487     01C6                     l3157:
  6488     01C6  3013               	movlw	19
  6489     01C7  0665               	xorwf	processLIN@tempRxData+2,w
  6490     01C8  1D03               	btfss	3,2
  6491     01C9  29CB               	goto	u2181
  6492     01CA  29CC               	goto	u2180
  6493     01CB                     u2181:
  6494     01CB  29D1               	goto	l105
  6495     01CC                     u2180:
  6496     01CC                     l3159:
  6497                           
  6498                           ;mcc_generated_files/LINDrivers/lin_app.c: 245:                (tempRxData[2] == 0x13)) 
      +                          {;mcc_generated_files/LINDrivers/lin_app.c: 246:       lampState.mode = eLOBEAM;
  6499     01CC  084D               	movf	_lampState,w
  6500     01CD  39F8               	andlw	-8
  6501     01CE  3804               	iorlw	4
  6502     01CF  00CD               	movwf	_lampState
  6503     01D0  29B3               	goto	l3145
  6504     01D1                     l105:
  6505     01D1                     l3165:
  6506                           
  6507                           ;mcc_generated_files/LINDrivers/lin_app.c: 252:     if ((tempRxData[1] & 0B10000000) == 
      +                          0B10000000) {
  6508     01D1  1FE4               	btfss	processLIN@tempRxData+1,7
  6509     01D2  29D4               	goto	u2191
  6510     01D3  29D5               	goto	u2190
  6511     01D4                     u2191:
  6512     01D4  29D7               	goto	l115
  6513     01D5                     u2190:
  6514     01D5                     l3167:
  6515                           
  6516                           ;mcc_generated_files/LINDrivers/lin_app.c: 253:       lampState.OverTaking = 1;
  6517     01D5  15CD               	bsf	_lampState,3
  6518                           
  6519                           ;mcc_generated_files/LINDrivers/lin_app.c: 254:       lampFlags.fHIBEAM = 1;
  6520     01D6  15CB               	bsf	_lampFlags,3
  6521     01D7                     l115:	
  6522                           ;mcc_generated_files/LINDrivers/lin_app.c: 255:     }
  6523                           
  6524                           
  6525                           ;mcc_generated_files/LINDrivers/lin_app.c: 258:     if ((tempRxData[1] & 0B01000000) == 
      +                          0B01000000) {
  6526     01D7  1F64               	btfss	processLIN@tempRxData+1,6
  6527     01D8  29DA               	goto	u2201
  6528     01D9  29DB               	goto	u2200
  6529     01DA                     u2201:
  6530     01DA  29DD               	goto	l116
  6531     01DB                     u2200:
  6532     01DB                     l3169:
  6533                           
  6534                           ;mcc_generated_files/LINDrivers/lin_app.c: 259:       lampState.HighBeam = 1;
  6535     01DB  174D               	bsf	_lampState,6
  6536                           
  6537                           ;mcc_generated_files/LINDrivers/lin_app.c: 260:       lampFlags.fHIBEAM = 1;
  6538     01DC  15CB               	bsf	_lampFlags,3
  6539     01DD                     l116:	
  6540                           ;mcc_generated_files/LINDrivers/lin_app.c: 261:     }
  6541                           
  6542                           
  6543                           ;mcc_generated_files/LINDrivers/lin_app.c: 264:     if ((tempRxData[1] & 0B00010000) == 
      +                          0B00010000) {
  6544     01DD  1E64               	btfss	processLIN@tempRxData+1,4
  6545     01DE  29E0               	goto	u2211
  6546     01DF  29E1               	goto	u2210
  6547     01E0                     u2211:
  6548     01E0  29E3               	goto	l117
  6549     01E1                     u2210:
  6550     01E1                     l3171:
  6551                           
  6552                           ;mcc_generated_files/LINDrivers/lin_app.c: 265:       lampState.TurnLeft = 1;
  6553     01E1  164D               	bsf	_lampState,4
  6554                           
  6555                           ;mcc_generated_files/LINDrivers/lin_app.c: 266:       lampFlags.fLEFT = 1;
  6556     01E2  16CB               	bsf	_lampFlags,5
  6557     01E3                     l117:	
  6558                           ;mcc_generated_files/LINDrivers/lin_app.c: 267:     }
  6559                           
  6560                           
  6561                           ;mcc_generated_files/LINDrivers/lin_app.c: 270:     if ((tempRxData[1] & 0B00100000) == 
      +                          0B00100000) {
  6562     01E3  1EE4               	btfss	processLIN@tempRxData+1,5
  6563     01E4  29E6               	goto	u2221
  6564     01E5  29E7               	goto	u2220
  6565     01E6                     u2221:
  6566     01E6  29F2               	goto	l119
  6567     01E7                     u2220:
  6568     01E7                     l3173:
  6569                           
  6570                           ;mcc_generated_files/LINDrivers/lin_app.c: 271:       lampState.TurnRight = 1;
  6571     01E7  16CD               	bsf	_lampState,5
  6572                           
  6573                           ;mcc_generated_files/LINDrivers/lin_app.c: 272:       lampFlags.fRIGHT = 1;
  6574     01E8  174B               	bsf	_lampFlags,6
  6575     01E9  29F2               	goto	l119
  6576     01EA                     l3175:
  6577                           
  6578                           ;mcc_generated_files/LINDrivers/lin_app.c: 293:     lampState.Byte = 0;
  6579     01EA  01CD               	clrf	_lampState
  6580                           
  6581                           ;mcc_generated_files/LINDrivers/lin_app.c: 294:     lampFlags.Byte = 0;
  6582     01EB  01CB               	clrf	_lampFlags
  6583                           
  6584                           ;mcc_generated_files/LINDrivers/lin_app.c: 295:     break;
  6585     01EC  29F2               	goto	l119
  6586     01ED                     l3179:
  6587     01ED  0862               	movf	processLIN@cmd,w
  6588                           
  6589                           ; Switch size 1, requested type "simple"
  6590                           ; Number of cases is 1, Range of values is 1 to 1
  6591                           ; switch strategies available:
  6592                           ; Name         Instructions Cycles
  6593                           ; simple_byte            4     3 (average)
  6594                           ; direct_byte           11     9 (fixed)
  6595                           ; jumptable            263     9 (fixed)
  6596                           ;	Chosen strategy is simple_byte
  6597     01EE  3A01               	xorlw	1	; case 1
  6598     01EF  1903               	skipnz
  6599     01F0  2975               	goto	l3119
  6600     01F1  29EA               	goto	l3175
  6601     01F2                     l119:
  6602                           
  6603                           ;mcc_generated_files/LINDrivers/lin_app.c: 300:   if (lampFlags.fDRL) {
  6604     01F2  1C4B               	btfss	_lampFlags,0
  6605     01F3  29F5               	goto	u2231
  6606     01F4  29F6               	goto	u2230
  6607     01F5                     u2231:
  6608     01F5  29FA               	goto	l3183
  6609     01F6                     u2230:
  6610     01F6                     l3181:
  6611                           
  6612                           ;mcc_generated_files/LINDrivers/lin_app.c: 301:     DRL_ON();
  6613     01F6  318D  2589  3181   	fcall	_DRL_ON
  6614                           
  6615                           ;mcc_generated_files/LINDrivers/lin_app.c: 302:   } else {
  6616     01F9  29FD               	goto	l3185
  6617     01FA                     l3183:
  6618                           
  6619                           ;mcc_generated_files/LINDrivers/lin_app.c: 303:     DRL_OFF();
  6620     01FA  318D  2588  3181   	fcall	_DRL_OFF
  6621     01FD                     l3185:
  6622                           
  6623                           ;mcc_generated_files/LINDrivers/lin_app.c: 306:   if (lampFlags.fPOS) {
  6624     01FD  0020               	movlb	0	; select bank0
  6625     01FE  1CCB               	btfss	_lampFlags,1
  6626     01FF  2A01               	goto	u2241
  6627     0200  2A02               	goto	u2240
  6628     0201                     u2241:
  6629     0201  2A06               	goto	l3189
  6630     0202                     u2240:
  6631     0202                     l3187:
  6632                           
  6633                           ;mcc_generated_files/LINDrivers/lin_app.c: 307:     POS_ON();
  6634     0202  3180  2002  3181   	fcall	_POS_ON
  6635                           
  6636                           ;mcc_generated_files/LINDrivers/lin_app.c: 308:   } else {
  6637     0205  2A09               	goto	l3191
  6638     0206                     l3189:
  6639                           
  6640                           ;mcc_generated_files/LINDrivers/lin_app.c: 309:     POS_OFF();
  6641     0206  318D  258A  3181   	fcall	_POS_OFF
  6642     0209                     l3191:
  6643                           
  6644                           ;mcc_generated_files/LINDrivers/lin_app.c: 312:   if (lampFlags.fLOBEAM) {
  6645     0209  0020               	movlb	0	; select bank0
  6646     020A  1D4B               	btfss	_lampFlags,2
  6647     020B  2A0D               	goto	u2251
  6648     020C  2A0E               	goto	u2250
  6649     020D                     u2251:
  6650     020D  2A12               	goto	l3195
  6651     020E                     u2250:
  6652     020E                     l3193:
  6653                           
  6654                           ;mcc_generated_files/LINDrivers/lin_app.c: 313:     LOBEAM_ON();
  6655     020E  318D  2591  3181   	fcall	_LOBEAM_ON
  6656                           
  6657                           ;mcc_generated_files/LINDrivers/lin_app.c: 314:   } else if(fLoBeam==0){
  6658     0211  2A1A               	goto	l3199
  6659     0212                     l3195:
  6660     0212  084F               	movf	_fLoBeam,w
  6661     0213  1D03               	btfss	3,2
  6662     0214  2A16               	goto	u2261
  6663     0215  2A17               	goto	u2260
  6664     0216                     u2261:
  6665     0216  2A1A               	goto	l3199
  6666     0217                     u2260:
  6667     0217                     l3197:
  6668                           
  6669                           ;mcc_generated_files/LINDrivers/lin_app.c: 315:     LOBEAM_OFF();
  6670     0217  318D  258E  3181   	fcall	_LOBEAM_OFF
  6671     021A                     l3199:
  6672                           
  6673                           ;mcc_generated_files/LINDrivers/lin_app.c: 319:   if (lampFlags.fHIBEAM) {
  6674     021A  0020               	movlb	0	; select bank0
  6675     021B  1DCB               	btfss	_lampFlags,3
  6676     021C  2A1E               	goto	u2271
  6677     021D  2A1F               	goto	u2270
  6678     021E                     u2271:
  6679     021E  2A23               	goto	l3203
  6680     021F                     u2270:
  6681     021F                     l3201:
  6682                           
  6683                           ;mcc_generated_files/LINDrivers/lin_app.c: 320:     HIBEAM_ON();
  6684     021F  318D  25AB  3181   	fcall	_HIBEAM_ON
  6685                           
  6686                           ;mcc_generated_files/LINDrivers/lin_app.c: 321:   } else {
  6687     0222  2A26               	goto	l3205
  6688     0223                     l3203:
  6689                           
  6690                           ;mcc_generated_files/LINDrivers/lin_app.c: 322:     HIBEAM_OFF();
  6691     0223  318D  25A7  3181   	fcall	_HIBEAM_OFF
  6692     0226                     l3205:
  6693                           
  6694                           ;mcc_generated_files/LINDrivers/lin_app.c: 326:   if(fLampSide==0)
  6695     0226  0020               	movlb	0	; select bank0
  6696     0227  084E               	movf	_fLampSide,w
  6697     0228  1D03               	btfss	3,2
  6698     0229  2A2B               	goto	u2281
  6699     022A  2A2C               	goto	u2280
  6700     022B                     u2281:
  6701     022B  2A49               	goto	l130
  6702     022C                     u2280:
  6703     022C                     l3207:
  6704                           
  6705                           ;mcc_generated_files/LINDrivers/lin_app.c: 327:   {;mcc_generated_files/LINDrivers/lin_a
      +                          pp.c: 328:     if ((lampFlags.fLEFT) ){
  6706     022C  1ECB               	btfss	_lampFlags,5
  6707     022D  2A2F               	goto	u2291
  6708     022E  2A30               	goto	u2290
  6709     022F                     u2291:
  6710     022F  2A3F               	goto	l3217
  6711     0230                     u2290:
  6712     0230                     l3209:
  6713                           
  6714                           ;mcc_generated_files/LINDrivers/lin_app.c: 329:       if(fLeft_old==0)
  6715     0230  0849               	movf	_fLeft_old,w
  6716     0231  1D03               	btfss	3,2
  6717     0232  2A34               	goto	u2301
  6718     0233  2A35               	goto	u2300
  6719     0234                     u2301:
  6720     0234  2A3B               	goto	l3215
  6721     0235                     u2300:
  6722     0235                     l3211:
  6723                           
  6724                           ;mcc_generated_files/LINDrivers/lin_app.c: 330:       {;mcc_generated_files/LINDrivers/l
      +                          in_app.c: 331:         fLeft_old=1;
  6725     0235  01C9               	clrf	_fLeft_old
  6726     0236  0AC9               	incf	_fLeft_old,f
  6727     0237                     l3213:
  6728                           
  6729                           ;mcc_generated_files/LINDrivers/lin_app.c: 332:         LEFT_ON();
  6730     0237  318D  25F7  3181   	fcall	_LEFT_ON
  6731                           
  6732                           ;mcc_generated_files/LINDrivers/lin_app.c: 333:       }
  6733     023A  2A65               	goto	l142
  6734     023B                     l3215:
  6735                           
  6736                           ;mcc_generated_files/LINDrivers/lin_app.c: 335:         LEFT_ON2();
  6737     023B  318D  25FE  3181   	fcall	_LEFT_ON2
  6738     023E  2A65               	goto	l142
  6739     023F                     l3217:
  6740                           
  6741                           ;mcc_generated_files/LINDrivers/lin_app.c: 339:       if(fLeft_old==1){
  6742     023F  0349               	decf	_fLeft_old,w
  6743     0240  1D03               	btfss	3,2
  6744     0241  2A43               	goto	u2311
  6745     0242  2A44               	goto	u2310
  6746     0243                     u2311:
  6747     0243  2A65               	goto	l142
  6748     0244                     u2310:
  6749     0244                     l3219:
  6750                           
  6751                           ;mcc_generated_files/LINDrivers/lin_app.c: 340:         fLeft_old=0;
  6752     0244  01C9               	clrf	_fLeft_old
  6753     0245                     l3221:
  6754                           
  6755                           ;mcc_generated_files/LINDrivers/lin_app.c: 341:         LEFT_OFF();
  6756     0245  318F  273A  3181   	fcall	_LEFT_OFF
  6757     0248  2A65               	goto	l142
  6758     0249                     l130:	
  6759                           ;mcc_generated_files/LINDrivers/lin_app.c: 346:   else {
  6760                           
  6761                           
  6762                           ;mcc_generated_files/LINDrivers/lin_app.c: 347:   {;mcc_generated_files/LINDrivers/lin_a
      +                          pp.c: 348:     if ((lampFlags.fRIGHT)) {
  6763     0249  1F4B               	btfss	_lampFlags,6
  6764     024A  2A4C               	goto	u2321
  6765     024B  2A4D               	goto	u2320
  6766     024C                     u2321:
  6767     024C  2A5C               	goto	l3231
  6768     024D                     u2320:
  6769     024D                     l3223:
  6770                           
  6771                           ;mcc_generated_files/LINDrivers/lin_app.c: 349:       if(fRight_old==0){
  6772     024D  084A               	movf	_fRight_old,w
  6773     024E  1D03               	btfss	3,2
  6774     024F  2A51               	goto	u2331
  6775     0250  2A52               	goto	u2330
  6776     0251                     u2331:
  6777     0251  2A58               	goto	l3229
  6778     0252                     u2330:
  6779     0252                     l3225:
  6780                           
  6781                           ;mcc_generated_files/LINDrivers/lin_app.c: 350:         fRight_old=1;
  6782     0252  01CA               	clrf	_fRight_old
  6783     0253  0ACA               	incf	_fRight_old,f
  6784     0254                     l3227:
  6785                           
  6786                           ;mcc_generated_files/LINDrivers/lin_app.c: 351:         RIGHT_ON();
  6787     0254  318E  2605  3181   	fcall	_RIGHT_ON
  6788                           
  6789                           ;mcc_generated_files/LINDrivers/lin_app.c: 352:       }
  6790     0257  2A65               	goto	l142
  6791     0258                     l3229:
  6792                           
  6793                           ;mcc_generated_files/LINDrivers/lin_app.c: 354:        RIGHT_ON2();
  6794     0258  318E  260C  3181   	fcall	_RIGHT_ON2
  6795     025B  2A65               	goto	l142
  6796     025C                     l3231:
  6797                           
  6798                           ;mcc_generated_files/LINDrivers/lin_app.c: 358:       if(fRight_old==1){
  6799     025C  034A               	decf	_fRight_old,w
  6800     025D  1D03               	btfss	3,2
  6801     025E  2A60               	goto	u2341
  6802     025F  2A61               	goto	u2340
  6803     0260                     u2341:
  6804     0260  2A65               	goto	l142
  6805     0261                     u2340:
  6806     0261                     l3233:
  6807                           
  6808                           ;mcc_generated_files/LINDrivers/lin_app.c: 359:         fRight_old=0;
  6809     0261  01CA               	clrf	_fRight_old
  6810     0262                     l3235:
  6811                           
  6812                           ;mcc_generated_files/LINDrivers/lin_app.c: 360:         RIGHT_OFF();
  6813     0262  318F  2755  3181   	fcall	_RIGHT_OFF
  6814     0265                     l142:
  6815     0265  0008               	return
  6816     0266                     __end_of_processLIN:
  6817                           
  6818                           	psect	text27
  6819     0E0C                     __ptext27:	
  6820 ;; *************** function _RIGHT_ON2 *****************
  6821 ;; Defined at:
  6822 ;;		line 188 in file "mcc_generated_files/LINDrivers/lin_app.c"
  6823 ;; Parameters:    Size  Location     Type
  6824 ;;		None
  6825 ;; Auto vars:     Size  Location     Type
  6826 ;;		None
  6827 ;; Return value:  Size  Location     Type
  6828 ;;                  1    wreg      void 
  6829 ;; Registers used:
  6830 ;;		wreg, status,2, status,0, pclath, cstack
  6831 ;; Tracked objects:
  6832 ;;		On entry : 0/0
  6833 ;;		On exit  : 0/0
  6834 ;;		Unchanged: 0/0
  6835 ;; Data sizes:     COMMON   BANK0   BANK1   BANK2   BANK3   BANK4   BANK5   BANK6
  6836 ;;      Params:         0       0       0       0       0       0       0       0
  6837 ;;      Locals:         0       0       0       0       0       0       0       0
  6838 ;;      Temps:          0       0       0       0       0       0       0       0
  6839 ;;      Totals:         0       0       0       0       0       0       0       0
  6840 ;;Total ram usage:        0 bytes
  6841 ;; Hardware stack levels used: 1
  6842 ;; Hardware stack levels required when called: 7
  6843 ;; This function calls:
  6844 ;;		_LED_ON
  6845 ;; This function is called by:
  6846 ;;		_processLIN
  6847 ;; This function uses a non-reentrant model
  6848 ;;
  6849                           
  6850     0E0C                     _RIGHT_ON2:	
  6851                           ;psect for function _RIGHT_ON2
  6852                           
  6853     0E0C                     l2963:	
  6854                           ;incstack = 0
  6855                           ; Regs used in _RIGHT_ON2: [wreg+status,2+status,0+pclath+cstack]
  6856                           
  6857                           
  6858                           ;mcc_generated_files/LINDrivers/lin_app.c: 190:   (INTCONbits.GIE = 0);
  6859     0E0C  138B               	bcf	11,7	;volatile
  6860     0E0D                     l2965:
  6861                           
  6862                           ;mcc_generated_files/LINDrivers/lin_app.c: 191:   LED_ON(255);
  6863     0E0D  30FF               	movlw	255
  6864     0E0E  318E  262C  318E   	fcall	_LED_ON
  6865     0E11                     l2967:
  6866                           
  6867                           ;mcc_generated_files/LINDrivers/lin_app.c: 193:   (INTCONbits.GIE = 1);
  6868     0E11  178B               	bsf	11,7	;volatile
  6869     0E12                     l87:
  6870     0E12  0008               	return
  6871     0E13                     __end_of_RIGHT_ON2:
  6872                           
  6873                           	psect	text28
  6874     0E05                     __ptext28:	
  6875 ;; *************** function _RIGHT_ON *****************
  6876 ;; Defined at:
  6877 ;;		line 181 in file "mcc_generated_files/LINDrivers/lin_app.c"
  6878 ;; Parameters:    Size  Location     Type
  6879 ;;		None
  6880 ;; Auto vars:     Size  Location     Type
  6881 ;;		None
  6882 ;; Return value:  Size  Location     Type
  6883 ;;                  1    wreg      void 
  6884 ;; Registers used:
  6885 ;;		wreg, status,2, status,0, pclath, cstack
  6886 ;; Tracked objects:
  6887 ;;		On entry : 0/0
  6888 ;;		On exit  : 0/0
  6889 ;;		Unchanged: 0/0
  6890 ;; Data sizes:     COMMON   BANK0   BANK1   BANK2   BANK3   BANK4   BANK5   BANK6
  6891 ;;      Params:         0       0       0       0       0       0       0       0
  6892 ;;      Locals:         0       0       0       0       0       0       0       0
  6893 ;;      Temps:          0       0       0       0       0       0       0       0
  6894 ;;      Totals:         0       0       0       0       0       0       0       0
  6895 ;;Total ram usage:        0 bytes
  6896 ;; Hardware stack levels used: 1
  6897 ;; Hardware stack levels required when called: 8
  6898 ;; This function calls:
  6899 ;;		_TrunLight
  6900 ;; This function is called by:
  6901 ;;		_processLIN
  6902 ;; This function uses a non-reentrant model
  6903 ;;
  6904                           
  6905     0E05                     _RIGHT_ON:	
  6906                           ;psect for function _RIGHT_ON
  6907                           
  6908     0E05                     l2957:	
  6909                           ;incstack = 0
  6910                           ; Regs used in _RIGHT_ON: [wreg+status,2+status,0+pclath+cstack]
  6911                           
  6912                           
  6913                           ;mcc_generated_files/LINDrivers/lin_app.c: 183:   (INTCONbits.GIE = 0);
  6914     0E05  138B               	bcf	11,7	;volatile
  6915     0E06                     l2959:
  6916                           
  6917                           ;mcc_generated_files/LINDrivers/lin_app.c: 184:   TrunLight(255);
  6918     0E06  30FF               	movlw	255
  6919     0E07  3183  234A  318E   	fcall	_TrunLight
  6920     0E0A                     l2961:
  6921                           
  6922                           ;mcc_generated_files/LINDrivers/lin_app.c: 186:   (INTCONbits.GIE = 1);
  6923     0E0A  178B               	bsf	11,7	;volatile
  6924     0E0B                     l84:
  6925     0E0B  0008               	return
  6926     0E0C                     __end_of_RIGHT_ON:
  6927                           
  6928                           	psect	text29
  6929     0F55                     __ptext29:	
  6930 ;; *************** function _RIGHT_OFF *****************
  6931 ;; Defined at:
  6932 ;;		line 195 in file "mcc_generated_files/LINDrivers/lin_app.c"
  6933 ;; Parameters:    Size  Location     Type
  6934 ;;		None
  6935 ;; Auto vars:     Size  Location     Type
  6936 ;;		None
  6937 ;; Return value:  Size  Location     Type
  6938 ;;                  1    wreg      void 
  6939 ;; Registers used:
  6940 ;;		wreg, status,2, status,0, pclath, cstack
  6941 ;; Tracked objects:
  6942 ;;		On entry : 0/0
  6943 ;;		On exit  : 0/0
  6944 ;;		Unchanged: 0/0
  6945 ;; Data sizes:     COMMON   BANK0   BANK1   BANK2   BANK3   BANK4   BANK5   BANK6
  6946 ;;      Params:         0       0       0       0       0       0       0       0
  6947 ;;      Locals:         0       0       0       0       0       0       0       0
  6948 ;;      Temps:          0       0       0       0       0       0       0       0
  6949 ;;      Totals:         0       0       0       0       0       0       0       0
  6950 ;;Total ram usage:        0 bytes
  6951 ;; Hardware stack levels used: 1
  6952 ;; Hardware stack levels required when called: 7
  6953 ;; This function calls:
  6954 ;;		_Delay_ms
  6955 ;;		_LED_OFF
  6956 ;; This function is called by:
  6957 ;;		_processLIN
  6958 ;; This function uses a non-reentrant model
  6959 ;;
  6960                           
  6961     0F55                     _RIGHT_OFF:	
  6962                           ;psect for function _RIGHT_OFF
  6963                           
  6964     0F55                     l2969:	
  6965                           ;incstack = 0
  6966                           ; Regs used in _RIGHT_OFF: [wreg+status,2+status,0+pclath+cstack]
  6967                           
  6968                           
  6969                           ;mcc_generated_files/LINDrivers/lin_app.c: 197:   (INTCONbits.GIE = 0);
  6970     0F55  138B               	bcf	11,7	;volatile
  6971     0F56                     l2971:
  6972                           
  6973                           ;mcc_generated_files/LINDrivers/lin_app.c: 198:   Delay_ms(1);
  6974     0F56  3001               	movlw	1
  6975     0F57  00F2               	movwf	Delay_ms@input_ms
  6976     0F58  3000               	movlw	0
  6977     0F59  00F3               	movwf	Delay_ms@input_ms+1
  6978     0F5A  318F  271F  318F   	fcall	_Delay_ms
  6979                           
  6980                           ;mcc_generated_files/LINDrivers/lin_app.c: 199:   Delay_ms(1);
  6981     0F5D  3001               	movlw	1
  6982     0F5E  00F2               	movwf	Delay_ms@input_ms
  6983     0F5F  3000               	movlw	0
  6984     0F60  00F3               	movwf	Delay_ms@input_ms+1
  6985     0F61  318F  271F  318F   	fcall	_Delay_ms
  6986                           
  6987                           ;mcc_generated_files/LINDrivers/lin_app.c: 200:   LED_OFF();
  6988     0F64  318D  25C7  318F   	fcall	_LED_OFF
  6989                           
  6990                           ;mcc_generated_files/LINDrivers/lin_app.c: 201:   Delay_ms(1);
  6991     0F67  3001               	movlw	1
  6992     0F68  00F2               	movwf	Delay_ms@input_ms
  6993     0F69  3000               	movlw	0
  6994     0F6A  00F3               	movwf	Delay_ms@input_ms+1
  6995     0F6B  318F  271F  318F   	fcall	_Delay_ms
  6996     0F6E                     l2973:
  6997                           
  6998                           ;mcc_generated_files/LINDrivers/lin_app.c: 203:   (INTCONbits.GIE = 1);
  6999     0F6E  178B               	bsf	11,7	;volatile
  7000     0F6F                     l90:
  7001     0F6F  0008               	return
  7002     0F70                     __end_of_RIGHT_OFF:
  7003                           
  7004                           	psect	text30
  7005     0002                     __ptext30:	
  7006 ;; *************** function _POS_ON *****************
  7007 ;; Defined at:
  7008 ;;		line 141 in file "mcc_generated_files/LINDrivers/lin_app.c"
  7009 ;; Parameters:    Size  Location     Type
  7010 ;;		None
  7011 ;; Auto vars:     Size  Location     Type
  7012 ;;		None
  7013 ;; Return value:  Size  Location     Type
  7014 ;;                  1    wreg      void 
  7015 ;; Registers used:
  7016 ;;		None
  7017 ;; Tracked objects:
  7018 ;;		On entry : 0/0
  7019 ;;		On exit  : 0/0
  7020 ;;		Unchanged: 0/0
  7021 ;; Data sizes:     COMMON   BANK0   BANK1   BANK2   BANK3   BANK4   BANK5   BANK6
  7022 ;;      Params:         0       0       0       0       0       0       0       0
  7023 ;;      Locals:         0       0       0       0       0       0       0       0
  7024 ;;      Temps:          0       0       0       0       0       0       0       0
  7025 ;;      Totals:         0       0       0       0       0       0       0       0
  7026 ;;Total ram usage:        0 bytes
  7027 ;; Hardware stack levels used: 1
  7028 ;; Hardware stack levels required when called: 4
  7029 ;; This function calls:
  7030 ;;		Nothing
  7031 ;; This function is called by:
  7032 ;;		_processLIN
  7033 ;; This function uses a non-reentrant model
  7034 ;;
  7035                           
  7036     0002                     _POS_ON:	
  7037                           ;psect for function _POS_ON
  7038                           
  7039     0002                     l39:	
  7040                           ;incstack = 0
  7041                           ; Regs used in _POS_ON: []
  7042                           
  7043     0002  0008               	return
  7044     0003                     __end_of_POS_ON:
  7045                           
  7046                           	psect	text31
  7047     0D8A                     __ptext31:	
  7048 ;; *************** function _POS_OFF *****************
  7049 ;; Defined at:
  7050 ;;		line 142 in file "mcc_generated_files/LINDrivers/lin_app.c"
  7051 ;; Parameters:    Size  Location     Type
  7052 ;;		None
  7053 ;; Auto vars:     Size  Location     Type
  7054 ;;		None
  7055 ;; Return value:  Size  Location     Type
  7056 ;;                  1    wreg      void 
  7057 ;; Registers used:
  7058 ;;		None
  7059 ;; Tracked objects:
  7060 ;;		On entry : 0/0
  7061 ;;		On exit  : 0/0
  7062 ;;		Unchanged: 0/0
  7063 ;; Data sizes:     COMMON   BANK0   BANK1   BANK2   BANK3   BANK4   BANK5   BANK6
  7064 ;;      Params:         0       0       0       0       0       0       0       0
  7065 ;;      Locals:         0       0       0       0       0       0       0       0
  7066 ;;      Temps:          0       0       0       0       0       0       0       0
  7067 ;;      Totals:         0       0       0       0       0       0       0       0
  7068 ;;Total ram usage:        0 bytes
  7069 ;; Hardware stack levels used: 1
  7070 ;; Hardware stack levels required when called: 4
  7071 ;; This function calls:
  7072 ;;		Nothing
  7073 ;; This function is called by:
  7074 ;;		_processLIN
  7075 ;; This function uses a non-reentrant model
  7076 ;;
  7077                           
  7078     0D8A                     _POS_OFF:	
  7079                           ;psect for function _POS_OFF
  7080                           
  7081     0D8A                     l42:	
  7082                           ;incstack = 0
  7083                           ; Regs used in _POS_OFF: []
  7084                           
  7085     0D8A  0008               	return
  7086     0D8B                     __end_of_POS_OFF:
  7087                           
  7088                           	psect	text32
  7089     0D91                     __ptext32:	
  7090 ;; *************** function _LOBEAM_ON *****************
  7091 ;; Defined at:
  7092 ;;		line 145 in file "mcc_generated_files/LINDrivers/lin_app.c"
  7093 ;; Parameters:    Size  Location     Type
  7094 ;;		None
  7095 ;; Auto vars:     Size  Location     Type
  7096 ;;		None
  7097 ;; Return value:  Size  Location     Type
  7098 ;;                  1    wreg      void 
  7099 ;; Registers used:
  7100 ;;		None
  7101 ;; Tracked objects:
  7102 ;;		On entry : 0/0
  7103 ;;		On exit  : 0/0
  7104 ;;		Unchanged: 0/0
  7105 ;; Data sizes:     COMMON   BANK0   BANK1   BANK2   BANK3   BANK4   BANK5   BANK6
  7106 ;;      Params:         0       0       0       0       0       0       0       0
  7107 ;;      Locals:         0       0       0       0       0       0       0       0
  7108 ;;      Temps:          0       0       0       0       0       0       0       0
  7109 ;;      Totals:         0       0       0       0       0       0       0       0
  7110 ;;Total ram usage:        0 bytes
  7111 ;; Hardware stack levels used: 1
  7112 ;; Hardware stack levels required when called: 4
  7113 ;; This function calls:
  7114 ;;		Nothing
  7115 ;; This function is called by:
  7116 ;;		_processLIN
  7117 ;; This function uses a non-reentrant model
  7118 ;;
  7119                           
  7120     0D91                     _LOBEAM_ON:	
  7121                           ;psect for function _LOBEAM_ON
  7122                           
  7123     0D91                     l51:	
  7124                           ;incstack = 0
  7125                           ; Regs used in _LOBEAM_ON: []
  7126                           
  7127     0D91  0022               	movlb	2	; select bank2
  7128     0D92  148D               	bsf	13,1	;volatile
  7129     0D93                     l53:
  7130     0D93  0008               	return
  7131     0D94                     __end_of_LOBEAM_ON:
  7132                           
  7133                           	psect	text33
  7134     0D8E                     __ptext33:	
  7135 ;; *************** function _LOBEAM_OFF *****************
  7136 ;; Defined at:
  7137 ;;		line 146 in file "mcc_generated_files/LINDrivers/lin_app.c"
  7138 ;; Parameters:    Size  Location     Type
  7139 ;;		None
  7140 ;; Auto vars:     Size  Location     Type
  7141 ;;		None
  7142 ;; Return value:  Size  Location     Type
  7143 ;;                  1    wreg      void 
  7144 ;; Registers used:
  7145 ;;		None
  7146 ;; Tracked objects:
  7147 ;;		On entry : 0/0
  7148 ;;		On exit  : 0/0
  7149 ;;		Unchanged: 0/0
  7150 ;; Data sizes:     COMMON   BANK0   BANK1   BANK2   BANK3   BANK4   BANK5   BANK6
  7151 ;;      Params:         0       0       0       0       0       0       0       0
  7152 ;;      Locals:         0       0       0       0       0       0       0       0
  7153 ;;      Temps:          0       0       0       0       0       0       0       0
  7154 ;;      Totals:         0       0       0       0       0       0       0       0
  7155 ;;Total ram usage:        0 bytes
  7156 ;; Hardware stack levels used: 1
  7157 ;; Hardware stack levels required when called: 4
  7158 ;; This function calls:
  7159 ;;		Nothing
  7160 ;; This function is called by:
  7161 ;;		_processLIN
  7162 ;; This function uses a non-reentrant model
  7163 ;;
  7164                           
  7165     0D8E                     _LOBEAM_OFF:	
  7166                           ;psect for function _LOBEAM_OFF
  7167                           
  7168     0D8E                     l56:	
  7169                           ;incstack = 0
  7170                           ; Regs used in _LOBEAM_OFF: []
  7171                           
  7172     0D8E  0022               	movlb	2	; select bank2
  7173     0D8F  108D               	bcf	13,1	;volatile
  7174     0D90                     l58:
  7175     0D90  0008               	return
  7176     0D91                     __end_of_LOBEAM_OFF:
  7177                           
  7178                           	psect	text34
  7179     0FA6                     __ptext34:	
  7180 ;; *************** function _LIN_getPacket *****************
  7181 ;; Defined at:
  7182 ;;		line 223 in file "mcc_generated_files/LINDrivers/lin_slave.c"
  7183 ;; Parameters:    Size  Location     Type
  7184 ;;  data            1    wreg     PTR unsigned char 
  7185 ;;		 -> processLIN@tempRxData(8), 
  7186 ;; Auto vars:     Size  Location     Type
  7187 ;;  data            1   10[COMMON] PTR unsigned char 
  7188 ;;		 -> processLIN@tempRxData(8), 
  7189 ;;  cmd             1    9[COMMON] unsigned char 
  7190 ;; Return value:  Size  Location     Type
  7191 ;;                  1    wreg      unsigned char 
  7192 ;; Registers used:
  7193 ;;		wreg, fsr1l, fsr1h, status,2, status,0, pclath, cstack
  7194 ;; Tracked objects:
  7195 ;;		On entry : 0/0
  7196 ;;		On exit  : 0/0
  7197 ;;		Unchanged: 0/0
  7198 ;; Data sizes:     COMMON   BANK0   BANK1   BANK2   BANK3   BANK4   BANK5   BANK6
  7199 ;;      Params:         0       0       0       0       0       0       0       0
  7200 ;;      Locals:         2       0       0       0       0       0       0       0
  7201 ;;      Temps:          0       0       0       0       0       0       0       0
  7202 ;;      Totals:         2       0       0       0       0       0       0       0
  7203 ;;Total ram usage:        2 bytes
  7204 ;; Hardware stack levels used: 1
  7205 ;; Hardware stack levels required when called: 5
  7206 ;; This function calls:
  7207 ;;		_memcpy
  7208 ;;		_memset
  7209 ;; This function is called by:
  7210 ;;		_processLIN
  7211 ;; This function uses a non-reentrant model
  7212 ;;
  7213                           
  7214     0FA6                     _LIN_getPacket:	
  7215                           ;psect for function _LIN_getPacket
  7216                           
  7217                           
  7218                           ;incstack = 0
  7219                           ; Regs used in _LIN_getPacket: [wreg+fsr1l+fsr1h+status,2+status,0+pclath+cstack]
  7220                           ;LIN_getPacket@data stored from wreg
  7221     0FA6  00FA               	movwf	LIN_getPacket@data
  7222     0FA7                     l2983:
  7223                           
  7224                           ;mcc_generated_files/LINDrivers/lin_slave.c: 224:   uint8_t cmd = LIN_packet.PID & 0x3F;
  7225     0FA7  0020               	movlb	0	; select bank0
  7226     0FA8  0850               	movf	_LIN_packet,w
  7227     0FA9  393F               	andlw	63
  7228     0FAA  00F9               	movwf	LIN_getPacket@cmd
  7229     0FAB                     l2985:
  7230                           
  7231                           ;mcc_generated_files/LINDrivers/lin_slave.c: 226:   memcpy(data, LIN_packet.data, sizeof
      +                          (LIN_packet.data));
  7232     0FAB  3051               	movlw	(low ((_LIN_packet| 0+1)))& (0+255)
  7233     0FAC  00F1               	movwf	memcpy@s1
  7234     0FAD  3008               	movlw	8
  7235     0FAE  00F2               	movwf	memcpy@n
  7236     0FAF  3000               	movlw	0
  7237     0FB0  00F3               	movwf	memcpy@n+1
  7238     0FB1  087A               	movf	LIN_getPacket@data,w
  7239     0FB2  3187  27AA  318F   	fcall	_memcpy
  7240     0FB5                     l2987:
  7241                           
  7242                           ;mcc_generated_files/LINDrivers/lin_slave.c: 227:   memset(LIN_packet.rawPacket, 0, size
      +                          of(LIN_packet.rawPacket));
  7243     0FB5  3000               	movlw	0
  7244     0FB6  00F1               	movwf	memset@c
  7245     0FB7  00F2               	movwf	memset@c+1
  7246     0FB8  300D               	movlw	13
  7247     0FB9  00F3               	movwf	memset@n
  7248     0FBA  3000               	movlw	0
  7249     0FBB  00F4               	movwf	memset@n+1
  7250     0FBC  3050               	movlw	(low (_LIN_packet| 0))& (0+255)
  7251     0FBD  318F  2705  318F   	fcall	_memset
  7252     0FC0                     l2989:
  7253                           
  7254                           ;mcc_generated_files/LINDrivers/lin_slave.c: 229:   return cmd;
  7255     0FC0  0879               	movf	LIN_getPacket@cmd,w
  7256     0FC1                     l260:
  7257     0FC1  0008               	return
  7258     0FC2                     __end_of_LIN_getPacket:
  7259                           
  7260                           	psect	text35
  7261     0F05                     __ptext35:	
  7262 ;; *************** function _memset *****************
  7263 ;; Defined at:
  7264 ;;		line 3 in file "C:\Program Files\Microchip\xc8\v2.46\pic\sources\c99\common\memset.c"
  7265 ;; Parameters:    Size  Location     Type
  7266 ;;  dest            1    wreg     PTR void 
  7267 ;;		 -> LIN_packet(13), 
  7268 ;;  c               2    1[COMMON] int 
  7269 ;;  n               2    3[COMMON] unsigned int 
  7270 ;; Auto vars:     Size  Location     Type
  7271 ;;  dest            1    7[COMMON] PTR void 
  7272 ;;		 -> LIN_packet(13), 
  7273 ;;  p               1    6[COMMON] PTR unsigned char 
  7274 ;;		 -> LIN_packet(13), 
  7275 ;; Return value:  Size  Location     Type
  7276 ;;                  1    wreg      PTR void 
  7277 ;; Registers used:
  7278 ;;		wreg, fsr1l, fsr1h, status,2, status,0
  7279 ;; Tracked objects:
  7280 ;;		On entry : 0/0
  7281 ;;		On exit  : 0/0
  7282 ;;		Unchanged: 0/0
  7283 ;; Data sizes:     COMMON   BANK0   BANK1   BANK2   BANK3   BANK4   BANK5   BANK6
  7284 ;;      Params:         4       0       0       0       0       0       0       0
  7285 ;;      Locals:         2       0       0       0       0       0       0       0
  7286 ;;      Temps:          1       0       0       0       0       0       0       0
  7287 ;;      Totals:         7       0       0       0       0       0       0       0
  7288 ;;Total ram usage:        7 bytes
  7289 ;; Hardware stack levels used: 1
  7290 ;; Hardware stack levels required when called: 4
  7291 ;; This function calls:
  7292 ;;		Nothing
  7293 ;; This function is called by:
  7294 ;;		_LIN_handler
  7295 ;;		_LIN_getPacket
  7296 ;; This function uses a non-reentrant model
  7297 ;;
  7298                           
  7299     0F05                     _memset:	
  7300                           ;psect for function _memset
  7301                           
  7302                           
  7303                           ;incstack = 0
  7304                           ; Regs used in _memset: [wreg+fsr1l+fsr1h+status,2+status,0]
  7305                           ;memset@dest stored from wreg
  7306     0F05  00F7               	movwf	memset@dest
  7307     0F06                     l2913:
  7308     0F06  0877               	movf	memset@dest,w
  7309     0F07  00F6               	movwf	memset@p
  7310     0F08  2F12               	goto	l2919
  7311     0F09                     l2915:
  7312     0F09  0876               	movf	memset@p,w
  7313     0F0A  0086               	movwf	6
  7314     0F0B  0187               	clrf	7
  7315     0F0C  0871               	movf	memset@c,w
  7316     0F0D  0081               	movwf	1
  7317     0F0E                     l2917:
  7318     0F0E  3001               	movlw	1
  7319     0F0F  00F5               	movwf	??_memset
  7320     0F10  0875               	movf	??_memset,w
  7321     0F11  07F6               	addwf	memset@p,f
  7322     0F12                     l2919:
  7323     0F12  3001               	movlw	1
  7324     0F13  02F3               	subwf	memset@n,f
  7325     0F14  3000               	movlw	0
  7326     0F15  3BF4               	subwfb	memset@n+1,f
  7327     0F16  0A73               	incf	memset@n,w
  7328     0F17  1D03               	skipz
  7329     0F18  2F1D               	goto	u1711
  7330     0F19  0A74               	incf	memset@n+1,w
  7331     0F1A  1D03               	btfss	3,2
  7332     0F1B  2F1D               	goto	u1711
  7333     0F1C  2F1E               	goto	u1710
  7334     0F1D                     u1711:
  7335     0F1D  2F09               	goto	l2915
  7336     0F1E                     u1710:
  7337     0F1E                     l1535:
  7338     0F1E  0008               	return
  7339     0F1F                     __end_of_memset:
  7340                           
  7341                           	psect	text36
  7342     0DFE                     __ptext36:	
  7343 ;; *************** function _LEFT_ON2 *****************
  7344 ;; Defined at:
  7345 ;;		line 163 in file "mcc_generated_files/LINDrivers/lin_app.c"
  7346 ;; Parameters:    Size  Location     Type
  7347 ;;		None
  7348 ;; Auto vars:     Size  Location     Type
  7349 ;;		None
  7350 ;; Return value:  Size  Location     Type
  7351 ;;                  1    wreg      void 
  7352 ;; Registers used:
  7353 ;;		wreg, status,2, status,0, pclath, cstack
  7354 ;; Tracked objects:
  7355 ;;		On entry : 0/0
  7356 ;;		On exit  : 0/0
  7357 ;;		Unchanged: 0/0
  7358 ;; Data sizes:     COMMON   BANK0   BANK1   BANK2   BANK3   BANK4   BANK5   BANK6
  7359 ;;      Params:         0       0       0       0       0       0       0       0
  7360 ;;      Locals:         0       0       0       0       0       0       0       0
  7361 ;;      Temps:          0       0       0       0       0       0       0       0
  7362 ;;      Totals:         0       0       0       0       0       0       0       0
  7363 ;;Total ram usage:        0 bytes
  7364 ;; Hardware stack levels used: 1
  7365 ;; Hardware stack levels required when called: 7
  7366 ;; This function calls:
  7367 ;;		_LED_ON
  7368 ;; This function is called by:
  7369 ;;		_processLIN
  7370 ;; This function uses a non-reentrant model
  7371 ;;
  7372                           
  7373     0DFE                     _LEFT_ON2:	
  7374                           ;psect for function _LEFT_ON2
  7375                           
  7376     0DFE                     l2945:	
  7377                           ;incstack = 0
  7378                           ; Regs used in _LEFT_ON2: [wreg+status,2+status,0+pclath+cstack]
  7379                           
  7380                           
  7381                           ;mcc_generated_files/LINDrivers/lin_app.c: 165:   (INTCONbits.GIE = 0);
  7382     0DFE  138B               	bcf	11,7	;volatile
  7383     0DFF                     l2947:
  7384                           
  7385                           ;mcc_generated_files/LINDrivers/lin_app.c: 166:   LED_ON(255);
  7386     0DFF  30FF               	movlw	255
  7387     0E00  318E  262C  318D   	fcall	_LED_ON
  7388     0E03                     l2949:
  7389                           
  7390                           ;mcc_generated_files/LINDrivers/lin_app.c: 168:   (INTCONbits.GIE = 1);
  7391     0E03  178B               	bsf	11,7	;volatile
  7392     0E04                     l78:
  7393     0E04  0008               	return
  7394     0E05                     __end_of_LEFT_ON2:
  7395                           
  7396                           	psect	text37
  7397     0E2C                     __ptext37:	
  7398 ;; *************** function _LED_ON *****************
  7399 ;; Defined at:
  7400 ;;		line 78 in file "PWM.c"
  7401 ;; Parameters:    Size  Location     Type
  7402 ;;  InputData       1    wreg     unsigned char 
  7403 ;; Auto vars:     Size  Location     Type
  7404 ;;  InputData       1   10[COMMON] unsigned char 
  7405 ;;  data            1   11[COMMON] unsigned char 
  7406 ;; Return value:  Size  Location     Type
  7407 ;;                  1    wreg      void 
  7408 ;; Registers used:
  7409 ;;		wreg, status,2, status,0, pclath, cstack
  7410 ;; Tracked objects:
  7411 ;;		On entry : 0/0
  7412 ;;		On exit  : 0/0
  7413 ;;		Unchanged: 0/0
  7414 ;; Data sizes:     COMMON   BANK0   BANK1   BANK2   BANK3   BANK4   BANK5   BANK6
  7415 ;;      Params:         0       0       0       0       0       0       0       0
  7416 ;;      Locals:         2       0       0       0       0       0       0       0
  7417 ;;      Temps:          0       0       0       0       0       0       0       0
  7418 ;;      Totals:         2       0       0       0       0       0       0       0
  7419 ;;Total ram usage:        2 bytes
  7420 ;; Hardware stack levels used: 1
  7421 ;; Hardware stack levels required when called: 6
  7422 ;; This function calls:
  7423 ;;		_LED_SET
  7424 ;; This function is called by:
  7425 ;;		_LEFT_ON2
  7426 ;;		_RIGHT_ON2
  7427 ;;		_testmode
  7428 ;;		_WelcomeLight
  7429 ;; This function uses a non-reentrant model
  7430 ;;
  7431                           
  7432     0E2C                     _LED_ON:	
  7433                           ;psect for function _LED_ON
  7434                           
  7435                           
  7436                           ;incstack = 0
  7437                           ; Regs used in _LED_ON: [wreg+status,2+status,0+pclath+cstack]
  7438                           ;LED_ON@InputData stored from wreg
  7439     0E2C  00FA               	movwf	LED_ON@InputData
  7440     0E2D                     l2875:
  7441                           
  7442                           ;PWM.c: 79:     uint8_t data = InputData;
  7443     0E2D  087A               	movf	LED_ON@InputData,w
  7444     0E2E  00FB               	movwf	LED_ON@data
  7445     0E2F                     l2877:
  7446                           
  7447                           ;PWM.c: 80:     LED_SET(((4 * 3) + (2 * 3)), data);
  7448     0E2F  087B               	movf	LED_ON@data,w
  7449     0E30  00F4               	movwf	LED_SET@InputData
  7450     0E31  3012               	movlw	18
  7451     0E32  318E  26A7  318E   	fcall	_LED_SET
  7452     0E35                     l804:
  7453     0E35  0008               	return
  7454     0E36                     __end_of_LED_ON:
  7455                           
  7456                           	psect	text38
  7457     0DF7                     __ptext38:	
  7458 ;; *************** function _LEFT_ON *****************
  7459 ;; Defined at:
  7460 ;;		line 156 in file "mcc_generated_files/LINDrivers/lin_app.c"
  7461 ;; Parameters:    Size  Location     Type
  7462 ;;		None
  7463 ;; Auto vars:     Size  Location     Type
  7464 ;;		None
  7465 ;; Return value:  Size  Location     Type
  7466 ;;                  1    wreg      void 
  7467 ;; Registers used:
  7468 ;;		wreg, status,2, status,0, pclath, cstack
  7469 ;; Tracked objects:
  7470 ;;		On entry : 0/0
  7471 ;;		On exit  : 0/0
  7472 ;;		Unchanged: 0/0
  7473 ;; Data sizes:     COMMON   BANK0   BANK1   BANK2   BANK3   BANK4   BANK5   BANK6
  7474 ;;      Params:         0       0       0       0       0       0       0       0
  7475 ;;      Locals:         0       0       0       0       0       0       0       0
  7476 ;;      Temps:          0       0       0       0       0       0       0       0
  7477 ;;      Totals:         0       0       0       0       0       0       0       0
  7478 ;;Total ram usage:        0 bytes
  7479 ;; Hardware stack levels used: 1
  7480 ;; Hardware stack levels required when called: 8
  7481 ;; This function calls:
  7482 ;;		_TrunLight
  7483 ;; This function is called by:
  7484 ;;		_processLIN
  7485 ;; This function uses a non-reentrant model
  7486 ;;
  7487                           
  7488     0DF7                     _LEFT_ON:	
  7489                           ;psect for function _LEFT_ON
  7490                           
  7491     0DF7                     l2939:	
  7492                           ;incstack = 0
  7493                           ; Regs used in _LEFT_ON: [wreg+status,2+status,0+pclath+cstack]
  7494                           
  7495                           
  7496                           ;mcc_generated_files/LINDrivers/lin_app.c: 158:   (INTCONbits.GIE = 0);
  7497     0DF7  138B               	bcf	11,7	;volatile
  7498     0DF8                     l2941:
  7499                           
  7500                           ;mcc_generated_files/LINDrivers/lin_app.c: 159:   TrunLight(255);
  7501     0DF8  30FF               	movlw	255
  7502     0DF9  3183  234A  318D   	fcall	_TrunLight
  7503     0DFC                     l2943:
  7504                           
  7505                           ;mcc_generated_files/LINDrivers/lin_app.c: 161:   (INTCONbits.GIE = 1);
  7506     0DFC  178B               	bsf	11,7	;volatile
  7507     0DFD                     l75:
  7508     0DFD  0008               	return
  7509     0DFE                     __end_of_LEFT_ON:
  7510                           
  7511                           	psect	text39
  7512     034A                     __ptext39:	
  7513 ;; *************** function _TrunLight *****************
  7514 ;; Defined at:
  7515 ;;		line 212 in file "PWM.c"
  7516 ;; Parameters:    Size  Location     Type
  7517 ;;  InputData       1    wreg     unsigned char 
  7518 ;; Auto vars:     Size  Location     Type
  7519 ;;  InputData       1    0[BANK0 ] unsigned char 
  7520 ;;  i               1    1[BANK0 ] unsigned char 
  7521 ;;  seg2_num        1    4[BANK0 ] unsigned char 
  7522 ;;  seg1_num        1    3[BANK0 ] unsigned char 
  7523 ;;  data            1    2[BANK0 ] unsigned char 
  7524 ;; Return value:  Size  Location     Type
  7525 ;;                  1    wreg      void 
  7526 ;; Registers used:
  7527 ;;		wreg, status,2, status,0, pclath, cstack
  7528 ;; Tracked objects:
  7529 ;;		On entry : 0/0
  7530 ;;		On exit  : 0/0
  7531 ;;		Unchanged: 0/0
  7532 ;; Data sizes:     COMMON   BANK0   BANK1   BANK2   BANK3   BANK4   BANK5   BANK6
  7533 ;;      Params:         0       0       0       0       0       0       0       0
  7534 ;;      Locals:         0       5       0       0       0       0       0       0
  7535 ;;      Temps:          1       0       0       0       0       0       0       0
  7536 ;;      Totals:         1       5       0       0       0       0       0       0
  7537 ;;Total ram usage:        6 bytes
  7538 ;; Hardware stack levels used: 1
  7539 ;; Hardware stack levels required when called: 7
  7540 ;; This function calls:
  7541 ;;		_Delay_ms
  7542 ;;		_LED_OFF
  7543 ;;		_LED_SET
  7544 ;; This function is called by:
  7545 ;;		_LEFT_ON
  7546 ;;		_RIGHT_ON
  7547 ;; This function uses a non-reentrant model
  7548 ;;
  7549                           
  7550     034A                     _TrunLight:	
  7551                           ;psect for function _TrunLight
  7552                           
  7553                           
  7554                           ;incstack = 0
  7555                           ; Regs used in _TrunLight: [wreg+status,2+status,0+pclath+cstack]
  7556                           ;TrunLight@InputData stored from wreg
  7557     034A  0020               	movlb	0	; select bank0
  7558     034B  00DD               	movwf	TrunLight@InputData
  7559     034C                     l2815:
  7560                           
  7561                           ;PWM.c: 213:   uint8_t data = InputData;
  7562     034C  085D               	movf	TrunLight@InputData,w
  7563     034D  00DF               	movwf	TrunLight@data
  7564     034E                     l2817:
  7565                           
  7566                           ;PWM.c: 214:   uint8_t seg1_num = 0;
  7567     034E  01E0               	clrf	TrunLight@seg1_num
  7568     034F                     l2819:
  7569                           
  7570                           ;PWM.c: 215:   uint8_t seg2_num = 1;
  7571     034F  01E1               	clrf	TrunLight@seg2_num
  7572     0350  0AE1               	incf	TrunLight@seg2_num,f
  7573     0351                     l2821:
  7574                           
  7575                           ;PWM.c: 216:   fColorSeletDisable = 1;
  7576     0351  01BB               	clrf	_fColorSeletDisable
  7577     0352  0ABB               	incf	_fColorSeletDisable,f
  7578     0353                     l2823:
  7579                           
  7580                           ;PWM.c: 218:   LATCbits.LATC5 = 1;
  7581     0353  0022               	movlb	2	; select bank2
  7582     0354  168E               	bsf	14,5	;volatile
  7583     0355                     l2825:
  7584                           
  7585                           ;PWM.c: 219:   LATCbits.LATC4 = 0;
  7586     0355  120E               	bcf	14,4	;volatile
  7587     0356                     l2827:
  7588                           
  7589                           ;PWM.c: 221:   LED_OFF();
  7590     0356  318D  25C7  3183   	fcall	_LED_OFF
  7591     0359                     l2829:
  7592                           
  7593                           ;PWM.c: 222:   Delay_ms(1);
  7594     0359  3001               	movlw	1
  7595     035A  00F2               	movwf	Delay_ms@input_ms
  7596     035B  3000               	movlw	0
  7597     035C  00F3               	movwf	Delay_ms@input_ms+1
  7598     035D  318F  271F  3183   	fcall	_Delay_ms
  7599     0360                     l2831:
  7600                           
  7601                           ;PWM.c: 224:   LED_SET(seg1_num, data);
  7602     0360  0020               	movlb	0	; select bank0
  7603     0361  085F               	movf	TrunLight@data,w
  7604     0362  00F4               	movwf	LED_SET@InputData
  7605     0363  3000               	movlw	0
  7606     0364  318E  26A7  3183   	fcall	_LED_SET
  7607     0367                     l2833:
  7608                           
  7609                           ;PWM.c: 225:   LED_SET((4 * 3) - seg1_num, 0x00);
  7610     0367  01F4               	clrf	LED_SET@InputData
  7611     0368  300C               	movlw	12
  7612     0369  318E  26A7  3183   	fcall	_LED_SET
  7613     036C                     l2835:
  7614                           
  7615                           ;PWM.c: 226:   LED_SET(seg2_num, data);
  7616     036C  0020               	movlb	0	; select bank0
  7617     036D  085F               	movf	TrunLight@data,w
  7618     036E  00F4               	movwf	LED_SET@InputData
  7619     036F  3001               	movlw	1
  7620     0370  318E  26A7  3183   	fcall	_LED_SET
  7621     0373                     l2837:
  7622                           
  7623                           ;PWM.c: 227:   LED_SET((2 * 3) - seg2_num, 0x00);
  7624     0373  01F4               	clrf	LED_SET@InputData
  7625     0374  3005               	movlw	5
  7626     0375  318E  26A7  3183   	fcall	_LED_SET
  7627     0378                     l2839:
  7628                           
  7629                           ;PWM.c: 228:   Delay_ms(50);
  7630     0378  3032               	movlw	50
  7631     0379  00F2               	movwf	Delay_ms@input_ms
  7632     037A  3000               	movlw	0
  7633     037B  00F3               	movwf	Delay_ms@input_ms+1
  7634     037C  318F  271F  3183   	fcall	_Delay_ms
  7635     037F                     l2841:
  7636                           
  7637                           ;PWM.c: 231:   for (uint8_t i = 0; i < (2 * 3) - 2; i++) {
  7638     037F  0020               	movlb	0	; select bank0
  7639     0380  01DE               	clrf	TrunLight@i
  7640     0381                     l2847:
  7641                           
  7642                           ;PWM.c: 232:     seg1_num += 1;
  7643     0381  3001               	movlw	1
  7644     0382  00FA               	movwf	??_TrunLight
  7645     0383  087A               	movf	??_TrunLight,w
  7646     0384  07E0               	addwf	TrunLight@seg1_num,f
  7647                           
  7648                           ;PWM.c: 233:     seg2_num += 1;
  7649     0385  3001               	movlw	1
  7650     0386  00FA               	movwf	??_TrunLight
  7651     0387  087A               	movf	??_TrunLight,w
  7652     0388  07E1               	addwf	TrunLight@seg2_num,f
  7653     0389                     l2849:
  7654                           
  7655                           ;PWM.c: 234:     LED_SET(seg1_num, data);
  7656     0389  085F               	movf	TrunLight@data,w
  7657     038A  00F4               	movwf	LED_SET@InputData
  7658     038B  0860               	movf	TrunLight@seg1_num,w
  7659     038C  318E  26A7  3183   	fcall	_LED_SET
  7660     038F                     l2851:
  7661                           
  7662                           ;PWM.c: 235:     LED_SET((4 * 3) - seg1_num, 0x00);
  7663     038F  01F4               	clrf	LED_SET@InputData
  7664     0390  0020               	movlb	0	; select bank0
  7665     0391  0860               	movf	TrunLight@seg1_num,w
  7666     0392  3C0C               	sublw	12
  7667     0393  318E  26A7  3183   	fcall	_LED_SET
  7668     0396                     l2853:
  7669                           
  7670                           ;PWM.c: 236:     LED_SET(seg2_num, data);
  7671     0396  0020               	movlb	0	; select bank0
  7672     0397  085F               	movf	TrunLight@data,w
  7673     0398  00F4               	movwf	LED_SET@InputData
  7674     0399  0861               	movf	TrunLight@seg2_num,w
  7675     039A  318E  26A7  3183   	fcall	_LED_SET
  7676     039D                     l2855:
  7677                           
  7678                           ;PWM.c: 237:     LED_SET((2 * 3) - seg2_num, 0x00);
  7679     039D  01F4               	clrf	LED_SET@InputData
  7680     039E  0020               	movlb	0	; select bank0
  7681     039F  0861               	movf	TrunLight@seg2_num,w
  7682     03A0  3C06               	sublw	6
  7683     03A1  318E  26A7  3183   	fcall	_LED_SET
  7684     03A4                     l2857:
  7685                           
  7686                           ;PWM.c: 238:     Delay_ms(50);
  7687     03A4  3032               	movlw	50
  7688     03A5  00F2               	movwf	Delay_ms@input_ms
  7689     03A6  3000               	movlw	0
  7690     03A7  00F3               	movwf	Delay_ms@input_ms+1
  7691     03A8  318F  271F  3183   	fcall	_Delay_ms
  7692     03AB                     l2859:
  7693                           
  7694                           ;PWM.c: 239:   }
  7695     03AB  3001               	movlw	1
  7696     03AC  00FA               	movwf	??_TrunLight
  7697     03AD  087A               	movf	??_TrunLight,w
  7698     03AE  0020               	movlb	0	; select bank0
  7699     03AF  07DE               	addwf	TrunLight@i,f
  7700     03B0                     l2861:
  7701     03B0  3004               	movlw	4
  7702     03B1  025E               	subwf	TrunLight@i,w
  7703     03B2  1C03               	skipc
  7704     03B3  2BB5               	goto	u1671
  7705     03B4  2BB6               	goto	u1670
  7706     03B5                     u1671:
  7707     03B5  2B81               	goto	l2847
  7708     03B6                     u1670:
  7709     03B6                     l2863:
  7710                           
  7711                           ;PWM.c: 243:   seg2_num = 6;
  7712     03B6  3006               	movlw	6
  7713     03B7  00E1               	movwf	TrunLight@seg2_num
  7714     03B8                     l2865:
  7715                           
  7716                           ;PWM.c: 244:   LED_SET(seg1_num, data);
  7717     03B8  085F               	movf	TrunLight@data,w
  7718     03B9  00F4               	movwf	LED_SET@InputData
  7719     03BA  300C               	movlw	12
  7720     03BB  318E  26A7  3183   	fcall	_LED_SET
  7721     03BE                     l2867:
  7722                           
  7723                           ;PWM.c: 245:   LED_SET((4 * 3) - seg1_num, 0x00);
  7724     03BE  01F4               	clrf	LED_SET@InputData
  7725     03BF  3000               	movlw	0
  7726     03C0  318E  26A7  3183   	fcall	_LED_SET
  7727     03C3                     l2869:
  7728                           
  7729                           ;PWM.c: 246:   LED_SET(seg2_num, data);
  7730     03C3  0020               	movlb	0	; select bank0
  7731     03C4  085F               	movf	TrunLight@data,w
  7732     03C5  00F4               	movwf	LED_SET@InputData
  7733     03C6  3006               	movlw	6
  7734     03C7  318E  26A7  3183   	fcall	_LED_SET
  7735     03CA                     l2871:
  7736                           
  7737                           ;PWM.c: 247:   LED_SET((2 * 3) - seg2_num, 0x00);
  7738     03CA  01F4               	clrf	LED_SET@InputData
  7739     03CB  3000               	movlw	0
  7740     03CC  318E  26A7  3183   	fcall	_LED_SET
  7741     03CF                     l2873:
  7742                           
  7743                           ;PWM.c: 248:   Delay_ms(100);
  7744     03CF  3064               	movlw	100
  7745     03D0  00F2               	movwf	Delay_ms@input_ms
  7746     03D1  3000               	movlw	0
  7747     03D2  00F3               	movwf	Delay_ms@input_ms+1
  7748     03D3  318F  271F  3183   	fcall	_Delay_ms
  7749     03D6                     l842:
  7750     03D6  0008               	return
  7751     03D7                     __end_of_TrunLight:
  7752                           
  7753                           	psect	text40
  7754     0F3A                     __ptext40:	
  7755 ;; *************** function _LEFT_OFF *****************
  7756 ;; Defined at:
  7757 ;;		line 171 in file "mcc_generated_files/LINDrivers/lin_app.c"
  7758 ;; Parameters:    Size  Location     Type
  7759 ;;		None
  7760 ;; Auto vars:     Size  Location     Type
  7761 ;;		None
  7762 ;; Return value:  Size  Location     Type
  7763 ;;                  1    wreg      void 
  7764 ;; Registers used:
  7765 ;;		wreg, status,2, status,0, pclath, cstack
  7766 ;; Tracked objects:
  7767 ;;		On entry : 0/0
  7768 ;;		On exit  : 0/0
  7769 ;;		Unchanged: 0/0
  7770 ;; Data sizes:     COMMON   BANK0   BANK1   BANK2   BANK3   BANK4   BANK5   BANK6
  7771 ;;      Params:         0       0       0       0       0       0       0       0
  7772 ;;      Locals:         0       0       0       0       0       0       0       0
  7773 ;;      Temps:          0       0       0       0       0       0       0       0
  7774 ;;      Totals:         0       0       0       0       0       0       0       0
  7775 ;;Total ram usage:        0 bytes
  7776 ;; Hardware stack levels used: 1
  7777 ;; Hardware stack levels required when called: 7
  7778 ;; This function calls:
  7779 ;;		_Delay_ms
  7780 ;;		_LED_OFF
  7781 ;; This function is called by:
  7782 ;;		_processLIN
  7783 ;; This function uses a non-reentrant model
  7784 ;;
  7785                           
  7786     0F3A                     _LEFT_OFF:	
  7787                           ;psect for function _LEFT_OFF
  7788                           
  7789     0F3A                     l2951:	
  7790                           ;incstack = 0
  7791                           ; Regs used in _LEFT_OFF: [wreg+status,2+status,0+pclath+cstack]
  7792                           
  7793                           
  7794                           ;mcc_generated_files/LINDrivers/lin_app.c: 173:   (INTCONbits.GIE = 0);
  7795     0F3A  138B               	bcf	11,7	;volatile
  7796     0F3B                     l2953:
  7797                           
  7798                           ;mcc_generated_files/LINDrivers/lin_app.c: 174:   Delay_ms(1);
  7799     0F3B  3001               	movlw	1
  7800     0F3C  00F2               	movwf	Delay_ms@input_ms
  7801     0F3D  3000               	movlw	0
  7802     0F3E  00F3               	movwf	Delay_ms@input_ms+1
  7803     0F3F  318F  271F  318F   	fcall	_Delay_ms
  7804                           
  7805                           ;mcc_generated_files/LINDrivers/lin_app.c: 175:   Delay_ms(1);
  7806     0F42  3001               	movlw	1
  7807     0F43  00F2               	movwf	Delay_ms@input_ms
  7808     0F44  3000               	movlw	0
  7809     0F45  00F3               	movwf	Delay_ms@input_ms+1
  7810     0F46  318F  271F  318F   	fcall	_Delay_ms
  7811                           
  7812                           ;mcc_generated_files/LINDrivers/lin_app.c: 176:   LED_OFF();
  7813     0F49  318D  25C7  318F   	fcall	_LED_OFF
  7814                           
  7815                           ;mcc_generated_files/LINDrivers/lin_app.c: 177:   Delay_ms(1);
  7816     0F4C  3001               	movlw	1
  7817     0F4D  00F2               	movwf	Delay_ms@input_ms
  7818     0F4E  3000               	movlw	0
  7819     0F4F  00F3               	movwf	Delay_ms@input_ms+1
  7820     0F50  318F  271F  318F   	fcall	_Delay_ms
  7821     0F53                     l2955:
  7822                           
  7823                           ;mcc_generated_files/LINDrivers/lin_app.c: 179:   (INTCONbits.GIE = 1);
  7824     0F53  178B               	bsf	11,7	;volatile
  7825     0F54                     l81:
  7826     0F54  0008               	return
  7827     0F55                     __end_of_LEFT_OFF:
  7828                           
  7829                           	psect	text41
  7830     0DC7                     __ptext41:	
  7831 ;; *************** function _LED_OFF *****************
  7832 ;; Defined at:
  7833 ;;		line 73 in file "PWM.c"
  7834 ;; Parameters:    Size  Location     Type
  7835 ;;		None
  7836 ;; Auto vars:     Size  Location     Type
  7837 ;;		None
  7838 ;; Return value:  Size  Location     Type
  7839 ;;                  1    wreg      void 
  7840 ;; Registers used:
  7841 ;;		wreg, status,2, status,0, pclath, cstack
  7842 ;; Tracked objects:
  7843 ;;		On entry : 0/0
  7844 ;;		On exit  : 0/0
  7845 ;;		Unchanged: 0/0
  7846 ;; Data sizes:     COMMON   BANK0   BANK1   BANK2   BANK3   BANK4   BANK5   BANK6
  7847 ;;      Params:         0       0       0       0       0       0       0       0
  7848 ;;      Locals:         0       0       0       0       0       0       0       0
  7849 ;;      Temps:          0       0       0       0       0       0       0       0
  7850 ;;      Totals:         0       0       0       0       0       0       0       0
  7851 ;;Total ram usage:        0 bytes
  7852 ;; Hardware stack levels used: 1
  7853 ;; Hardware stack levels required when called: 6
  7854 ;; This function calls:
  7855 ;;		_LED_SET
  7856 ;; This function is called by:
  7857 ;;		_LEFT_OFF
  7858 ;;		_RIGHT_OFF
  7859 ;;		_testmode
  7860 ;;		_TrunLight
  7861 ;;		_WelcomeLight
  7862 ;; This function uses a non-reentrant model
  7863 ;;
  7864                           
  7865     0DC7                     _LED_OFF:	
  7866                           ;psect for function _LED_OFF
  7867                           
  7868     0DC7                     l2811:	
  7869                           ;incstack = 0
  7870                           ; Regs used in _LED_OFF: [wreg+status,2+status,0+pclath+cstack]
  7871                           
  7872                           
  7873                           ;PWM.c: 74:   LED_SET(((4 * 3) + (2 * 3)), 0x00);
  7874     0DC7  01F4               	clrf	LED_SET@InputData
  7875     0DC8  3012               	movlw	18
  7876     0DC9  318E  26A7  318D   	fcall	_LED_SET
  7877     0DCC                     l801:
  7878     0DCC  0008               	return
  7879     0DCD                     __end_of_LED_OFF:
  7880                           
  7881                           	psect	text42
  7882     0EA7                     __ptext42:	
  7883 ;; *************** function _LED_SET *****************
  7884 ;; Defined at:
  7885 ;;		line 63 in file "PWM.c"
  7886 ;; Parameters:    Size  Location     Type
  7887 ;;  LED_num         1    wreg     unsigned char 
  7888 ;;  InputData       1    4[COMMON] unsigned char 
  7889 ;; Auto vars:     Size  Location     Type
  7890 ;;  LED_num         1    6[COMMON] unsigned char 
  7891 ;;  i               1    9[COMMON] unsigned char 
  7892 ;;  num             1    8[COMMON] unsigned char 
  7893 ;;  data            1    7[COMMON] unsigned char 
  7894 ;; Return value:  Size  Location     Type
  7895 ;;                  1    wreg      void 
  7896 ;; Registers used:
  7897 ;;		wreg, status,2, status,0, pclath, cstack
  7898 ;; Tracked objects:
  7899 ;;		On entry : 0/0
  7900 ;;		On exit  : 0/0
  7901 ;;		Unchanged: 0/0
  7902 ;; Data sizes:     COMMON   BANK0   BANK1   BANK2   BANK3   BANK4   BANK5   BANK6
  7903 ;;      Params:         1       0       0       0       0       0       0       0
  7904 ;;      Locals:         4       0       0       0       0       0       0       0
  7905 ;;      Temps:          1       0       0       0       0       0       0       0
  7906 ;;      Totals:         6       0       0       0       0       0       0       0
  7907 ;;Total ram usage:        6 bytes
  7908 ;; Hardware stack levels used: 1
  7909 ;; Hardware stack levels required when called: 5
  7910 ;; This function calls:
  7911 ;;		_PWM_SendData
  7912 ;; This function is called by:
  7913 ;;		_LED_OFF
  7914 ;;		_LED_ON
  7915 ;;		_Streamer_SEG1_TEST
  7916 ;;		_Streamer_SEG2_TEST
  7917 ;;		_TrunLight
  7918 ;;		_LED_SET_Gradually_ON
  7919 ;;		_Streamer_SEG1_ON
  7920 ;;		_Streamer_SEG1_OFF
  7921 ;;		_Streamer_SEG2_ON
  7922 ;; This function uses a non-reentrant model
  7923 ;;
  7924                           
  7925     0EA7                     _LED_SET:	
  7926                           ;psect for function _LED_SET
  7927                           
  7928                           
  7929                           ;incstack = 0
  7930                           ; Regs used in _LED_SET: [wreg+status,2+status,0+pclath+cstack]
  7931                           ;LED_SET@LED_num stored from wreg
  7932     0EA7  00F6               	movwf	LED_SET@LED_num
  7933     0EA8                     l2789:
  7934                           
  7935                           ;PWM.c: 64:   uint8_t data = InputData;
  7936     0EA8  0874               	movf	LED_SET@InputData,w
  7937     0EA9  00F7               	movwf	LED_SET@data
  7938                           
  7939                           ;PWM.c: 65:   uint8_t num = LED_num;
  7940     0EAA  0876               	movf	LED_SET@LED_num,w
  7941     0EAB  00F8               	movwf	LED_SET@num
  7942     0EAC                     l2791:
  7943                           
  7944                           ;PWM.c: 67:   for (uint8_t i = 0; i < num; i++) {
  7945     0EAC  01F9               	clrf	LED_SET@i
  7946     0EAD  2EB6               	goto	l2797
  7947     0EAE                     l2793:
  7948                           
  7949                           ;PWM.c: 68:     PWM_SendData(data);
  7950     0EAE  0877               	movf	LED_SET@data,w
  7951     0EAF  3187  275E  318E   	fcall	_PWM_SendData
  7952     0EB2                     l2795:
  7953                           
  7954                           ;PWM.c: 69:   }
  7955     0EB2  3001               	movlw	1
  7956     0EB3  00F5               	movwf	??_LED_SET
  7957     0EB4  0875               	movf	??_LED_SET,w
  7958     0EB5  07F9               	addwf	LED_SET@i,f
  7959     0EB6                     l2797:
  7960     0EB6  0878               	movf	LED_SET@num,w
  7961     0EB7  0279               	subwf	LED_SET@i,w
  7962     0EB8  1C03               	skipc
  7963     0EB9  2EBB               	goto	u1651
  7964     0EBA  2EBC               	goto	u1650
  7965     0EBB                     u1651:
  7966     0EBB  2EAE               	goto	l2793
  7967     0EBC                     u1650:
  7968     0EBC                     l798:
  7969     0EBC  0008               	return
  7970     0EBD                     __end_of_LED_SET:
  7971                           
  7972                           	psect	text43
  7973     075E                     __ptext43:	
  7974 ;; *************** function _PWM_SendData *****************
  7975 ;; Defined at:
  7976 ;;		line 40 in file "PWM.c"
  7977 ;; Parameters:    Size  Location     Type
  7978 ;;  InputData       1    wreg     unsigned char 
  7979 ;; Auto vars:     Size  Location     Type
  7980 ;;  InputData       1    1[COMMON] unsigned char 
  7981 ;;  bitmask         1    3[COMMON] unsigned char 
  7982 ;;  data            1    2[COMMON] unsigned char 
  7983 ;; Return value:  Size  Location     Type
  7984 ;;                  1    wreg      void 
  7985 ;; Registers used:
  7986 ;;		wreg, status,2, status,0
  7987 ;; Tracked objects:
  7988 ;;		On entry : 0/0
  7989 ;;		On exit  : 0/0
  7990 ;;		Unchanged: 0/0
  7991 ;; Data sizes:     COMMON   BANK0   BANK1   BANK2   BANK3   BANK4   BANK5   BANK6
  7992 ;;      Params:         0       0       0       0       0       0       0       0
  7993 ;;      Locals:         3       0       0       0       0       0       0       0
  7994 ;;      Temps:          0       0       0       0       0       0       0       0
  7995 ;;      Totals:         3       0       0       0       0       0       0       0
  7996 ;;Total ram usage:        3 bytes
  7997 ;; Hardware stack levels used: 1
  7998 ;; Hardware stack levels required when called: 4
  7999 ;; This function calls:
  8000 ;;		Nothing
  8001 ;; This function is called by:
  8002 ;;		_LED_SET
  8003 ;; This function uses a non-reentrant model
  8004 ;;
  8005                           
  8006     075E                     _PWM_SendData:	
  8007                           ;psect for function _PWM_SendData
  8008                           
  8009                           
  8010                           ;incstack = 0
  8011                           ; Regs used in _PWM_SendData: [wreg+status,2+status,0]
  8012                           ;PWM_SendData@InputData stored from wreg
  8013     075E  00F1               	movwf	PWM_SendData@InputData
  8014     075F                     l2735:
  8015                           
  8016                           ;PWM.c: 41:   uint8_t bitmask = 0x80;
  8017     075F  3080               	movlw	128
  8018     0760  00F3               	movwf	PWM_SendData@bitmask
  8019                           
  8020                           ;PWM.c: 42:   uint8_t data = InputData;
  8021     0761  0871               	movf	PWM_SendData@InputData,w
  8022     0762  00F2               	movwf	PWM_SendData@data
  8023     0763                     l2737:
  8024                           
  8025                           ;PWM.c: 45:   TMR6 = PR6 - 10;
  8026     0763  0028               	movlb	8	; select bank8
  8027     0764  081D               	movf	29,w	;volatile
  8028     0765  3EF6               	addlw	246
  8029     0766  009C               	movwf	28	;volatile
  8030     0767                     l2739:
  8031                           
  8032                           ;PWM.c: 48:     if (data & bitmask) {
  8033     0767  0872               	movf	PWM_SendData@data,w
  8034     0768  0573               	andwf	PWM_SendData@bitmask,w
  8035     0769  1903               	btfsc	3,2
  8036     076A  2F6C               	goto	u1531
  8037     076B  2F6D               	goto	u1530
  8038     076C                     u1531:
  8039     076C  2F71               	goto	l2743
  8040     076D                     u1530:
  8041     076D                     l2741:
  8042                           
  8043                           ;PWM.c: 49:       CCPR5L = 6;
  8044     076D  3006               	movlw	6
  8045     076E  0026               	movlb	6	; select bank6
  8046     076F  009C               	movwf	28	;volatile
  8047                           
  8048                           ;PWM.c: 50:     } else {
  8049     0770  2F74               	goto	l788
  8050     0771                     l2743:
  8051                           
  8052                           ;PWM.c: 51:       CCPR5L = 3;
  8053     0771  3003               	movlw	3
  8054     0772  0026               	movlb	6	; select bank6
  8055     0773  009C               	movwf	28	;volatile
  8056     0774                     l788:	
  8057                           ;PWM.c: 54:     };
  8058                           
  8059                           
  8060                           ;PWM.c: 53:     while (!PIR3bits.TMR6IF) {
  8061     0774  0020               	movlb	0	; select bank0
  8062     0775  1D93               	btfss	19,3	;volatile
  8063     0776  2F78               	goto	u1541
  8064     0777  2F79               	goto	u1540
  8065     0778                     u1541:
  8066     0778  2F74               	goto	l788
  8067     0779                     u1540:
  8068     0779                     l790:
  8069                           
  8070                           ;PWM.c: 55:     PIR3bits.TMR6IF = 0;
  8071     0779  1193               	bcf	19,3	;volatile
  8072     077A                     l2745:
  8073                           
  8074                           ;PWM.c: 56:     bitmask = bitmask >> 1;
  8075     077A  3673               	lsrf	PWM_SendData@bitmask,w
  8076     077B  00F3               	movwf	PWM_SendData@bitmask
  8077                           
  8078                           ;PWM.c: 57:   } while (bitmask);
  8079     077C  0873               	movf	PWM_SendData@bitmask,w
  8080     077D  1D03               	btfss	3,2
  8081     077E  2F80               	goto	u1551
  8082     077F  2F81               	goto	u1550
  8083     0780                     u1551:
  8084     0780  2F67               	goto	l2739
  8085     0781                     u1550:
  8086     0781                     l2747:
  8087                           
  8088                           ;PWM.c: 59:   CCPR5L = 0;
  8089     0781  0026               	movlb	6	; select bank6
  8090     0782  019C               	clrf	28	;volatile
  8091     0783                     l792:
  8092     0783  0008               	return
  8093     0784                     __end_of_PWM_SendData:
  8094                           
  8095                           	psect	text44
  8096     0F1F                     __ptext44:	
  8097 ;; *************** function _Delay_ms *****************
  8098 ;; Defined at:
  8099 ;;		line 115 in file "timer.c"
  8100 ;; Parameters:    Size  Location     Type
  8101 ;;  input_ms        2    2[COMMON] unsigned short 
  8102 ;; Auto vars:     Size  Location     Type
  8103 ;;  ms              2    4[COMMON] unsigned short 
  8104 ;; Return value:  Size  Location     Type
  8105 ;;                  1    wreg      void 
  8106 ;; Registers used:
  8107 ;;		wreg, status,2, status,0, pclath, cstack
  8108 ;; Tracked objects:
  8109 ;;		On entry : 0/0
  8110 ;;		On exit  : 0/0
  8111 ;;		Unchanged: 0/0
  8112 ;; Data sizes:     COMMON   BANK0   BANK1   BANK2   BANK3   BANK4   BANK5   BANK6
  8113 ;;      Params:         2       0       0       0       0       0       0       0
  8114 ;;      Locals:         2       0       0       0       0       0       0       0
  8115 ;;      Temps:          0       0       0       0       0       0       0       0
  8116 ;;      Totals:         4       0       0       0       0       0       0       0
  8117 ;;Total ram usage:        4 bytes
  8118 ;; Hardware stack levels used: 1
  8119 ;; Hardware stack levels required when called: 5
  8120 ;; This function calls:
  8121 ;;		_Timer
  8122 ;; This function is called by:
  8123 ;;		_LEFT_OFF
  8124 ;;		_RIGHT_OFF
  8125 ;;		_testmode
  8126 ;;		_main
  8127 ;;		_Streamer_SEG1_TEST
  8128 ;;		_Streamer_SEG2_TEST
  8129 ;;		_TrunLight
  8130 ;;		_LED_SET_Gradually_ON
  8131 ;;		_Streamer_SEG1_ON
  8132 ;;		_Streamer_SEG1_OFF
  8133 ;;		_Streamer_SEG2_ON
  8134 ;;		_WelcomeLight
  8135 ;; This function uses a non-reentrant model
  8136 ;;
  8137                           
  8138     0F1F                     _Delay_ms:	
  8139                           ;psect for function _Delay_ms
  8140                           
  8141     0F1F                     l2799:	
  8142                           ;incstack = 0
  8143                           ; Regs used in _Delay_ms: [wreg+status,2+status,0+pclath+cstack]
  8144                           
  8145                           
  8146                           ;timer.c: 116:   uint16_t ms = input_ms - 1;
  8147     0F1F  0872               	movf	Delay_ms@input_ms,w
  8148     0F20  3EFF               	addlw	255
  8149     0F21  00F4               	movwf	Delay_ms@ms
  8150     0F22  30FF               	movlw	255
  8151     0F23  3D73               	addwfc	Delay_ms@input_ms+1,w
  8152     0F24  00F5               	movwf	Delay_ms@ms+1
  8153     0F25                     l2801:
  8154                           
  8155                           ;timer.c: 117:   TMR0 = 56;
  8156     0F25  3038               	movlw	56
  8157     0F26  0020               	movlb	0	; select bank0
  8158     0F27  0095               	movwf	21	;volatile
  8159     0F28                     l2803:
  8160                           
  8161                           ;timer.c: 118:   T100us_cnt1 = 0;
  8162     0F28  01B4               	clrf	_T100us_cnt1
  8163     0F29                     l2805:
  8164                           
  8165                           ;timer.c: 119:   T1MS_cnt = 0;
  8166     0F29  01A0               	clrf	_T1MS_cnt
  8167     0F2A  01A1               	clrf	_T1MS_cnt+1
  8168     0F2B                     l2807:
  8169                           
  8170                           ;timer.c: 121:     Timer();
  8171     0F2B  3185  2532  318F   	fcall	_Timer
  8172     0F2E                     l2809:
  8173                           
  8174                           ;timer.c: 122:   } while (T1MS_cnt < ms);
  8175     0F2E  0875               	movf	Delay_ms@ms+1,w
  8176     0F2F  0020               	movlb	0	; select bank0
  8177     0F30  0221               	subwf	_T1MS_cnt+1,w
  8178     0F31  1D03               	skipz
  8179     0F32  2F35               	goto	u1665
  8180     0F33  0874               	movf	Delay_ms@ms,w
  8181     0F34  0220               	subwf	_T1MS_cnt,w
  8182     0F35                     u1665:
  8183     0F35  1C03               	skipc
  8184     0F36  2F38               	goto	u1661
  8185     0F37  2F39               	goto	u1660
  8186     0F38                     u1661:
  8187     0F38  2F2B               	goto	l2807
  8188     0F39                     u1660:
  8189     0F39                     l917:
  8190     0F39  0008               	return
  8191     0F3A                     __end_of_Delay_ms:
  8192                           
  8193                           	psect	text45
  8194     0532                     __ptext45:	
  8195 ;; *************** function _Timer *****************
  8196 ;; Defined at:
  8197 ;;		line 27 in file "timer.c"
  8198 ;; Parameters:    Size  Location     Type
  8199 ;;		None
  8200 ;; Auto vars:     Size  Location     Type
  8201 ;;		None
  8202 ;; Return value:  Size  Location     Type
  8203 ;;                  1    wreg      void 
  8204 ;; Registers used:
  8205 ;;		wreg, status,2, status,0
  8206 ;; Tracked objects:
  8207 ;;		On entry : 0/0
  8208 ;;		On exit  : 0/0
  8209 ;;		Unchanged: 0/0
  8210 ;; Data sizes:     COMMON   BANK0   BANK1   BANK2   BANK3   BANK4   BANK5   BANK6
  8211 ;;      Params:         0       0       0       0       0       0       0       0
  8212 ;;      Locals:         0       0       0       0       0       0       0       0
  8213 ;;      Temps:          1       0       0       0       0       0       0       0
  8214 ;;      Totals:         1       0       0       0       0       0       0       0
  8215 ;;Total ram usage:        1 bytes
  8216 ;; Hardware stack levels used: 1
  8217 ;; Hardware stack levels required when called: 4
  8218 ;; This function calls:
  8219 ;;		Nothing
  8220 ;; This function is called by:
  8221 ;;		_main
  8222 ;;		_Delay_ms
  8223 ;; This function uses a non-reentrant model
  8224 ;;
  8225                           
  8226     0532                     _Timer:	
  8227                           ;psect for function _Timer
  8228                           
  8229     0532                     l2749:	
  8230                           ;incstack = 0
  8231                           ; Regs used in _Timer: [wreg+status,2+status,0]
  8232                           
  8233     0532                     l885:	
  8234                           ;timer.c: 29:   };
  8235                           
  8236                           
  8237                           ;timer.c: 28:   while (!TMR2IF) {
  8238     0532  0020               	movlb	0	; select bank0
  8239     0533  1C91               	btfss	17,1	;volatile
  8240     0534  2D36               	goto	u1561
  8241     0535  2D37               	goto	u1560
  8242     0536                     u1561:
  8243     0536  2D32               	goto	l885
  8244     0537                     u1560:
  8245     0537                     l2751:
  8246                           
  8247                           ;timer.c: 30:   TMR2 += 57;
  8248     0537  3039               	movlw	57
  8249     0538  00F1               	movwf	??_Timer
  8250     0539  0871               	movf	??_Timer,w
  8251     053A  079A               	addwf	26,f	;volatile
  8252     053B                     l2753:
  8253                           
  8254                           ;timer.c: 31:   TMR2IF = 0;
  8255     053B  1091               	bcf	17,1	;volatile
  8256                           
  8257                           ;timer.c: 32:   T100us_cnt++;
  8258     053C  3001               	movlw	1
  8259     053D  00F1               	movwf	??_Timer
  8260     053E  0871               	movf	??_Timer,w
  8261     053F  07B5               	addwf	_T100us_cnt,f
  8262                           
  8263                           ;timer.c: 33:   T100us_cnt1++;
  8264     0540  3001               	movlw	1
  8265     0541  00F1               	movwf	??_Timer
  8266     0542  0871               	movf	??_Timer,w
  8267     0543  07B4               	addwf	_T100us_cnt1,f
  8268     0544                     l2755:
  8269                           
  8270                           ;timer.c: 34:   if (T100us_cnt1 >= 10) {
  8271     0544  300A               	movlw	10
  8272     0545  0234               	subwf	_T100us_cnt1,w
  8273     0546  1C03               	skipc
  8274     0547  2D49               	goto	u1571
  8275     0548  2D4A               	goto	u1570
  8276     0549                     u1571:
  8277     0549  2D4F               	goto	l2761
  8278     054A                     u1570:
  8279     054A                     l2757:
  8280                           
  8281                           ;timer.c: 35:     T100us_cnt1 = 0;
  8282     054A  01B4               	clrf	_T100us_cnt1
  8283     054B                     l2759:
  8284                           
  8285                           ;timer.c: 36:     T1MS_cnt++;
  8286     054B  3001               	movlw	1
  8287     054C  07A0               	addwf	_T1MS_cnt,f
  8288     054D  3000               	movlw	0
  8289     054E  3DA1               	addwfc	_T1MS_cnt+1,f
  8290     054F                     l2761:
  8291                           
  8292                           ;timer.c: 39:   if (T100us_cnt >= 50) {
  8293     054F  3032               	movlw	50
  8294     0550  0235               	subwf	_T100us_cnt,w
  8295     0551  1C03               	skipc
  8296     0552  2D54               	goto	u1581
  8297     0553  2D55               	goto	u1580
  8298     0554                     u1581:
  8299     0554  2D5A               	goto	l2767
  8300     0555                     u1580:
  8301     0555                     l2763:
  8302                           
  8303                           ;timer.c: 40:     T100us_cnt = 0;
  8304     0555  01B5               	clrf	_T100us_cnt
  8305     0556                     l2765:
  8306                           
  8307                           ;timer.c: 41:     T5MS_cnt++;
  8308     0556  3001               	movlw	1
  8309     0557  00F1               	movwf	??_Timer
  8310     0558  0871               	movf	??_Timer,w
  8311     0559  07B3               	addwf	_T5MS_cnt,f
  8312     055A                     l2767:
  8313                           
  8314                           ;timer.c: 43:   if (T5MS_cnt >= 50) {
  8315     055A  3032               	movlw	50
  8316     055B  0233               	subwf	_T5MS_cnt,w
  8317     055C  1C03               	skipc
  8318     055D  2D5F               	goto	u1591
  8319     055E  2D60               	goto	u1590
  8320     055F                     u1591:
  8321     055F  2D65               	goto	l2773
  8322     0560                     u1590:
  8323     0560                     l2769:
  8324                           
  8325                           ;timer.c: 44:     T5MS_cnt = 0;
  8326     0560  01B3               	clrf	_T5MS_cnt
  8327     0561                     l2771:
  8328                           
  8329                           ;timer.c: 45:     T250MS_cnt++;
  8330     0561  3001               	movlw	1
  8331     0562  00F1               	movwf	??_Timer
  8332     0563  0871               	movf	??_Timer,w
  8333     0564  07BA               	addwf	_T250MS_cnt,f
  8334     0565                     l2773:
  8335                           
  8336                           ;timer.c: 48:   if (!fColorSeletDisable) {
  8337     0565  083B               	movf	_fColorSeletDisable,w
  8338     0566  1D03               	btfss	3,2
  8339     0567  2D69               	goto	u1601
  8340     0568  2D6A               	goto	u1600
  8341     0569                     u1601:
  8342     0569  2D75               	goto	l2779
  8343     056A                     u1600:
  8344     056A                     l2775:
  8345                           
  8346                           ;timer.c: 49:     if (PORTBbits.RB2 == COLOR_YELLOW) {
  8347     056A  190D               	btfsc	13,2	;volatile
  8348     056B  2D6D               	goto	u1611
  8349     056C  2D6E               	goto	u1610
  8350     056D                     u1611:
  8351     056D  2D72               	goto	l892
  8352     056E                     u1610:
  8353     056E                     l2777:
  8354                           
  8355                           ;timer.c: 51:       LATCbits.LATC5 = 1;
  8356     056E  0022               	movlb	2	; select bank2
  8357     056F  168E               	bsf	14,5	;volatile
  8358                           
  8359                           ;timer.c: 52:       LATCbits.LATC4 = 0;
  8360     0570  120E               	bcf	14,4	;volatile
  8361                           
  8362                           ;timer.c: 53:     } else {
  8363     0571  2D75               	goto	l2779
  8364     0572                     l892:
  8365                           
  8366                           ;timer.c: 55:       LATCbits.LATC5 = 0;
  8367     0572  0022               	movlb	2	; select bank2
  8368     0573  128E               	bcf	14,5	;volatile
  8369                           
  8370                           ;timer.c: 56:       LATCbits.LATC4 = 1;
  8371     0574  160E               	bsf	14,4	;volatile
  8372     0575                     l2779:
  8373                           
  8374                           ;timer.c: 61:   if (ftest == 0) {
  8375     0575  0020               	movlb	0	; select bank0
  8376     0576  0838               	movf	_ftest,w
  8377     0577  1D03               	btfss	3,2
  8378     0578  2D7A               	goto	u1621
  8379     0579  2D7B               	goto	u1620
  8380     057A                     u1621:
  8381     057A  2D8B               	goto	l898
  8382     057B                     u1620:
  8383     057B                     l2781:
  8384                           
  8385                           ;timer.c: 62:     if (PORTAbits.RA3 == 1) {
  8386     057B  1D8C               	btfss	12,3	;volatile
  8387     057C  2D7E               	goto	u1631
  8388     057D  2D7F               	goto	u1630
  8389     057E                     u1631:
  8390     057E  2D84               	goto	l895
  8391     057F                     u1630:
  8392     057F                     l2783:
  8393                           
  8394                           ;timer.c: 63:       fLoBeam = 1;
  8395     057F  01CF               	clrf	_fLoBeam
  8396     0580  0ACF               	incf	_fLoBeam,f
  8397                           
  8398                           ;timer.c: 64:       LATBbits.LATB1 = 1;
  8399     0581  0022               	movlb	2	; select bank2
  8400     0582  148D               	bsf	13,1	;volatile
  8401                           
  8402                           ;timer.c: 67:     } else if (lampFlags.fLOBEAM == 0) {
  8403     0583  2D8B               	goto	l898
  8404     0584                     l895:
  8405     0584  194B               	btfsc	_lampFlags,2
  8406     0585  2D87               	goto	u1641
  8407     0586  2D88               	goto	u1640
  8408     0587                     u1641:
  8409     0587  2D8B               	goto	l898
  8410     0588                     u1640:
  8411     0588                     l2785:
  8412                           
  8413                           ;timer.c: 68:       fLoBeam = 0;
  8414     0588  01CF               	clrf	_fLoBeam
  8415     0589                     l2787:
  8416                           
  8417                           ;timer.c: 69:       LATBbits.LATB1 = 0;
  8418     0589  0022               	movlb	2	; select bank2
  8419     058A  108D               	bcf	13,1	;volatile
  8420     058B                     l898:
  8421     058B  0008               	return
  8422     058C                     __end_of_Timer:
  8423                           
  8424                           	psect	text46
  8425     0DAB                     __ptext46:	
  8426 ;; *************** function _HIBEAM_ON *****************
  8427 ;; Defined at:
  8428 ;;		line 148 in file "mcc_generated_files/LINDrivers/lin_app.c"
  8429 ;; Parameters:    Size  Location     Type
  8430 ;;		None
  8431 ;; Auto vars:     Size  Location     Type
  8432 ;;		None
  8433 ;; Return value:  Size  Location     Type
  8434 ;;                  1    wreg      void 
  8435 ;; Registers used:
  8436 ;;		None
  8437 ;; Tracked objects:
  8438 ;;		On entry : 0/0
  8439 ;;		On exit  : 0/0
  8440 ;;		Unchanged: 0/0
  8441 ;; Data sizes:     COMMON   BANK0   BANK1   BANK2   BANK3   BANK4   BANK5   BANK6
  8442 ;;      Params:         0       0       0       0       0       0       0       0
  8443 ;;      Locals:         0       0       0       0       0       0       0       0
  8444 ;;      Temps:          0       0       0       0       0       0       0       0
  8445 ;;      Totals:         0       0       0       0       0       0       0       0
  8446 ;;Total ram usage:        0 bytes
  8447 ;; Hardware stack levels used: 1
  8448 ;; Hardware stack levels required when called: 4
  8449 ;; This function calls:
  8450 ;;		Nothing
  8451 ;; This function is called by:
  8452 ;;		_processLIN
  8453 ;; This function uses a non-reentrant model
  8454 ;;
  8455                           
  8456     0DAB                     _HIBEAM_ON:	
  8457                           ;psect for function _HIBEAM_ON
  8458                           
  8459     0DAB                     l61:	
  8460                           ;incstack = 0
  8461                           ; Regs used in _HIBEAM_ON: []
  8462                           ;mcc_generated_files/LINDrivers/lin_app.c: 149:   do { LATBbits.LATB4 = 1; } while(0);
  8463                           
  8464     0DAB  0022               	movlb	2	; select bank2
  8465     0DAC  160D               	bsf	13,4	;volatile
  8466     0DAD                     l63:	
  8467                           ;mcc_generated_files/LINDrivers/lin_app.c: 150:   do { LATBbits.LATB5 = 1; } while(0);
  8468                           
  8469     0DAD  168D               	bsf	13,5	;volatile
  8470     0DAE                     l65:
  8471     0DAE  0008               	return
  8472     0DAF                     __end_of_HIBEAM_ON:
  8473                           
  8474                           	psect	text47
  8475     0DA7                     __ptext47:	
  8476 ;; *************** function _HIBEAM_OFF *****************
  8477 ;; Defined at:
  8478 ;;		line 152 in file "mcc_generated_files/LINDrivers/lin_app.c"
  8479 ;; Parameters:    Size  Location     Type
  8480 ;;		None
  8481 ;; Auto vars:     Size  Location     Type
  8482 ;;		None
  8483 ;; Return value:  Size  Location     Type
  8484 ;;                  1    wreg      void 
  8485 ;; Registers used:
  8486 ;;		None
  8487 ;; Tracked objects:
  8488 ;;		On entry : 0/0
  8489 ;;		On exit  : 0/0
  8490 ;;		Unchanged: 0/0
  8491 ;; Data sizes:     COMMON   BANK0   BANK1   BANK2   BANK3   BANK4   BANK5   BANK6
  8492 ;;      Params:         0       0       0       0       0       0       0       0
  8493 ;;      Locals:         0       0       0       0       0       0       0       0
  8494 ;;      Temps:          0       0       0       0       0       0       0       0
  8495 ;;      Totals:         0       0       0       0       0       0       0       0
  8496 ;;Total ram usage:        0 bytes
  8497 ;; Hardware stack levels used: 1
  8498 ;; Hardware stack levels required when called: 4
  8499 ;; This function calls:
  8500 ;;		Nothing
  8501 ;; This function is called by:
  8502 ;;		_processLIN
  8503 ;; This function uses a non-reentrant model
  8504 ;;
  8505                           
  8506     0DA7                     _HIBEAM_OFF:	
  8507                           ;psect for function _HIBEAM_OFF
  8508                           
  8509     0DA7                     l68:	
  8510                           ;incstack = 0
  8511                           ; Regs used in _HIBEAM_OFF: []
  8512                           ;mcc_generated_files/LINDrivers/lin_app.c: 153:   do { LATBbits.LATB4 = 0; } while(0);
  8513                           
  8514     0DA7  0022               	movlb	2	; select bank2
  8515     0DA8  120D               	bcf	13,4	;volatile
  8516     0DA9                     l70:	
  8517                           ;mcc_generated_files/LINDrivers/lin_app.c: 154:   do { LATBbits.LATB5 = 0; } while(0);
  8518                           
  8519     0DA9  128D               	bcf	13,5	;volatile
  8520     0DAA                     l72:
  8521     0DAA  0008               	return
  8522     0DAB                     __end_of_HIBEAM_OFF:
  8523                           
  8524                           	psect	text48
  8525     0D89                     __ptext48:	
  8526 ;; *************** function _DRL_ON *****************
  8527 ;; Defined at:
  8528 ;;		line 143 in file "mcc_generated_files/LINDrivers/lin_app.c"
  8529 ;; Parameters:    Size  Location     Type
  8530 ;;		None
  8531 ;; Auto vars:     Size  Location     Type
  8532 ;;		None
  8533 ;; Return value:  Size  Location     Type
  8534 ;;                  1    wreg      void 
  8535 ;; Registers used:
  8536 ;;		None
  8537 ;; Tracked objects:
  8538 ;;		On entry : 0/0
  8539 ;;		On exit  : 0/0
  8540 ;;		Unchanged: 0/0
  8541 ;; Data sizes:     COMMON   BANK0   BANK1   BANK2   BANK3   BANK4   BANK5   BANK6
  8542 ;;      Params:         0       0       0       0       0       0       0       0
  8543 ;;      Locals:         0       0       0       0       0       0       0       0
  8544 ;;      Temps:          0       0       0       0       0       0       0       0
  8545 ;;      Totals:         0       0       0       0       0       0       0       0
  8546 ;;Total ram usage:        0 bytes
  8547 ;; Hardware stack levels used: 1
  8548 ;; Hardware stack levels required when called: 4
  8549 ;; This function calls:
  8550 ;;		Nothing
  8551 ;; This function is called by:
  8552 ;;		_processLIN
  8553 ;; This function uses a non-reentrant model
  8554 ;;
  8555                           
  8556     0D89                     _DRL_ON:	
  8557                           ;psect for function _DRL_ON
  8558                           
  8559     0D89                     l45:	
  8560                           ;incstack = 0
  8561                           ; Regs used in _DRL_ON: []
  8562                           
  8563     0D89  0008               	return
  8564     0D8A                     __end_of_DRL_ON:
  8565                           
  8566                           	psect	text49
  8567     0D88                     __ptext49:	
  8568 ;; *************** function _DRL_OFF *****************
  8569 ;; Defined at:
  8570 ;;		line 144 in file "mcc_generated_files/LINDrivers/lin_app.c"
  8571 ;; Parameters:    Size  Location     Type
  8572 ;;		None
  8573 ;; Auto vars:     Size  Location     Type
  8574 ;;		None
  8575 ;; Return value:  Size  Location     Type
  8576 ;;                  1    wreg      void 
  8577 ;; Registers used:
  8578 ;;		None
  8579 ;; Tracked objects:
  8580 ;;		On entry : 0/0
  8581 ;;		On exit  : 0/0
  8582 ;;		Unchanged: 0/0
  8583 ;; Data sizes:     COMMON   BANK0   BANK1   BANK2   BANK3   BANK4   BANK5   BANK6
  8584 ;;      Params:         0       0       0       0       0       0       0       0
  8585 ;;      Locals:         0       0       0       0       0       0       0       0
  8586 ;;      Temps:          0       0       0       0       0       0       0       0
  8587 ;;      Totals:         0       0       0       0       0       0       0       0
  8588 ;;Total ram usage:        0 bytes
  8589 ;; Hardware stack levels used: 1
  8590 ;; Hardware stack levels required when called: 4
  8591 ;; This function calls:
  8592 ;;		Nothing
  8593 ;; This function is called by:
  8594 ;;		_processLIN
  8595 ;; This function uses a non-reentrant model
  8596 ;;
  8597                           
  8598     0D88                     _DRL_OFF:	
  8599                           ;psect for function _DRL_OFF
  8600                           
  8601     0D88                     l48:	
  8602                           ;incstack = 0
  8603                           ; Regs used in _DRL_OFF: []
  8604                           
  8605     0D88  0008               	return
  8606     0D89                     __end_of_DRL_OFF:
  8607                           
  8608                           	psect	text50
  8609     0DA3                     __ptext50:	
  8610 ;; *************** function _LIN_stopTimer *****************
  8611 ;; Defined at:
  8612 ;;		line 333 in file "mcc_generated_files/LINDrivers/lin_slave.c"
  8613 ;; Parameters:    Size  Location     Type
  8614 ;;		None
  8615 ;; Auto vars:     Size  Location     Type
  8616 ;;		None
  8617 ;; Return value:  Size  Location     Type
  8618 ;;                  1    wreg      void 
  8619 ;; Registers used:
  8620 ;;		status,2
  8621 ;; Tracked objects:
  8622 ;;		On entry : 0/0
  8623 ;;		On exit  : 0/0
  8624 ;;		Unchanged: 0/0
  8625 ;; Data sizes:     COMMON   BANK0   BANK1   BANK2   BANK3   BANK4   BANK5   BANK6
  8626 ;;      Params:         0       0       0       0       0       0       0       0
  8627 ;;      Locals:         0       0       0       0       0       0       0       0
  8628 ;;      Temps:          0       0       0       0       0       0       0       0
  8629 ;;      Totals:         0       0       0       0       0       0       0       0
  8630 ;;Total ram usage:        0 bytes
  8631 ;; Hardware stack levels used: 1
  8632 ;; Hardware stack levels required when called: 4
  8633 ;; This function calls:
  8634 ;;		Nothing
  8635 ;; This function is called by:
  8636 ;;		_LIN_init
  8637 ;;		_LIN_handler
  8638 ;; This function uses a non-reentrant model
  8639 ;;
  8640                           
  8641     0DA3                     _LIN_stopTimer:	
  8642                           ;psect for function _LIN_stopTimer
  8643                           
  8644     0DA3                     l2879:	
  8645                           ;incstack = 0
  8646                           ; Regs used in _LIN_stopTimer: [status,2]
  8647                           
  8648                           
  8649                           ;mcc_generated_files/LINDrivers/lin_slave.c: 335:   CountCallBack = 0;
  8650     0DA3  0020               	movlb	0	; select bank0
  8651     0DA4  01C5               	clrf	_CountCallBack	;volatile
  8652                           
  8653                           ;mcc_generated_files/LINDrivers/lin_slave.c: 336:   LIN_timerRunning = 0;
  8654     0DA5  01C6               	clrf	_LIN_timerRunning
  8655     0DA6                     l302:
  8656     0DA6  0008               	return
  8657     0DA7                     __end_of_LIN_stopTimer:
  8658                           
  8659                           	psect	text51
  8660     0E40                     __ptext51:	
  8661 ;; *************** function _LIN_startTimer *****************
  8662 ;; Defined at:
  8663 ;;		line 311 in file "mcc_generated_files/LINDrivers/lin_slave.c"
  8664 ;; Parameters:    Size  Location     Type
  8665 ;;  timeout         1    wreg     unsigned char 
  8666 ;; Auto vars:     Size  Location     Type
  8667 ;;  timeout         1    1[COMMON] unsigned char 
  8668 ;; Return value:  Size  Location     Type
  8669 ;;                  1    wreg      void 
  8670 ;; Registers used:
  8671 ;;		wreg, status,2, status,0, pclath, cstack
  8672 ;; Tracked objects:
  8673 ;;		On entry : 0/0
  8674 ;;		On exit  : 0/0
  8675 ;;		Unchanged: 0/0
  8676 ;; Data sizes:     COMMON   BANK0   BANK1   BANK2   BANK3   BANK4   BANK5   BANK6
  8677 ;;      Params:         0       0       0       0       0       0       0       0
  8678 ;;      Locals:         1       0       0       0       0       0       0       0
  8679 ;;      Temps:          0       0       0       0       0       0       0       0
  8680 ;;      Totals:         1       0       0       0       0       0       0       0
  8681 ;;Total ram usage:        1 bytes
  8682 ;; Hardware stack levels used: 1
  8683 ;; Hardware stack levels required when called: 5
  8684 ;; This function calls:
  8685 ;;		_TMR0_Reload
  8686 ;; This function is called by:
  8687 ;;		_LIN_handler
  8688 ;; This function uses a non-reentrant model
  8689 ;;
  8690                           
  8691     0E40                     _LIN_startTimer:	
  8692                           ;psect for function _LIN_startTimer
  8693                           
  8694                           
  8695                           ;incstack = 0
  8696                           ; Regs used in _LIN_startTimer: [wreg+status,2+status,0+pclath+cstack]
  8697                           ;LIN_startTimer@timeout stored from wreg
  8698     0E40  00F1               	movwf	LIN_startTimer@timeout
  8699     0E41                     l3265:
  8700                           
  8701                           ;mcc_generated_files/LINDrivers/lin_slave.c: 312:   LIN_timeout = timeout;
  8702     0E41  0871               	movf	LIN_startTimer@timeout,w
  8703     0E42  0020               	movlb	0	; select bank0
  8704     0E43  00EF               	movwf	_LIN_timeout
  8705     0E44                     l3267:
  8706                           
  8707                           ;mcc_generated_files/LINDrivers/lin_slave.c: 314:   TMR0_Reload();
  8708     0E44  318D  259F  318E   	fcall	_TMR0_Reload
  8709     0E47                     l3269:
  8710                           
  8711                           ;mcc_generated_files/LINDrivers/lin_slave.c: 315:   LIN_timerRunning = 1;
  8712     0E47  0020               	movlb	0	; select bank0
  8713     0E48  01C6               	clrf	_LIN_timerRunning
  8714     0E49  0AC6               	incf	_LIN_timerRunning,f
  8715     0E4A                     l292:
  8716     0E4A  0008               	return
  8717     0E4B                     __end_of_LIN_startTimer:
  8718                           
  8719                           	psect	text52
  8720     0D9F                     __ptext52:	
  8721 ;; *************** function _TMR0_Reload *****************
  8722 ;; Defined at:
  8723 ;;		line 106 in file "mcc_generated_files/tmr0.c"
  8724 ;; Parameters:    Size  Location     Type
  8725 ;;		None
  8726 ;; Auto vars:     Size  Location     Type
  8727 ;;		None
  8728 ;; Return value:  Size  Location     Type
  8729 ;;                  1    wreg      void 
  8730 ;; Registers used:
  8731 ;;		wreg
  8732 ;; Tracked objects:
  8733 ;;		On entry : 0/0
  8734 ;;		On exit  : 0/0
  8735 ;;		Unchanged: 0/0
  8736 ;; Data sizes:     COMMON   BANK0   BANK1   BANK2   BANK3   BANK4   BANK5   BANK6
  8737 ;;      Params:         0       0       0       0       0       0       0       0
  8738 ;;      Locals:         0       0       0       0       0       0       0       0
  8739 ;;      Temps:          0       0       0       0       0       0       0       0
  8740 ;;      Totals:         0       0       0       0       0       0       0       0
  8741 ;;Total ram usage:        0 bytes
  8742 ;; Hardware stack levels used: 1
  8743 ;; Hardware stack levels required when called: 4
  8744 ;; This function calls:
  8745 ;;		Nothing
  8746 ;; This function is called by:
  8747 ;;		_LIN_startTimer
  8748 ;; This function uses a non-reentrant model
  8749 ;;
  8750                           
  8751     0D9F                     _TMR0_Reload:	
  8752                           ;psect for function _TMR0_Reload
  8753                           
  8754     0D9F                     l3081:	
  8755                           ;incstack = 0
  8756                           ; Regs used in _TMR0_Reload: [wreg]
  8757                           
  8758                           
  8759                           ;mcc_generated_files/tmr0.c: 108:   TMR0 = timer0ReloadVal;
  8760     0D9F  0020               	movlb	0	; select bank0
  8761     0DA0  083C               	movf	_timer0ReloadVal,w	;volatile
  8762     0DA1  0095               	movwf	21	;volatile
  8763     0DA2                     l517:
  8764     0DA2  0008               	return
  8765     0DA3                     __end_of_TMR0_Reload:
  8766                           
  8767                           	psect	text53
  8768     045D                     __ptext53:	
  8769 ;; *************** function _LIN_queuePacket *****************
  8770 ;; Defined at:
  8771 ;;		line 72 in file "mcc_generated_files/LINDrivers/lin_slave.c"
  8772 ;; Parameters:    Size  Location     Type
  8773 ;;  cmd             1    wreg     unsigned char 
  8774 ;; Auto vars:     Size  Location     Type
  8775 ;;  cmd             1    6[BANK0 ] unsigned char 
  8776 ;;  i               1    7[BANK0 ] unsigned char 
  8777 ;;  tempSchedule    2    8[BANK0 ] PTR const struct .
  8778 ;;		 -> NULL(0), scheduleTable(4), 
  8779 ;; Return value:  Size  Location     Type
  8780 ;;                  1    wreg      void 
  8781 ;; Registers used:
  8782 ;;		wreg, fsr0l, fsr0h, fsr1l, fsr1h, status,2, status,0, pclath, cstack
  8783 ;; Tracked objects:
  8784 ;;		On entry : 0/0
  8785 ;;		On exit  : 0/0
  8786 ;;		Unchanged: 0/0
  8787 ;; Data sizes:     COMMON   BANK0   BANK1   BANK2   BANK3   BANK4   BANK5   BANK6
  8788 ;;      Params:         0       0       0       0       0       0       0       0
  8789 ;;      Locals:         0       4       0       0       0       0       0       0
  8790 ;;      Temps:          0       4       0       0       0       0       0       0
  8791 ;;      Totals:         0       8       0       0       0       0       0       0
  8792 ;;Total ram usage:        8 bytes
  8793 ;; Hardware stack levels used: 1
  8794 ;; Hardware stack levels required when called: 6
  8795 ;; This function calls:
  8796 ;;		_LIN_getChecksum
  8797 ;;		_LIN_sendPacket
  8798 ;;		_memcpy
  8799 ;; This function is called by:
  8800 ;;		_LIN_handler
  8801 ;; This function uses a non-reentrant model
  8802 ;;
  8803                           
  8804     045D                     _LIN_queuePacket:	
  8805                           ;psect for function _LIN_queuePacket
  8806                           
  8807                           
  8808                           ;incstack = 0
  8809                           ; Regs used in _LIN_queuePacket: [wreg-fsr1h+status,2+status,0+pclath+cstack]
  8810                           ;LIN_queuePacket@cmd stored from wreg
  8811     045D  0020               	movlb	0	; select bank0
  8812     045E  00E3               	movwf	LIN_queuePacket@cmd
  8813     045F                     l3237:
  8814                           
  8815                           ;mcc_generated_files/LINDrivers/lin_slave.c: 73:   const lin_rx_cmd_t *tempSchedule =
  8816     045F  082F               	movf	_LIN_rxCommand+1,w
  8817     0460  00E6               	movwf	LIN_queuePacket@tempSchedule+1
  8818     0461  082E               	movf	_LIN_rxCommand,w
  8819     0462  00E5               	movwf	LIN_queuePacket@tempSchedule
  8820     0463                     l3239:
  8821                           
  8822                           ;mcc_generated_files/LINDrivers/lin_slave.c: 76:   cmd &= 0x3F;
  8823     0463  303F               	movlw	63
  8824     0464  00DF               	movwf	??_LIN_queuePacket
  8825     0465  085F               	movf	??_LIN_queuePacket,w
  8826     0466  05E3               	andwf	LIN_queuePacket@cmd,f
  8827     0467                     l3241:
  8828                           
  8829                           ;mcc_generated_files/LINDrivers/lin_slave.c: 77:   for (uint8_t i = 0; i < LIN_rxCommand
      +                          Length; i++) {
  8830     0467  01E4               	clrf	LIN_queuePacket@i
  8831     0468  2C7C               	goto	l3251
  8832     0469                     l3243:
  8833                           
  8834                           ;mcc_generated_files/LINDrivers/lin_slave.c: 78:     if (cmd == tempSchedule->cmd) {
  8835     0469  0865               	movf	LIN_queuePacket@tempSchedule,w
  8836     046A  0084               	movwf	4
  8837     046B  0866               	movf	LIN_queuePacket@tempSchedule+1,w
  8838     046C  0085               	movwf	5
  8839     046D  0800               	movf	0,w	;code access
  8840     046E  0663               	xorwf	LIN_queuePacket@cmd,w
  8841     046F  1D03               	skipz
  8842     0470  2C72               	goto	u2351
  8843     0471  2C73               	goto	u2350
  8844     0472                     u2351:
  8845     0472  2C74               	goto	l3247
  8846     0473                     u2350:
  8847     0473  2C82               	goto	l3253
  8848     0474                     l3247:
  8849                           
  8850                           ;mcc_generated_files/LINDrivers/lin_slave.c: 81:     tempSchedule++;
  8851     0474  3004               	movlw	4
  8852     0475  07E5               	addwf	LIN_queuePacket@tempSchedule,f
  8853     0476  3000               	movlw	0
  8854     0477  3DE6               	addwfc	LIN_queuePacket@tempSchedule+1,f
  8855     0478                     l3249:
  8856                           
  8857                           ;mcc_generated_files/LINDrivers/lin_slave.c: 82:   }
  8858     0478  3001               	movlw	1
  8859     0479  00DF               	movwf	??_LIN_queuePacket
  8860     047A  085F               	movf	??_LIN_queuePacket,w
  8861     047B  07E4               	addwf	LIN_queuePacket@i,f
  8862     047C                     l3251:
  8863     047C  0847               	movf	_LIN_rxCommandLength,w
  8864     047D  0264               	subwf	LIN_queuePacket@i,w
  8865     047E  1C03               	skipc
  8866     047F  2C81               	goto	u2361
  8867     0480  2C82               	goto	u2360
  8868     0481                     u2361:
  8869     0481  2C69               	goto	l3243
  8870     0482                     u2360:
  8871     0482                     l3253:
  8872                           
  8873                           ;mcc_generated_files/LINDrivers/lin_slave.c: 84:   LIN_packet.type = tempSchedule->type;
  8874     0482  0866               	movf	LIN_queuePacket@tempSchedule+1,w
  8875     0483  00E0               	movwf	??_LIN_queuePacket+1
  8876     0484  0865               	movf	LIN_queuePacket@tempSchedule,w
  8877     0485  00DF               	movwf	??_LIN_queuePacket
  8878     0486  3001               	movlw	1
  8879     0487  075F               	addwf	??_LIN_queuePacket,w
  8880     0488  0084               	movwf	4
  8881     0489  0860               	movf	??_LIN_queuePacket+1,w
  8882     048A  1803               	skipnc
  8883     048B  0A60               	incf	??_LIN_queuePacket+1,w
  8884     048C  0085               	movwf	5
  8885     048D  0800               	movf	0,w	;code access
  8886     048E  00DA               	movwf	_LIN_packet+10
  8887                           
  8888                           ;mcc_generated_files/LINDrivers/lin_slave.c: 85:   LIN_packet.length = tempSchedule->len
      +                          gth;
  8889     048F  0866               	movf	LIN_queuePacket@tempSchedule+1,w
  8890     0490  00E0               	movwf	??_LIN_queuePacket+1
  8891     0491  0865               	movf	LIN_queuePacket@tempSchedule,w
  8892     0492  00DF               	movwf	??_LIN_queuePacket
  8893     0493  3002               	movlw	2
  8894     0494  075F               	addwf	??_LIN_queuePacket,w
  8895     0495  0084               	movwf	4
  8896     0496  0860               	movf	??_LIN_queuePacket+1,w
  8897     0497  1803               	skipnc
  8898     0498  0A60               	incf	??_LIN_queuePacket+1,w
  8899     0499  0085               	movwf	5
  8900     049A  0800               	movf	0,w	;code access
  8901     049B  00DB               	movwf	_LIN_packet+11
  8902     049C                     l3255:
  8903                           
  8904                           ;mcc_generated_files/LINDrivers/lin_slave.c: 89:   memcpy(LIN_packet.data, tempSchedule-
      +                          >data, LIN_packet.length);
  8905     049C  0866               	movf	LIN_queuePacket@tempSchedule+1,w
  8906     049D  00E0               	movwf	??_LIN_queuePacket+1
  8907     049E  0865               	movf	LIN_queuePacket@tempSchedule,w
  8908     049F  00DF               	movwf	??_LIN_queuePacket
  8909     04A0  3003               	movlw	3
  8910     04A1  075F               	addwf	??_LIN_queuePacket,w
  8911     04A2  0084               	movwf	4
  8912     04A3  0860               	movf	??_LIN_queuePacket+1,w
  8913     04A4  1803               	skipnc
  8914     04A5  0A60               	incf	??_LIN_queuePacket+1,w
  8915     04A6  0085               	movwf	5
  8916     04A7  0800               	movf	0,w	;code access
  8917     04A8  00F1               	movwf	memcpy@s1
  8918     04A9  085B               	movf	_LIN_packet+11,w
  8919     04AA  00E1               	movwf	??_LIN_queuePacket+2
  8920     04AB  01E2               	clrf	??_LIN_queuePacket+3
  8921     04AC  0861               	movf	??_LIN_queuePacket+2,w
  8922     04AD  00F2               	movwf	memcpy@n
  8923     04AE  0862               	movf	??_LIN_queuePacket+3,w
  8924     04AF  00F3               	movwf	memcpy@n+1
  8925     04B0  3051               	movlw	(low ((_LIN_packet| 0+1)))& (0+255)
  8926     04B1  3187  27AA  3184   	fcall	_memcpy
  8927     04B4                     l3257:
  8928                           
  8929                           ;mcc_generated_files/LINDrivers/lin_slave.c: 92:   LIN_packet.checksum =
  8930     04B4  0020               	movlb	0	; select bank0
  8931     04B5  0850               	movf	_LIN_packet,w
  8932     04B6  00F1               	movwf	LIN_getChecksum@pid
  8933     04B7  3051               	movlw	(low ((_LIN_packet| 0+1)))& (0+255)
  8934     04B8  00F2               	movwf	LIN_getChecksum@data
  8935     04B9  085B               	movf	_LIN_packet+11,w
  8936     04BA  3186  26A3  3184   	fcall	_LIN_getChecksum
  8937     04BD  0020               	movlb	0	; select bank0
  8938     04BE  00D9               	movwf	_LIN_packet+9
  8939     04BF                     l3259:
  8940                           
  8941                           ;mcc_generated_files/LINDrivers/lin_slave.c: 94:   LIN_sendPacket(LIN_packet.length, LIN
      +                          _packet.PID, LIN_packet.data);
  8942     04BF  0850               	movf	_LIN_packet,w
  8943     04C0  00F9               	movwf	LIN_sendPacket@pid
  8944     04C1  3051               	movlw	(low ((_LIN_packet| 0+1)))& (0+255)
  8945     04C2  00FA               	movwf	LIN_sendPacket@data
  8946     04C3  085B               	movf	_LIN_packet+11,w
  8947     04C4  3187  27CF  3184   	fcall	_LIN_sendPacket
  8948     04C7                     l212:
  8949     04C7  0008               	return
  8950     04C8                     __end_of_LIN_queuePacket:
  8951                           
  8952                           	psect	text54
  8953     07AA                     __ptext54:	
  8954 ;; *************** function _memcpy *****************
  8955 ;; Defined at:
  8956 ;;		line 4 in file "C:\Program Files\Microchip\xc8\v2.46\pic\sources\c99\common\memcpy.c"
  8957 ;; Parameters:    Size  Location     Type
  8958 ;;  d1              1    wreg     PTR void 
  8959 ;;		 -> LIN_packet(13), processLIN@tempRxData(8), 
  8960 ;;  s1              1    1[COMMON] PTR const void 
  8961 ;;		 -> LIN_packet$data(8), LIN_packet(13), SW_STATE_Data(8), 
  8962 ;;  n               2    2[COMMON] unsigned int 
  8963 ;; Auto vars:     Size  Location     Type
  8964 ;;  d1              1    8[COMMON] PTR void 
  8965 ;;		 -> LIN_packet(13), processLIN@tempRxData(8), 
  8966 ;;  s               1    7[COMMON] PTR const unsigned char 
  8967 ;;		 -> LIN_packet$data(8), LIN_packet(13), SW_STATE_Data(8), 
  8968 ;;  d               1    6[COMMON] PTR unsigned char 
  8969 ;;		 -> LIN_packet(13), processLIN@tempRxData(8), 
  8970 ;;  tmp             1    5[COMMON] unsigned char 
  8971 ;; Return value:  Size  Location     Type
  8972 ;;                  1    wreg      PTR void 
  8973 ;; Registers used:
  8974 ;;		wreg, fsr1l, fsr1h, status,2, status,0
  8975 ;; Tracked objects:
  8976 ;;		On entry : 0/0
  8977 ;;		On exit  : 0/0
  8978 ;;		Unchanged: 0/0
  8979 ;; Data sizes:     COMMON   BANK0   BANK1   BANK2   BANK3   BANK4   BANK5   BANK6
  8980 ;;      Params:         3       0       0       0       0       0       0       0
  8981 ;;      Locals:         4       0       0       0       0       0       0       0
  8982 ;;      Temps:          1       0       0       0       0       0       0       0
  8983 ;;      Totals:         8       0       0       0       0       0       0       0
  8984 ;;Total ram usage:        8 bytes
  8985 ;; Hardware stack levels used: 1
  8986 ;; Hardware stack levels required when called: 4
  8987 ;; This function calls:
  8988 ;;		Nothing
  8989 ;; This function is called by:
  8990 ;;		_LIN_queuePacket
  8991 ;;		_LIN_getPacket
  8992 ;; This function uses a non-reentrant model
  8993 ;;
  8994                           
  8995     07AA                     _memcpy:	
  8996                           ;psect for function _memcpy
  8997                           
  8998                           
  8999                           ;incstack = 0
  9000                           ; Regs used in _memcpy: [wreg+fsr1l+fsr1h+status,2+status,0]
  9001                           ;memcpy@d1 stored from wreg
  9002     07AA  00F8               	movwf	memcpy@d1
  9003     07AB                     l2885:
  9004     07AB  0871               	movf	memcpy@s1,w
  9005     07AC  00F7               	movwf	memcpy@s
  9006     07AD  0878               	movf	memcpy@d1,w
  9007     07AE  00F6               	movwf	memcpy@d
  9008     07AF  2FC2               	goto	l1526
  9009     07B0                     l2887:
  9010     07B0  0877               	movf	memcpy@s,w
  9011     07B1  0086               	movwf	6
  9012     07B2  0187               	clrf	7
  9013     07B3  0801               	movf	1,w
  9014     07B4  00F5               	movwf	memcpy@tmp
  9015     07B5                     l2889:
  9016     07B5  3001               	movlw	1
  9017     07B6  00F4               	movwf	??_memcpy
  9018     07B7  0874               	movf	??_memcpy,w
  9019     07B8  07F7               	addwf	memcpy@s,f
  9020     07B9                     l2891:
  9021     07B9  0876               	movf	memcpy@d,w
  9022     07BA  0086               	movwf	6
  9023     07BB  0187               	clrf	7
  9024     07BC  0875               	movf	memcpy@tmp,w
  9025     07BD  0081               	movwf	1
  9026     07BE  3001               	movlw	1
  9027     07BF  00F4               	movwf	??_memcpy
  9028     07C0  0874               	movf	??_memcpy,w
  9029     07C1  07F6               	addwf	memcpy@d,f
  9030     07C2                     l1526:
  9031     07C2  3001               	movlw	1
  9032     07C3  02F2               	subwf	memcpy@n,f
  9033     07C4  3000               	movlw	0
  9034     07C5  3BF3               	subwfb	memcpy@n+1,f
  9035     07C6  0A72               	incf	memcpy@n,w
  9036     07C7  1D03               	skipz
  9037     07C8  2FCD               	goto	u1681
  9038     07C9  0A73               	incf	memcpy@n+1,w
  9039     07CA  1D03               	btfss	3,2
  9040     07CB  2FCD               	goto	u1681
  9041     07CC  2FCE               	goto	u1680
  9042     07CD                     u1681:
  9043     07CD  2FB0               	goto	l2887
  9044     07CE                     u1680:
  9045     07CE                     l1529:
  9046     07CE  0008               	return
  9047     07CF                     __end_of_memcpy:
  9048                           
  9049                           	psect	text55
  9050     07CF                     __ptext55:	
  9051 ;; *************** function _LIN_sendPacket *****************
  9052 ;; Defined at:
  9053 ;;		line 212 in file "mcc_generated_files/LINDrivers/lin_slave.c"
  9054 ;; Parameters:    Size  Location     Type
  9055 ;;  length          1    wreg     unsigned char 
  9056 ;;  pid             1    9[COMMON] unsigned char 
  9057 ;;  data            1   10[COMMON] PTR unsigned char 
  9058 ;;		 -> LIN_packet(13), 
  9059 ;; Auto vars:     Size  Location     Type
  9060 ;;  length          1    0[BANK0 ] unsigned char 
  9061 ;;  i               1    1[BANK0 ] unsigned char 
  9062 ;; Return value:  Size  Location     Type
  9063 ;;                  1    wreg      void 
  9064 ;; Registers used:
  9065 ;;		wreg, fsr1l, fsr1h, status,2, status,0, pclath, cstack
  9066 ;; Tracked objects:
  9067 ;;		On entry : 0/0
  9068 ;;		On exit  : 0/0
  9069 ;;		Unchanged: 0/0
  9070 ;; Data sizes:     COMMON   BANK0   BANK1   BANK2   BANK3   BANK4   BANK5   BANK6
  9071 ;;      Params:         2       0       0       0       0       0       0       0
  9072 ;;      Locals:         0       2       0       0       0       0       0       0
  9073 ;;      Temps:          1       0       0       0       0       0       0       0
  9074 ;;      Totals:         3       2       0       0       0       0       0       0
  9075 ;;Total ram usage:        5 bytes
  9076 ;; Hardware stack levels used: 1
  9077 ;; Hardware stack levels required when called: 5
  9078 ;; This function calls:
  9079 ;;		_EUSART_Write
  9080 ;;		_LIN_getChecksum
  9081 ;; This function is called by:
  9082 ;;		_LIN_queuePacket
  9083 ;; This function uses a non-reentrant model
  9084 ;;
  9085                           
  9086     07CF                     _LIN_sendPacket:	
  9087                           ;psect for function _LIN_sendPacket
  9088                           
  9089                           
  9090                           ;incstack = 0
  9091                           ; Regs used in _LIN_sendPacket: [wreg+fsr1l+fsr1h+status,2+status,0+pclath+cstack]
  9092                           ;LIN_sendPacket@length stored from wreg
  9093     07CF  0020               	movlb	0	; select bank0
  9094     07D0  00DD               	movwf	LIN_sendPacket@length
  9095     07D1                     l2993:
  9096                           
  9097                           ;mcc_generated_files/LINDrivers/lin_slave.c: 215:   for (uint8_t i = 0; i < length; i++)
      +                           {
  9098     07D1  01DE               	clrf	LIN_sendPacket@i
  9099     07D2  2FE2               	goto	l2999
  9100     07D3                     l2995:
  9101                           
  9102                           ;mcc_generated_files/LINDrivers/lin_slave.c: 216:     EUSART_Write(*(data + i));
  9103     07D3  085E               	movf	LIN_sendPacket@i,w
  9104     07D4  077A               	addwf	LIN_sendPacket@data,w
  9105     07D5  00FB               	movwf	??_LIN_sendPacket
  9106     07D6  087B               	movf	??_LIN_sendPacket,w
  9107     07D7  0086               	movwf	6
  9108     07D8  0187               	clrf	7
  9109     07D9  0801               	movf	1,w
  9110     07DA  3187  2736  3187   	fcall	_EUSART_Write
  9111     07DD                     l2997:
  9112                           
  9113                           ;mcc_generated_files/LINDrivers/lin_slave.c: 217:   }
  9114     07DD  3001               	movlw	1
  9115     07DE  00FB               	movwf	??_LIN_sendPacket
  9116     07DF  087B               	movf	??_LIN_sendPacket,w
  9117     07E0  0020               	movlb	0	; select bank0
  9118     07E1  07DE               	addwf	LIN_sendPacket@i,f
  9119     07E2                     l2999:
  9120     07E2  085D               	movf	LIN_sendPacket@length,w
  9121     07E3  025E               	subwf	LIN_sendPacket@i,w
  9122     07E4  1C03               	skipc
  9123     07E5  2FE7               	goto	u1751
  9124     07E6  2FE8               	goto	u1750
  9125     07E7                     u1751:
  9126     07E7  2FD3               	goto	l2995
  9127     07E8                     u1750:
  9128     07E8                     l3001:
  9129                           
  9130                           ;mcc_generated_files/LINDrivers/lin_slave.c: 219:   EUSART_Write(LIN_getChecksum(length,
      +                           pid, data));
  9131     07E8  0879               	movf	LIN_sendPacket@pid,w
  9132     07E9  00F1               	movwf	LIN_getChecksum@pid
  9133     07EA  087A               	movf	LIN_sendPacket@data,w
  9134     07EB  00F2               	movwf	LIN_getChecksum@data
  9135     07EC  085D               	movf	LIN_sendPacket@length,w
  9136     07ED  3186  26A3  3187   	fcall	_LIN_getChecksum
  9137     07F0  3187  2736  3187   	fcall	_EUSART_Write
  9138     07F3                     l257:
  9139     07F3  0008               	return
  9140     07F4                     __end_of_LIN_sendPacket:
  9141                           
  9142                           	psect	text56
  9143     06A3                     __ptext56:	
  9144 ;; *************** function _LIN_getChecksum *****************
  9145 ;; Defined at:
  9146 ;;		line 297 in file "mcc_generated_files/LINDrivers/lin_slave.c"
  9147 ;; Parameters:    Size  Location     Type
  9148 ;;  length          1    wreg     unsigned char 
  9149 ;;  pid             1    1[COMMON] unsigned char 
  9150 ;;  data            1    2[COMMON] PTR unsigned char 
  9151 ;;		 -> LIN_packet(13), 
  9152 ;; Auto vars:     Size  Location     Type
  9153 ;;  length          1    5[COMMON] unsigned char 
  9154 ;;  i               1    6[COMMON] unsigned char 
  9155 ;;  checksum        2    7[COMMON] unsigned short 
  9156 ;; Return value:  Size  Location     Type
  9157 ;;                  1    wreg      unsigned char 
  9158 ;; Registers used:
  9159 ;;		wreg, fsr1l, fsr1h, status,2, status,0
  9160 ;; Tracked objects:
  9161 ;;		On entry : 0/0
  9162 ;;		On exit  : 0/0
  9163 ;;		Unchanged: 0/0
  9164 ;; Data sizes:     COMMON   BANK0   BANK1   BANK2   BANK3   BANK4   BANK5   BANK6
  9165 ;;      Params:         2       0       0       0       0       0       0       0
  9166 ;;      Locals:         4       0       0       0       0       0       0       0
  9167 ;;      Temps:          2       0       0       0       0       0       0       0
  9168 ;;      Totals:         8       0       0       0       0       0       0       0
  9169 ;;Total ram usage:        8 bytes
  9170 ;; Hardware stack levels used: 1
  9171 ;; Hardware stack levels required when called: 4
  9172 ;; This function calls:
  9173 ;;		Nothing
  9174 ;; This function is called by:
  9175 ;;		_LIN_queuePacket
  9176 ;;		_LIN_handler
  9177 ;;		_LIN_sendPacket
  9178 ;; This function uses a non-reentrant model
  9179 ;;
  9180                           
  9181     06A3                     _LIN_getChecksum:	
  9182                           ;psect for function _LIN_getChecksum
  9183                           
  9184                           
  9185                           ;incstack = 0
  9186                           ; Regs used in _LIN_getChecksum: [wreg+fsr1l+fsr1h+status,2+status,0]
  9187                           ;LIN_getChecksum@length stored from wreg
  9188     06A3  00F5               	movwf	LIN_getChecksum@length
  9189     06A4                     l2893:
  9190                           
  9191                           ;mcc_generated_files/LINDrivers/lin_slave.c: 298:   uint16_t checksum = pid;
  9192     06A4  0871               	movf	LIN_getChecksum@pid,w
  9193     06A5  00F3               	movwf	??_LIN_getChecksum
  9194     06A6  01F4               	clrf	??_LIN_getChecksum+1
  9195     06A7  0873               	movf	??_LIN_getChecksum,w
  9196     06A8  00F7               	movwf	LIN_getChecksum@checksum
  9197     06A9  0874               	movf	??_LIN_getChecksum+1,w
  9198     06AA  00F8               	movwf	LIN_getChecksum@checksum+1
  9199     06AB                     l2895:
  9200                           
  9201                           ;mcc_generated_files/LINDrivers/lin_slave.c: 300:   for (uint8_t i = 0; i < length; i++)
      +                           {
  9202     06AB  01F6               	clrf	LIN_getChecksum@i
  9203     06AC  2ECC               	goto	l2907
  9204     06AD                     l2897:
  9205                           
  9206                           ;mcc_generated_files/LINDrivers/lin_slave.c: 301:     checksum = checksum + *data++;
  9207     06AD  0872               	movf	LIN_getChecksum@data,w
  9208     06AE  0086               	movwf	6
  9209     06AF  0187               	clrf	7
  9210     06B0  0801               	movf	1,w
  9211     06B1  0777               	addwf	LIN_getChecksum@checksum,w
  9212     06B2  00F7               	movwf	LIN_getChecksum@checksum
  9213     06B3  0878               	movf	LIN_getChecksum@checksum+1,w
  9214     06B4  1803               	skipnc
  9215     06B5  0A78               	incf	LIN_getChecksum@checksum+1,w
  9216     06B6  00F8               	movwf	LIN_getChecksum@checksum+1
  9217     06B7                     l2899:
  9218     06B7  3001               	movlw	1
  9219     06B8  00F3               	movwf	??_LIN_getChecksum
  9220     06B9  0873               	movf	??_LIN_getChecksum,w
  9221     06BA  07F2               	addwf	LIN_getChecksum@data,f
  9222     06BB                     l2901:
  9223                           
  9224                           ;mcc_generated_files/LINDrivers/lin_slave.c: 302:     if (checksum > 0xFF)
  9225     06BB  3001               	movlw	1
  9226     06BC  0278               	subwf	LIN_getChecksum@checksum+1,w
  9227     06BD  3000               	movlw	0
  9228     06BE  1903               	skipnz
  9229     06BF  0277               	subwf	LIN_getChecksum@checksum,w
  9230     06C0  1C03               	skipc
  9231     06C1  2EC3               	goto	u1691
  9232     06C2  2EC4               	goto	u1690
  9233     06C3                     u1691:
  9234     06C3  2EC8               	goto	l2905
  9235     06C4                     u1690:
  9236     06C4                     l2903:
  9237                           
  9238                           ;mcc_generated_files/LINDrivers/lin_slave.c: 303:       checksum -= 0xFF;
  9239     06C4  30FF               	movlw	255
  9240     06C5  02F7               	subwf	LIN_getChecksum@checksum,f
  9241     06C6  3000               	movlw	0
  9242     06C7  3BF8               	subwfb	LIN_getChecksum@checksum+1,f
  9243     06C8                     l2905:
  9244                           
  9245                           ;mcc_generated_files/LINDrivers/lin_slave.c: 304:   }
  9246     06C8  3001               	movlw	1
  9247     06C9  00F3               	movwf	??_LIN_getChecksum
  9248     06CA  0873               	movf	??_LIN_getChecksum,w
  9249     06CB  07F6               	addwf	LIN_getChecksum@i,f
  9250     06CC                     l2907:
  9251     06CC  0875               	movf	LIN_getChecksum@length,w
  9252     06CD  0276               	subwf	LIN_getChecksum@i,w
  9253     06CE  1C03               	skipc
  9254     06CF  2ED1               	goto	u1701
  9255     06D0  2ED2               	goto	u1700
  9256     06D1                     u1701:
  9257     06D1  2EAD               	goto	l2897
  9258     06D2                     u1700:
  9259     06D2                     l288:
  9260                           
  9261                           ;mcc_generated_files/LINDrivers/lin_slave.c: 305:   checksum = ~checksum;
  9262     06D2  09F7               	comf	LIN_getChecksum@checksum,f
  9263     06D3  09F8               	comf	LIN_getChecksum@checksum+1,f
  9264     06D4                     l2909:
  9265                           
  9266                           ;mcc_generated_files/LINDrivers/lin_slave.c: 307:   return (uint8_t)checksum;
  9267     06D4  0877               	movf	LIN_getChecksum@checksum,w
  9268     06D5                     l289:
  9269     06D5  0008               	return
  9270     06D6                     __end_of_LIN_getChecksum:
  9271                           
  9272                           	psect	text57
  9273     0736                     __ptext57:	
  9274 ;; *************** function _EUSART_Write *****************
  9275 ;; Defined at:
  9276 ;;		line 188 in file "mcc_generated_files/eusart.c"
  9277 ;; Parameters:    Size  Location     Type
  9278 ;;  txData          1    wreg     unsigned char 
  9279 ;; Auto vars:     Size  Location     Type
  9280 ;;  txData          1    2[COMMON] unsigned char 
  9281 ;; Return value:  Size  Location     Type
  9282 ;;                  1    wreg      void 
  9283 ;; Registers used:
  9284 ;;		wreg, fsr1l, fsr1h, status,2, status,0
  9285 ;; Tracked objects:
  9286 ;;		On entry : 0/0
  9287 ;;		On exit  : 0/0
  9288 ;;		Unchanged: 0/0
  9289 ;; Data sizes:     COMMON   BANK0   BANK1   BANK2   BANK3   BANK4   BANK5   BANK6
  9290 ;;      Params:         0       0       0       0       0       0       0       0
  9291 ;;      Locals:         1       0       0       0       0       0       0       0
  9292 ;;      Temps:          1       0       0       0       0       0       0       0
  9293 ;;      Totals:         2       0       0       0       0       0       0       0
  9294 ;;Total ram usage:        2 bytes
  9295 ;; Hardware stack levels used: 1
  9296 ;; Hardware stack levels required when called: 4
  9297 ;; This function calls:
  9298 ;;		Nothing
  9299 ;; This function is called by:
  9300 ;;		_LIN_sendPacket
  9301 ;; This function uses a non-reentrant model
  9302 ;;
  9303                           
  9304     0736                     _EUSART_Write:	
  9305                           ;psect for function _EUSART_Write
  9306                           
  9307                           
  9308                           ;incstack = 0
  9309                           ; Regs used in _EUSART_Write: [wreg+fsr1l+fsr1h+status,2+status,0]
  9310                           ;EUSART_Write@txData stored from wreg
  9311     0736  00F2               	movwf	EUSART_Write@txData
  9312     0737                     l2921:
  9313     0737                     l2923:	
  9314                           ;mcc_generated_files/eusart.c: 188: void EUSART_Write(uint8_t txData);mcc_generated_file
      +                          s/eusart.c: 189: {;mcc_generated_files/eusart.c: 191:     while(0 == eusartTxBufferRemai
      +                          ning)
  9315                           
  9316                           
  9317                           ;mcc_generated_files/eusart.c: 191:     while(0 == eusartTxBufferRemaining)
  9318     0737  0020               	movlb	0	; select bank0
  9319     0738  0840               	movf	_eusartTxBufferRemaining,w	;volatile
  9320     0739  1903               	btfsc	3,2
  9321     073A  2F3C               	goto	u1721
  9322     073B  2F3D               	goto	u1720
  9323     073C                     u1721:
  9324     073C  2F37               	goto	l2923
  9325     073D                     u1720:
  9326     073D                     l442:
  9327                           
  9328                           ;mcc_generated_files/eusart.c: 196:     if(0 == PIE1bits.TXIE)
  9329     073D  0021               	movlb	1	; select bank1
  9330     073E  1A11               	btfsc	17,4	;volatile
  9331     073F  2F41               	goto	u1731
  9332     0740  2F42               	goto	u1730
  9333     0741                     u1731:
  9334     0741  2F46               	goto	l443
  9335     0742                     u1730:
  9336     0742                     l2925:
  9337                           
  9338                           ;mcc_generated_files/eusart.c: 197:     {;mcc_generated_files/eusart.c: 198:         TXR
      +                          EG = txData;
  9339     0742  0872               	movf	EUSART_Write@txData,w
  9340     0743  0023               	movlb	3	; select bank3
  9341     0744  009A               	movwf	26	;volatile
  9342                           
  9343                           ;mcc_generated_files/eusart.c: 199:     }
  9344     0745  2F5B               	goto	l2937
  9345     0746                     l443:	
  9346                           ;mcc_generated_files/eusart.c: 200:     else
  9347                           
  9348                           
  9349                           ;mcc_generated_files/eusart.c: 201:     {;mcc_generated_files/eusart.c: 202:         PIE
      +                          1bits.TXIE = 0;
  9350     0746  1211               	bcf	17,4	;volatile
  9351     0747                     l2927:
  9352                           
  9353                           ;mcc_generated_files/eusart.c: 203:         eusartTxBuffer[eusartTxHead++] = txData;
  9354     0747  0020               	movlb	0	; select bank0
  9355     0748  0842               	movf	_eusartTxHead,w
  9356     0749  3EB0               	addlw	(low (_eusartTxBuffer| 0))& (0+255)
  9357     074A  0086               	movwf	6
  9358     074B  0187               	clrf	7
  9359     074C  0872               	movf	EUSART_Write@txData,w
  9360     074D  0081               	movwf	1
  9361     074E                     l2929:
  9362     074E  3001               	movlw	1
  9363     074F  00F1               	movwf	??_EUSART_Write
  9364     0750  0871               	movf	??_EUSART_Write,w
  9365     0751  07C2               	addwf	_eusartTxHead,f	;volatile
  9366     0752                     l2931:
  9367                           
  9368                           ;mcc_generated_files/eusart.c: 204:         if(sizeof(eusartTxBuffer) <= eusartTxHead)
  9369     0752  3008               	movlw	8
  9370     0753  0242               	subwf	_eusartTxHead,w	;volatile
  9371     0754  1C03               	skipc
  9372     0755  2F57               	goto	u1741
  9373     0756  2F58               	goto	u1740
  9374     0757                     u1741:
  9375     0757  2F59               	goto	l2935
  9376     0758                     u1740:
  9377     0758                     l2933:
  9378                           
  9379                           ;mcc_generated_files/eusart.c: 205:         {;mcc_generated_files/eusart.c: 206:        
      +                               eusartTxHead = 0;
  9380     0758  01C2               	clrf	_eusartTxHead	;volatile
  9381     0759                     l2935:
  9382                           
  9383                           ;mcc_generated_files/eusart.c: 208:         eusartTxBufferRemaining--;
  9384     0759  3001               	movlw	1
  9385     075A  02C0               	subwf	_eusartTxBufferRemaining,f	;volatile
  9386     075B                     l2937:
  9387                           
  9388                           ;mcc_generated_files/eusart.c: 210:     PIE1bits.TXIE = 1;
  9389     075B  0021               	movlb	1	; select bank1
  9390     075C  1611               	bsf	17,4	;volatile
  9391     075D                     l446:
  9392     075D  0008               	return
  9393     075E                     __end_of_EUSART_Write:
  9394                           
  9395                           	psect	text58
  9396     0DBD                     __ptext58:	
  9397 ;; *************** function _LIN_enableRx *****************
  9398 ;; Defined at:
  9399 ;;		line 340 in file "mcc_generated_files/LINDrivers/lin_slave.c"
  9400 ;; Parameters:    Size  Location     Type
  9401 ;;		None
  9402 ;; Auto vars:     Size  Location     Type
  9403 ;;		None
  9404 ;; Return value:  Size  Location     Type
  9405 ;;                  1    wreg      void 
  9406 ;; Registers used:
  9407 ;;		None
  9408 ;; Tracked objects:
  9409 ;;		On entry : 0/0
  9410 ;;		On exit  : 0/0
  9411 ;;		Unchanged: 0/0
  9412 ;; Data sizes:     COMMON   BANK0   BANK1   BANK2   BANK3   BANK4   BANK5   BANK6
  9413 ;;      Params:         0       0       0       0       0       0       0       0
  9414 ;;      Locals:         0       0       0       0       0       0       0       0
  9415 ;;      Temps:          0       0       0       0       0       0       0       0
  9416 ;;      Totals:         0       0       0       0       0       0       0       0
  9417 ;;Total ram usage:        0 bytes
  9418 ;; Hardware stack levels used: 1
  9419 ;; Hardware stack levels required when called: 4
  9420 ;; This function calls:
  9421 ;;		Nothing
  9422 ;; This function is called by:
  9423 ;;		_LIN_init
  9424 ;;		_LIN_handler
  9425 ;; This function uses a non-reentrant model
  9426 ;;
  9427                           
  9428     0DBD                     _LIN_enableRx:	
  9429                           ;psect for function _LIN_enableRx
  9430                           
  9431     0DBD                     l2881:	
  9432                           ;incstack = 0
  9433                           ; Regs used in _LIN_enableRx: []
  9434                           
  9435                           
  9436                           ;mcc_generated_files/LINDrivers/lin_slave.c: 341:   RCSTAbits.CREN = 1;
  9437     0DBD  0023               	movlb	3	; select bank3
  9438     0DBE  161D               	bsf	29,4	;volatile
  9439                           
  9440                           ;mcc_generated_files/LINDrivers/lin_slave.c: 342:   PIE1bits.RCIE = 1;
  9441     0DBF  0021               	movlb	1	; select bank1
  9442     0DC0  1691               	bsf	17,5	;volatile
  9443     0DC1                     l305:
  9444     0DC1  0008               	return
  9445     0DC2                     __end_of_LIN_enableRx:
  9446                           
  9447                           	psect	text59
  9448     0DB8                     __ptext59:	
  9449 ;; *************** function _LIN_disableRx *****************
  9450 ;; Defined at:
  9451 ;;		line 346 in file "mcc_generated_files/LINDrivers/lin_slave.c"
  9452 ;; Parameters:    Size  Location     Type
  9453 ;;		None
  9454 ;; Auto vars:     Size  Location     Type
  9455 ;;		None
  9456 ;; Return value:  Size  Location     Type
  9457 ;;                  1    wreg      void 
  9458 ;; Registers used:
  9459 ;;		None
  9460 ;; Tracked objects:
  9461 ;;		On entry : 0/0
  9462 ;;		On exit  : 0/0
  9463 ;;		Unchanged: 0/0
  9464 ;; Data sizes:     COMMON   BANK0   BANK1   BANK2   BANK3   BANK4   BANK5   BANK6
  9465 ;;      Params:         0       0       0       0       0       0       0       0
  9466 ;;      Locals:         0       0       0       0       0       0       0       0
  9467 ;;      Temps:          0       0       0       0       0       0       0       0
  9468 ;;      Totals:         0       0       0       0       0       0       0       0
  9469 ;;Total ram usage:        0 bytes
  9470 ;; Hardware stack levels used: 1
  9471 ;; Hardware stack levels required when called: 4
  9472 ;; This function calls:
  9473 ;;		Nothing
  9474 ;; This function is called by:
  9475 ;;		_LIN_handler
  9476 ;; This function uses a non-reentrant model
  9477 ;;
  9478                           
  9479     0DB8                     _LIN_disableRx:	
  9480                           ;psect for function _LIN_disableRx
  9481                           
  9482     0DB8                     l3299:	
  9483                           ;incstack = 0
  9484                           ; Regs used in _LIN_disableRx: []
  9485                           
  9486                           
  9487                           ;mcc_generated_files/LINDrivers/lin_slave.c: 347:   RCSTAbits.CREN = 0;
  9488     0DB8  0023               	movlb	3	; select bank3
  9489     0DB9  121D               	bcf	29,4	;volatile
  9490                           
  9491                           ;mcc_generated_files/LINDrivers/lin_slave.c: 348:   PIE1bits.RCIE = 0;
  9492     0DBA  0021               	movlb	1	; select bank1
  9493     0DBB  1291               	bcf	17,5	;volatile
  9494     0DBC                     l308:
  9495     0DBC  0008               	return
  9496     0DBD                     __end_of_LIN_disableRx:
  9497                           
  9498                           	psect	text60
  9499     0EEB                     __ptext60:	
  9500 ;; *************** function _LIN_checkPID *****************
  9501 ;; Defined at:
  9502 ;;		line 266 in file "mcc_generated_files/LINDrivers/lin_slave.c"
  9503 ;; Parameters:    Size  Location     Type
  9504 ;;  pid             1    wreg     unsigned char 
  9505 ;; Auto vars:     Size  Location     Type
  9506 ;;  pid             1    8[COMMON] unsigned char 
  9507 ;; Return value:  Size  Location     Type
  9508 ;;                  1    wreg      _Bool 
  9509 ;; Registers used:
  9510 ;;		wreg, fsr0l, fsr0h, status,2, status,0, pclath, cstack
  9511 ;; Tracked objects:
  9512 ;;		On entry : 0/0
  9513 ;;		On exit  : 0/0
  9514 ;;		Unchanged: 0/0
  9515 ;; Data sizes:     COMMON   BANK0   BANK1   BANK2   BANK3   BANK4   BANK5   BANK6
  9516 ;;      Params:         0       0       0       0       0       0       0       0
  9517 ;;      Locals:         1       0       0       0       0       0       0       0
  9518 ;;      Temps:          0       0       0       0       0       0       0       0
  9519 ;;      Totals:         1       0       0       0       0       0       0       0
  9520 ;;Total ram usage:        1 bytes
  9521 ;; Hardware stack levels used: 1
  9522 ;; Hardware stack levels required when called: 5
  9523 ;; This function calls:
  9524 ;;		_LIN_calcParity
  9525 ;;		_LIN_getFromTable
  9526 ;; This function is called by:
  9527 ;;		_LIN_handler
  9528 ;; This function uses a non-reentrant model
  9529 ;;
  9530                           
  9531     0EEB                     _LIN_checkPID:	
  9532                           ;psect for function _LIN_checkPID
  9533                           
  9534                           
  9535                           ;incstack = 0
  9536                           ; Regs used in _LIN_checkPID: [wreg-fsr0h+status,2+status,0+pclath+cstack]
  9537                           ;LIN_checkPID@pid stored from wreg
  9538     0EEB  00F8               	movwf	LIN_checkPID@pid
  9539     0EEC                     l3283:
  9540                           
  9541                           ;mcc_generated_files/LINDrivers/lin_slave.c: 268:   if (LIN_getFromTable(pid, TYPE) == E
      +                          RROR)
  9542     0EEC  01F1               	clrf	LIN_getFromTable@param
  9543     0EED  0AF1               	incf	LIN_getFromTable@param,f
  9544     0EEE  0878               	movf	LIN_checkPID@pid,w
  9545     0EEF  3184  24C8  318E   	fcall	_LIN_getFromTable
  9546     0EF2  3A02               	xorlw	2
  9547     0EF3  1D03               	skipz
  9548     0EF4  2EF6               	goto	u2411
  9549     0EF5  2EF7               	goto	u2410
  9550     0EF6                     u2411:
  9551     0EF6  2EF9               	goto	l3289
  9552     0EF7                     u2410:
  9553     0EF7                     l3285:
  9554                           
  9555                           ;mcc_generated_files/LINDrivers/lin_slave.c: 269:     return 0;
  9556     0EF7  3000               	movlw	0
  9557     0EF8  2F04               	goto	l278
  9558     0EF9                     l3289:
  9559                           
  9560                           ;mcc_generated_files/LINDrivers/lin_slave.c: 272:   if (pid == LIN_calcParity(pid & 0x3F
      +                          ))
  9561     0EF9  0878               	movf	LIN_checkPID@pid,w
  9562     0EFA  393F               	andlw	63
  9563     0EFB  3183  23D7  318E   	fcall	_LIN_calcParity
  9564     0EFE  0678               	xorwf	LIN_checkPID@pid,w
  9565     0EFF  1D03               	skipz
  9566     0F00  2F02               	goto	u2421
  9567     0F01  2F03               	goto	u2420
  9568     0F02                     u2421:
  9569     0F02  2EF7               	goto	l3285
  9570     0F03                     u2420:
  9571     0F03                     l3291:
  9572                           
  9573                           ;mcc_generated_files/LINDrivers/lin_slave.c: 273:     return 1;
  9574     0F03  3001               	movlw	1
  9575     0F04                     l278:
  9576     0F04  0008               	return
  9577     0F05                     __end_of_LIN_checkPID:
  9578                           
  9579                           	psect	text61
  9580     04C8                     __ptext61:	
  9581 ;; *************** function _LIN_getFromTable *****************
  9582 ;; Defined at:
  9583 ;;		line 233 in file "mcc_generated_files/LINDrivers/lin_slave.c"
  9584 ;; Parameters:    Size  Location     Type
  9585 ;;  cmd             1    wreg     unsigned char 
  9586 ;;  param           1    1[COMMON] enum E53
  9587 ;; Auto vars:     Size  Location     Type
  9588 ;;  cmd             1    4[COMMON] unsigned char 
  9589 ;;  length          1    5[COMMON] unsigned char 
  9590 ;;  rxCommand       2    6[COMMON] PTR const struct .
  9591 ;;		 -> NULL(0), scheduleTable(4), 
  9592 ;; Return value:  Size  Location     Type
  9593 ;;                  1    wreg      unsigned char 
  9594 ;; Registers used:
  9595 ;;		wreg, fsr0l, fsr0h, status,2, status,0, pclath
  9596 ;; Tracked objects:
  9597 ;;		On entry : 0/0
  9598 ;;		On exit  : 0/0
  9599 ;;		Unchanged: 0/0
  9600 ;; Data sizes:     COMMON   BANK0   BANK1   BANK2   BANK3   BANK4   BANK5   BANK6
  9601 ;;      Params:         1       0       0       0       0       0       0       0
  9602 ;;      Locals:         4       0       0       0       0       0       0       0
  9603 ;;      Temps:          2       0       0       0       0       0       0       0
  9604 ;;      Totals:         7       0       0       0       0       0       0       0
  9605 ;;Total ram usage:        7 bytes
  9606 ;; Hardware stack levels used: 1
  9607 ;; Hardware stack levels required when called: 4
  9608 ;; This function calls:
  9609 ;;		Nothing
  9610 ;; This function is called by:
  9611 ;;		_LIN_handler
  9612 ;;		_LIN_checkPID
  9613 ;; This function uses a non-reentrant model
  9614 ;;
  9615                           
  9616     04C8                     _LIN_getFromTable:	
  9617                           ;psect for function _LIN_getFromTable
  9618                           
  9619                           
  9620                           ;incstack = 0
  9621                           ; Regs used in _LIN_getFromTable: [wreg-fsr0h+status,2+status,0+pclath]
  9622                           ;LIN_getFromTable@cmd stored from wreg
  9623     04C8  00F4               	movwf	LIN_getFromTable@cmd
  9624     04C9                     l3025:
  9625                           
  9626                           ;mcc_generated_files/LINDrivers/lin_slave.c: 234:   const lin_rx_cmd_t *rxCommand =
  9627     04C9  0020               	movlb	0	; select bank0
  9628     04CA  082F               	movf	_LIN_rxCommand+1,w
  9629     04CB  00F7               	movwf	LIN_getFromTable@rxCommand+1
  9630     04CC  082E               	movf	_LIN_rxCommand,w
  9631     04CD  00F6               	movwf	LIN_getFromTable@rxCommand
  9632     04CE                     l3027:
  9633                           
  9634                           ;mcc_generated_files/LINDrivers/lin_slave.c: 237:   cmd &= 0x3F;
  9635     04CE  303F               	movlw	63
  9636     04CF  00F2               	movwf	??_LIN_getFromTable
  9637     04D0  0872               	movf	??_LIN_getFromTable,w
  9638     04D1  05F4               	andwf	LIN_getFromTable@cmd,f
  9639     04D2                     l3029:
  9640                           
  9641                           ;mcc_generated_files/LINDrivers/lin_slave.c: 239:   for (uint8_t length = 0; length < LI
      +                          N_rxCommandLength; length++) {
  9642     04D2  01F5               	clrf	LIN_getFromTable@length
  9643     04D3  2CF7               	goto	l3043
  9644     04D4                     l3031:
  9645                           
  9646                           ;mcc_generated_files/LINDrivers/lin_slave.c: 241:     if (cmd == rxCommand->cmd) {
  9647     04D4  0876               	movf	LIN_getFromTable@rxCommand,w
  9648     04D5  0084               	movwf	4
  9649     04D6  0877               	movf	LIN_getFromTable@rxCommand+1,w
  9650     04D7  0085               	movwf	5
  9651     04D8  0800               	movf	0,w	;code access
  9652     04D9  0674               	xorwf	LIN_getFromTable@cmd,w
  9653     04DA  1D03               	skipz
  9654     04DB  2CDD               	goto	u1781
  9655     04DC  2CDE               	goto	u1780
  9656     04DD                     u1781:
  9657     04DD  2CDF               	goto	l3035
  9658     04DE                     u1780:
  9659     04DE  2D1E               	goto	l3059
  9660     04DF                     l3035:
  9661                           
  9662                           ;mcc_generated_files/LINDrivers/lin_slave.c: 244:     rxCommand++;
  9663     04DF  3004               	movlw	4
  9664     04E0  07F6               	addwf	LIN_getFromTable@rxCommand,f
  9665     04E1  3000               	movlw	0
  9666     04E2  3DF7               	addwfc	LIN_getFromTable@rxCommand+1,f
  9667                           
  9668                           ;mcc_generated_files/LINDrivers/lin_slave.c: 247:     if (length == (LIN_rxCommandLength
      +                           - 1)) {
  9669     04E3  0847               	movf	_LIN_rxCommandLength,w
  9670     04E4  3EFF               	addlw	255
  9671     04E5  00F2               	movwf	??_LIN_getFromTable
  9672     04E6  30FF               	movlw	255
  9673     04E7  1803               	skipnc
  9674     04E8  3000               	movlw	0
  9675     04E9  00F3               	movwf	??_LIN_getFromTable+1
  9676     04EA  0875               	movf	LIN_getFromTable@length,w
  9677     04EB  0672               	xorwf	??_LIN_getFromTable,w
  9678     04EC  0473               	iorwf	??_LIN_getFromTable+1,w
  9679     04ED  1D03               	skipz
  9680     04EE  2CF0               	goto	u1791
  9681     04EF  2CF1               	goto	u1790
  9682     04F0                     u1791:
  9683     04F0  2CF3               	goto	l3041
  9684     04F1                     u1790:
  9685     04F1                     l3037:
  9686                           
  9687                           ;mcc_generated_files/LINDrivers/lin_slave.c: 248:       return ERROR;
  9688     04F1  3002               	movlw	2
  9689     04F2  2D31               	goto	l268
  9690     04F3                     l3041:
  9691                           
  9692                           ;mcc_generated_files/LINDrivers/lin_slave.c: 250:   }
  9693     04F3  3001               	movlw	1
  9694     04F4  00F2               	movwf	??_LIN_getFromTable
  9695     04F5  0872               	movf	??_LIN_getFromTable,w
  9696     04F6  07F5               	addwf	LIN_getFromTable@length,f
  9697     04F7                     l3043:
  9698     04F7  0847               	movf	_LIN_rxCommandLength,w
  9699     04F8  0275               	subwf	LIN_getFromTable@length,w
  9700     04F9  1C03               	skipc
  9701     04FA  2CFC               	goto	u1801
  9702     04FB  2CFD               	goto	u1800
  9703     04FC                     u1801:
  9704     04FC  2CD4               	goto	l3031
  9705     04FD                     u1800:
  9706     04FD  2D1E               	goto	l3059
  9707     04FE                     l3045:
  9708                           
  9709                           ;mcc_generated_files/LINDrivers/lin_slave.c: 254:     return rxCommand->cmd;
  9710     04FE  0876               	movf	LIN_getFromTable@rxCommand,w
  9711     04FF  0084               	movwf	4
  9712     0500  0877               	movf	LIN_getFromTable@rxCommand+1,w
  9713     0501  0085               	movwf	5
  9714     0502  0800               	movf	0,w	;code access
  9715     0503  2D31               	goto	l268
  9716     0504                     l3049:
  9717                           
  9718                           ;mcc_generated_files/LINDrivers/lin_slave.c: 256:     return rxCommand->type;
  9719     0504  0877               	movf	LIN_getFromTable@rxCommand+1,w
  9720     0505  00F3               	movwf	??_LIN_getFromTable+1
  9721     0506  0876               	movf	LIN_getFromTable@rxCommand,w
  9722     0507  00F2               	movwf	??_LIN_getFromTable
  9723     0508  3001               	movlw	1
  9724     0509  0772               	addwf	??_LIN_getFromTable,w
  9725     050A  0084               	movwf	4
  9726     050B  0873               	movf	??_LIN_getFromTable+1,w
  9727     050C  1803               	skipnc
  9728     050D  0A73               	incf	??_LIN_getFromTable+1,w
  9729     050E  0085               	movwf	5
  9730     050F  0800               	movf	0,w	;code access
  9731     0510  2D31               	goto	l268
  9732     0511                     l3053:
  9733                           
  9734                           ;mcc_generated_files/LINDrivers/lin_slave.c: 258:     return rxCommand->length;
  9735     0511  0877               	movf	LIN_getFromTable@rxCommand+1,w
  9736     0512  00F3               	movwf	??_LIN_getFromTable+1
  9737     0513  0876               	movf	LIN_getFromTable@rxCommand,w
  9738     0514  00F2               	movwf	??_LIN_getFromTable
  9739     0515  3002               	movlw	2
  9740     0516  0772               	addwf	??_LIN_getFromTable,w
  9741     0517  0084               	movwf	4
  9742     0518  0873               	movf	??_LIN_getFromTable+1,w
  9743     0519  1803               	skipnc
  9744     051A  0A73               	incf	??_LIN_getFromTable+1,w
  9745     051B  0085               	movwf	5
  9746     051C  0800               	movf	0,w	;code access
  9747     051D  2D31               	goto	l268
  9748     051E                     l3059:
  9749     051E  0871               	movf	LIN_getFromTable@param,w
  9750     051F  00F2               	movwf	??_LIN_getFromTable
  9751     0520  01F3               	clrf	??_LIN_getFromTable+1
  9752                           
  9753                           ; Switch on 2 bytes has been partitioned into a top level switch of size 1, and 1 sub-sw
      +                          itches
  9754                           ; Switch size 1, requested type "simple"
  9755                           ; Number of cases is 1, Range of values is 0 to 0
  9756                           ; switch strategies available:
  9757                           ; Name         Instructions Cycles
  9758                           ; simple_byte            4     3 (average)
  9759                           ; direct_byte            8     6 (fixed)
  9760                           ; jumptable            260     6 (fixed)
  9761                           ;	Chosen strategy is simple_byte
  9762     0521  0873               	movf	??_LIN_getFromTable+1,w
  9763     0522  3A00               	xorlw	0	; case 0
  9764     0523  1903               	skipnz
  9765     0524  2D26               	goto	l4041
  9766     0525  2CF1               	goto	l3037
  9767     0526                     l4041:
  9768                           
  9769                           ; Switch size 1, requested type "simple"
  9770                           ; Number of cases is 3, Range of values is 0 to 2
  9771                           ; switch strategies available:
  9772                           ; Name         Instructions Cycles
  9773                           ; simple_byte           10     6 (average)
  9774                           ; direct_byte           12     6 (fixed)
  9775                           ; jumptable            260     6 (fixed)
  9776                           ;	Chosen strategy is simple_byte
  9777     0526  0872               	movf	??_LIN_getFromTable,w
  9778     0527  3A00               	xorlw	0	; case 0
  9779     0528  1903               	skipnz
  9780     0529  2CFE               	goto	l3045
  9781     052A  3A01               	xorlw	1	; case 1
  9782     052B  1903               	skipnz
  9783     052C  2D04               	goto	l3049
  9784     052D  3A03               	xorlw	3	; case 2
  9785     052E  1903               	skipnz
  9786     052F  2D11               	goto	l3053
  9787     0530  2CF1               	goto	l3037
  9788     0531                     l268:
  9789     0531  0008               	return
  9790     0532                     __end_of_LIN_getFromTable:
  9791                           
  9792                           	psect	text62
  9793     03D7                     __ptext62:	
  9794 ;; *************** function _LIN_calcParity *****************
  9795 ;; Defined at:
  9796 ;;		line 279 in file "mcc_generated_files/LINDrivers/lin_slave.c"
  9797 ;; Parameters:    Size  Location     Type
  9798 ;;  CMD             1    wreg     unsigned char 
  9799 ;; Auto vars:     Size  Location     Type
  9800 ;;  CMD             1    2[COMMON] unsigned char 
  9801 ;;  PID             1    3[COMMON] struct .
  9802 ;; Return value:  Size  Location     Type
  9803 ;;                  1    wreg      unsigned char 
  9804 ;; Registers used:
  9805 ;;		wreg, status,0
  9806 ;; Tracked objects:
  9807 ;;		On entry : 0/0
  9808 ;;		On exit  : 0/0
  9809 ;;		Unchanged: 0/0
  9810 ;; Data sizes:     COMMON   BANK0   BANK1   BANK2   BANK3   BANK4   BANK5   BANK6
  9811 ;;      Params:         0       0       0       0       0       0       0       0
  9812 ;;      Locals:         2       0       0       0       0       0       0       0
  9813 ;;      Temps:          1       0       0       0       0       0       0       0
  9814 ;;      Totals:         3       0       0       0       0       0       0       0
  9815 ;;Total ram usage:        3 bytes
  9816 ;; Hardware stack levels used: 1
  9817 ;; Hardware stack levels required when called: 4
  9818 ;; This function calls:
  9819 ;;		Nothing
  9820 ;; This function is called by:
  9821 ;;		_LIN_checkPID
  9822 ;; This function uses a non-reentrant model
  9823 ;;
  9824                           
  9825     03D7                     _LIN_calcParity:	
  9826                           ;psect for function _LIN_calcParity
  9827                           
  9828                           
  9829                           ;incstack = 0
  9830                           ; Regs used in _LIN_calcParity: [wreg+status,0]
  9831                           ;LIN_calcParity@CMD stored from wreg
  9832     03D7  00F2               	movwf	LIN_calcParity@CMD
  9833     03D8                     l3073:
  9834                           
  9835                           ;mcc_generated_files/LINDrivers/lin_slave.c: 280:   lin_pid_t PID;;mcc_generated_files/L
      +                          INDrivers/lin_slave.c: 281:   PID.rawPID = CMD;
  9836     03D8  0872               	movf	LIN_calcParity@CMD,w
  9837     03D9  00F3               	movwf	LIN_calcParity@PID
  9838                           
  9839                           ;mcc_generated_files/LINDrivers/lin_slave.c: 286:   PID.P0 = PID.ID0 ^ PID.ID1;
  9840     03DA  18F3               	btfsc	LIN_calcParity@PID,1
  9841     03DB  2BDD               	goto	u1811
  9842     03DC  2BDF               	goto	u1810
  9843     03DD                     u1811:
  9844     03DD  3001               	movlw	1
  9845     03DE  2BE0               	goto	u1812
  9846     03DF                     u1810:
  9847     03DF  3000               	movlw	0
  9848     03E0                     u1812:
  9849     03E0  00F1               	movwf	??_LIN_calcParity
  9850     03E1  1873               	btfsc	LIN_calcParity@PID,0
  9851     03E2  2BE4               	goto	u1821
  9852     03E3  2BE6               	goto	u1820
  9853     03E4                     u1821:
  9854     03E4  3001               	movlw	1
  9855     03E5  2BE7               	goto	u1822
  9856     03E6                     u1820:
  9857     03E6  3000               	movlw	0
  9858     03E7                     u1822:
  9859     03E7  0671               	xorwf	??_LIN_calcParity,w
  9860     03E8  1D03               	skipz
  9861     03E9  2BEB               	goto	u1831
  9862     03EA  2BED               	goto	u1830
  9863     03EB                     u1831:
  9864     03EB  1773               	bsf	LIN_calcParity@PID,6
  9865     03EC  2BEE               	goto	u1844
  9866     03ED                     u1830:
  9867     03ED  1373               	bcf	LIN_calcParity@PID,6
  9868     03EE                     u1844:
  9869                           
  9870                           ;mcc_generated_files/LINDrivers/lin_slave.c: 287:   PID.P0 = PID.P0 ^ PID.ID2;
  9871     03EE  1973               	btfsc	LIN_calcParity@PID,2
  9872     03EF  2BF1               	goto	u1851
  9873     03F0  2BF3               	goto	u1850
  9874     03F1                     u1851:
  9875     03F1  3001               	movlw	1
  9876     03F2  2BF4               	goto	u1852
  9877     03F3                     u1850:
  9878     03F3  3000               	movlw	0
  9879     03F4                     u1852:
  9880     03F4  00F1               	movwf	??_LIN_calcParity
  9881     03F5  1B73               	btfsc	LIN_calcParity@PID,6
  9882     03F6  2BF8               	goto	u1861
  9883     03F7  2BFA               	goto	u1860
  9884     03F8                     u1861:
  9885     03F8  3001               	movlw	1
  9886     03F9  2BFB               	goto	u1862
  9887     03FA                     u1860:
  9888     03FA  3000               	movlw	0
  9889     03FB                     u1862:
  9890     03FB  0671               	xorwf	??_LIN_calcParity,w
  9891     03FC  1D03               	skipz
  9892     03FD  2BFF               	goto	u1871
  9893     03FE  2C01               	goto	u1870
  9894     03FF                     u1871:
  9895     03FF  1773               	bsf	LIN_calcParity@PID,6
  9896     0400  2C02               	goto	u1884
  9897     0401                     u1870:
  9898     0401  1373               	bcf	LIN_calcParity@PID,6
  9899     0402                     u1884:
  9900                           
  9901                           ;mcc_generated_files/LINDrivers/lin_slave.c: 288:   PID.P0 = PID.P0 ^ PID.ID4;
  9902     0402  1A73               	btfsc	LIN_calcParity@PID,4
  9903     0403  2C05               	goto	u1891
  9904     0404  2C07               	goto	u1890
  9905     0405                     u1891:
  9906     0405  3001               	movlw	1
  9907     0406  2C08               	goto	u1892
  9908     0407                     u1890:
  9909     0407  3000               	movlw	0
  9910     0408                     u1892:
  9911     0408  00F1               	movwf	??_LIN_calcParity
  9912     0409  1B73               	btfsc	LIN_calcParity@PID,6
  9913     040A  2C0C               	goto	u1901
  9914     040B  2C0E               	goto	u1900
  9915     040C                     u1901:
  9916     040C  3001               	movlw	1
  9917     040D  2C0F               	goto	u1902
  9918     040E                     u1900:
  9919     040E  3000               	movlw	0
  9920     040F                     u1902:
  9921     040F  0671               	xorwf	??_LIN_calcParity,w
  9922     0410  1D03               	skipz
  9923     0411  2C13               	goto	u1911
  9924     0412  2C15               	goto	u1910
  9925     0413                     u1911:
  9926     0413  1773               	bsf	LIN_calcParity@PID,6
  9927     0414  2C16               	goto	u1924
  9928     0415                     u1910:
  9929     0415  1373               	bcf	LIN_calcParity@PID,6
  9930     0416                     u1924:
  9931                           
  9932                           ;mcc_generated_files/LINDrivers/lin_slave.c: 289:   PID.P1 = PID.ID1 ^ PID.ID3;
  9933     0416  19F3               	btfsc	LIN_calcParity@PID,3
  9934     0417  2C19               	goto	u1931
  9935     0418  2C1B               	goto	u1930
  9936     0419                     u1931:
  9937     0419  3001               	movlw	1
  9938     041A  2C1C               	goto	u1932
  9939     041B                     u1930:
  9940     041B  3000               	movlw	0
  9941     041C                     u1932:
  9942     041C  00F1               	movwf	??_LIN_calcParity
  9943     041D  18F3               	btfsc	LIN_calcParity@PID,1
  9944     041E  2C20               	goto	u1941
  9945     041F  2C22               	goto	u1940
  9946     0420                     u1941:
  9947     0420  3001               	movlw	1
  9948     0421  2C23               	goto	u1942
  9949     0422                     u1940:
  9950     0422  3000               	movlw	0
  9951     0423                     u1942:
  9952     0423  0671               	xorwf	??_LIN_calcParity,w
  9953     0424  1D03               	skipz
  9954     0425  2C27               	goto	u1951
  9955     0426  2C29               	goto	u1950
  9956     0427                     u1951:
  9957     0427  17F3               	bsf	LIN_calcParity@PID,7
  9958     0428  2C2A               	goto	u1964
  9959     0429                     u1950:
  9960     0429  13F3               	bcf	LIN_calcParity@PID,7
  9961     042A                     u1964:
  9962                           
  9963                           ;mcc_generated_files/LINDrivers/lin_slave.c: 290:   PID.P1 = PID.P1 ^ PID.ID4;
  9964     042A  1A73               	btfsc	LIN_calcParity@PID,4
  9965     042B  2C2D               	goto	u1971
  9966     042C  2C2F               	goto	u1970
  9967     042D                     u1971:
  9968     042D  3001               	movlw	1
  9969     042E  2C30               	goto	u1972
  9970     042F                     u1970:
  9971     042F  3000               	movlw	0
  9972     0430                     u1972:
  9973     0430  00F1               	movwf	??_LIN_calcParity
  9974     0431  1BF3               	btfsc	LIN_calcParity@PID,7
  9975     0432  2C34               	goto	u1981
  9976     0433  2C36               	goto	u1980
  9977     0434                     u1981:
  9978     0434  3001               	movlw	1
  9979     0435  2C37               	goto	u1982
  9980     0436                     u1980:
  9981     0436  3000               	movlw	0
  9982     0437                     u1982:
  9983     0437  0671               	xorwf	??_LIN_calcParity,w
  9984     0438  1D03               	skipz
  9985     0439  2C3B               	goto	u1991
  9986     043A  2C3D               	goto	u1990
  9987     043B                     u1991:
  9988     043B  17F3               	bsf	LIN_calcParity@PID,7
  9989     043C  2C3E               	goto	u2004
  9990     043D                     u1990:
  9991     043D  13F3               	bcf	LIN_calcParity@PID,7
  9992     043E                     u2004:
  9993                           
  9994                           ;mcc_generated_files/LINDrivers/lin_slave.c: 291:   PID.P1 = PID.P1 ^ PID.ID5;
  9995     043E  1AF3               	btfsc	LIN_calcParity@PID,5
  9996     043F  2C41               	goto	u2011
  9997     0440  2C43               	goto	u2010
  9998     0441                     u2011:
  9999     0441  3001               	movlw	1
 10000     0442  2C44               	goto	u2012
 10001     0443                     u2010:
 10002     0443  3000               	movlw	0
 10003     0444                     u2012:
 10004     0444  00F1               	movwf	??_LIN_calcParity
 10005     0445  1BF3               	btfsc	LIN_calcParity@PID,7
 10006     0446  2C48               	goto	u2021
 10007     0447  2C4A               	goto	u2020
 10008     0448                     u2021:
 10009     0448  3001               	movlw	1
 10010     0449  2C4B               	goto	u2022
 10011     044A                     u2020:
 10012     044A  3000               	movlw	0
 10013     044B                     u2022:
 10014     044B  0671               	xorwf	??_LIN_calcParity,w
 10015     044C  1D03               	skipz
 10016     044D  2C4F               	goto	u2031
 10017     044E  2C51               	goto	u2030
 10018     044F                     u2031:
 10019     044F  17F3               	bsf	LIN_calcParity@PID,7
 10020     0450  2C52               	goto	u2044
 10021     0451                     u2030:
 10022     0451  13F3               	bcf	LIN_calcParity@PID,7
 10023     0452                     u2044:
 10024     0452                     l3075:
 10025                           
 10026                           ;mcc_generated_files/LINDrivers/lin_slave.c: 292:   PID.P1 = ~PID.P1;
 10027     0452  1003               	clrc
 10028     0453  1FF3               	btfss	LIN_calcParity@PID,7
 10029     0454  1403               	setc
 10030     0455  1803               	btfsc	3,0
 10031     0456  2C58               	goto	u2051
 10032     0457  2C5A               	goto	u2050
 10033     0458                     u2051:
 10034     0458  17F3               	bsf	LIN_calcParity@PID,7
 10035     0459  2C5B               	goto	u2064
 10036     045A                     u2050:
 10037     045A  13F3               	bcf	LIN_calcParity@PID,7
 10038     045B                     u2064:
 10039     045B                     l3077:
 10040                           
 10041                           ;mcc_generated_files/LINDrivers/lin_slave.c: 294:   return PID.rawPID;
 10042     045B  0873               	movf	LIN_calcParity@PID,w
 10043     045C                     l282:
 10044     045C  0008               	return
 10045     045D                     __end_of_LIN_calcParity:
 10046                           
 10047                           	psect	text63
 10048     0E94                     __ptext63:	
 10049 ;; *************** function _LIN_breakCheck *****************
 10050 ;; Defined at:
 10051 ;;		line 352 in file "mcc_generated_files/LINDrivers/lin_slave.c"
 10052 ;; Parameters:    Size  Location     Type
 10053 ;;		None
 10054 ;; Auto vars:     Size  Location     Type
 10055 ;;		None
 10056 ;; Return value:  Size  Location     Type
 10057 ;;                  1    wreg      _Bool 
 10058 ;; Registers used:
 10059 ;;		wreg, fsr1l, fsr1h, status,2, status,0, pclath, cstack
 10060 ;; Tracked objects:
 10061 ;;		On entry : 0/0
 10062 ;;		On exit  : 0/0
 10063 ;;		Unchanged: 0/0
 10064 ;; Data sizes:     COMMON   BANK0   BANK1   BANK2   BANK3   BANK4   BANK5   BANK6
 10065 ;;      Params:         0       0       0       0       0       0       0       0
 10066 ;;      Locals:         0       0       0       0       0       0       0       0
 10067 ;;      Temps:          0       0       0       0       0       0       0       0
 10068 ;;      Totals:         0       0       0       0       0       0       0       0
 10069 ;;Total ram usage:        0 bytes
 10070 ;; Hardware stack levels used: 1
 10071 ;; Hardware stack levels required when called: 5
 10072 ;; This function calls:
 10073 ;;		_EUSART_Read
 10074 ;;		_EUSART_get_last_status
 10075 ;; This function is called by:
 10076 ;;		_LIN_handler
 10077 ;; This function uses a non-reentrant model
 10078 ;;
 10079                           
 10080     0E94                     _LIN_breakCheck:	
 10081                           ;psect for function _LIN_breakCheck
 10082                           
 10083     0E94                     l3271:	
 10084                           ;incstack = 0
 10085                           ; Regs used in _LIN_breakCheck: [wreg+fsr1l+fsr1h+status,2+status,0+pclath+cstack]
 10086                           
 10087                           
 10088                           ;mcc_generated_files/LINDrivers/lin_slave.c: 354:   if ((EUSART_Read() == 0x00) && (EUSA
      +                          RT_get_last_status().ferr == 1)) {
 10089     0E94  3187  2784  318E   	fcall	_EUSART_Read
 10090     0E97  3A00               	xorlw	0
 10091     0E98  1D03               	skipz
 10092     0E99  2E9B               	goto	u2391
 10093     0E9A  2E9C               	goto	u2390
 10094     0E9B                     u2391:
 10095     0E9B  2EA5               	goto	l3279
 10096     0E9C                     u2390:
 10097     0E9C                     l3273:
 10098     0E9C  318D  258B  318E   	fcall	_EUSART_get_last_status
 10099     0E9F  1C89               	btfss	9,1
 10100     0EA0  2EA2               	goto	u2401
 10101     0EA1  2EA3               	goto	u2400
 10102     0EA2                     u2401:
 10103     0EA2  2EA5               	goto	l3279
 10104     0EA3                     u2400:
 10105     0EA3                     l3275:
 10106                           
 10107                           ;mcc_generated_files/LINDrivers/lin_slave.c: 355:     return 1;
 10108     0EA3  3001               	movlw	1
 10109     0EA4  2EA6               	goto	l312
 10110     0EA5                     l3279:
 10111                           
 10112                           ;mcc_generated_files/LINDrivers/lin_slave.c: 358:   return 0;
 10113     0EA5  3000               	movlw	0
 10114     0EA6                     l312:
 10115     0EA6  0008               	return
 10116     0EA7                     __end_of_LIN_breakCheck:
 10117                           
 10118                           	psect	text64
 10119     0D8B                     __ptext64:	
 10120 ;; *************** function _EUSART_get_last_status *****************
 10121 ;; Defined at:
 10122 ;;		line 158 in file "mcc_generated_files/eusart.c"
 10123 ;; Parameters:    Size  Location     Type
 10124 ;;		None
 10125 ;; Auto vars:     Size  Location     Type
 10126 ;;		None
 10127 ;; Return value:  Size  Location     Type
 10128 ;;                  1    wreg      struct .
 10129 ;; Registers used:
 10130 ;;		wreg
 10131 ;; Tracked objects:
 10132 ;;		On entry : 0/0
 10133 ;;		On exit  : 0/0
 10134 ;;		Unchanged: 0/0
 10135 ;; Data sizes:     COMMON   BANK0   BANK1   BANK2   BANK3   BANK4   BANK5   BANK6
 10136 ;;      Params:         0       0       0       0       0       0       0       0
 10137 ;;      Locals:         0       0       0       0       0       0       0       0
 10138 ;;      Temps:          0       0       0       0       0       0       0       0
 10139 ;;      Totals:         0       0       0       0       0       0       0       0
 10140 ;;Total ram usage:        0 bytes
 10141 ;; Hardware stack levels used: 1
 10142 ;; Hardware stack levels required when called: 4
 10143 ;; This function calls:
 10144 ;;		Nothing
 10145 ;; This function is called by:
 10146 ;;		_LIN_breakCheck
 10147 ;; This function uses a non-reentrant model
 10148 ;;
 10149                           
 10150     0D8B                     _EUSART_get_last_status:	
 10151                           ;psect for function _EUSART_get_last_status
 10152                           
 10153     0D8B                     l3083:	
 10154                           ;incstack = 0
 10155                           ; Regs used in _EUSART_get_last_status: [wreg]
 10156                           
 10157                           
 10158                           ;mcc_generated_files/eusart.c: 159:     return eusartRxLastError;
 10159     0D8B  0020               	movlb	0	; select bank0
 10160     0D8C  083D               	movf	_eusartRxLastError,w	;volatile
 10161     0D8D                     l430:
 10162     0D8D  0008               	return
 10163     0D8E                     __end_of_EUSART_get_last_status:
 10164                           
 10165                           	psect	text65
 10166     0784                     __ptext65:	
 10167 ;; *************** function _EUSART_Read *****************
 10168 ;; Defined at:
 10169 ;;		line 163 in file "mcc_generated_files/eusart.c"
 10170 ;; Parameters:    Size  Location     Type
 10171 ;;		None
 10172 ;; Auto vars:     Size  Location     Type
 10173 ;;  readValue       1    2[COMMON] unsigned char 
 10174 ;; Return value:  Size  Location     Type
 10175 ;;                  1    wreg      unsigned char 
 10176 ;; Registers used:
 10177 ;;		wreg, fsr1l, fsr1h, status,2, status,0
 10178 ;; Tracked objects:
 10179 ;;		On entry : 0/0
 10180 ;;		On exit  : 0/0
 10181 ;;		Unchanged: 0/0
 10182 ;; Data sizes:     COMMON   BANK0   BANK1   BANK2   BANK3   BANK4   BANK5   BANK6
 10183 ;;      Params:         0       0       0       0       0       0       0       0
 10184 ;;      Locals:         1       0       0       0       0       0       0       0
 10185 ;;      Temps:          1       0       0       0       0       0       0       0
 10186 ;;      Totals:         2       0       0       0       0       0       0       0
 10187 ;;Total ram usage:        2 bytes
 10188 ;; Hardware stack levels used: 1
 10189 ;; Hardware stack levels required when called: 4
 10190 ;; This function calls:
 10191 ;;		Nothing
 10192 ;; This function is called by:
 10193 ;;		_LIN_handler
 10194 ;;		_LIN_breakCheck
 10195 ;; This function uses a non-reentrant model
 10196 ;;
 10197                           
 10198     0784                     _EUSART_Read:	
 10199                           ;psect for function _EUSART_Read
 10200                           
 10201     0784                     l3003:	
 10202                           ;incstack = 0
 10203                           ; Regs used in _EUSART_Read: [wreg+fsr1l+fsr1h+status,2+status,0]
 10204                           
 10205     0784                     l3005:	
 10206                           ;mcc_generated_files/eusart.c: 167:     while(0 == eusartRxCount)
 10207                           
 10208                           
 10209                           ;mcc_generated_files/eusart.c: 167:     while(0 == eusartRxCount)
 10210     0784  0020               	movlb	0	; select bank0
 10211     0785  083E               	movf	_eusartRxCount,w	;volatile
 10212     0786  1903               	btfsc	3,2
 10213     0787  2F89               	goto	u1761
 10214     0788  2F8A               	goto	u1760
 10215     0789                     u1761:
 10216     0789  2F84               	goto	l3005
 10217     078A                     u1760:
 10218     078A                     l3007:
 10219                           
 10220                           ;mcc_generated_files/eusart.c: 171:     eusartRxLastError = eusartRxStatusBuffer[eusartR
      +                          xTail];
 10221     078A  083F               	movf	_eusartRxTail,w	;volatile
 10222     078B  3EA0               	addlw	(low (_eusartRxStatusBuffer| 0))& (0+255)
 10223     078C  0086               	movwf	6
 10224     078D  0187               	clrf	7
 10225     078E  0801               	movf	1,w
 10226     078F  00BD               	movwf	_eusartRxLastError	;volatile
 10227                           
 10228                           ;mcc_generated_files/eusart.c: 173:     readValue = eusartRxBuffer[eusartRxTail++];
 10229     0790  083F               	movf	_eusartRxTail,w
 10230     0791  3EA8               	addlw	(low (_eusartRxBuffer| 0))& (0+255)
 10231     0792  0086               	movwf	6
 10232     0793  0187               	clrf	7
 10233     0794  0801               	movf	1,w
 10234     0795  00F2               	movwf	EUSART_Read@readValue
 10235     0796                     l3009:
 10236     0796  3001               	movlw	1
 10237     0797  00F1               	movwf	??_EUSART_Read
 10238     0798  0871               	movf	??_EUSART_Read,w
 10239     0799  07BF               	addwf	_eusartRxTail,f	;volatile
 10240     079A                     l3011:
 10241                           
 10242                           ;mcc_generated_files/eusart.c: 175:     if(sizeof(eusartRxBuffer) <= eusartRxTail)
 10243     079A  3008               	movlw	8
 10244     079B  023F               	subwf	_eusartRxTail,w	;volatile
 10245     079C  1C03               	skipc
 10246     079D  2F9F               	goto	u1771
 10247     079E  2FA0               	goto	u1770
 10248     079F                     u1771:
 10249     079F  2FA1               	goto	l3015
 10250     07A0                     u1770:
 10251     07A0                     l3013:
 10252                           
 10253                           ;mcc_generated_files/eusart.c: 176:     {;mcc_generated_files/eusart.c: 177:         eus
      +                          artRxTail = 0;
 10254     07A0  01BF               	clrf	_eusartRxTail	;volatile
 10255     07A1                     l3015:
 10256                           
 10257                           ;mcc_generated_files/eusart.c: 180:     PIE1bits.RCIE = 0;
 10258     07A1  0021               	movlb	1	; select bank1
 10259     07A2  1291               	bcf	17,5	;volatile
 10260     07A3                     l3017:
 10261                           
 10262                           ;mcc_generated_files/eusart.c: 181:     eusartRxCount--;
 10263     07A3  3001               	movlw	1
 10264     07A4  0020               	movlb	0	; select bank0
 10265     07A5  02BE               	subwf	_eusartRxCount,f	;volatile
 10266     07A6                     l3019:
 10267                           
 10268                           ;mcc_generated_files/eusart.c: 182:     PIE1bits.RCIE = 1;
 10269     07A6  0021               	movlb	1	; select bank1
 10270     07A7  1691               	bsf	17,5	;volatile
 10271     07A8                     l3021:
 10272                           
 10273                           ;mcc_generated_files/eusart.c: 184:     return readValue;
 10274     07A8  0872               	movf	EUSART_Read@readValue,w
 10275     07A9                     l437:
 10276     07A9  0008               	return
 10277     07AA                     __end_of_EUSART_Read:
 10278                           
 10279                           	psect	text66
 10280     0E23                     __ptext66:	
 10281 ;; *************** function _EUSART_is_rx_ready *****************
 10282 ;; Defined at:
 10283 ;;		line 147 in file "mcc_generated_files/eusart.c"
 10284 ;; Parameters:    Size  Location     Type
 10285 ;;		None
 10286 ;; Auto vars:     Size  Location     Type
 10287 ;;		None
 10288 ;; Return value:  Size  Location     Type
 10289 ;;                  1    wreg      _Bool 
 10290 ;; Registers used:
 10291 ;;		wreg, status,2, status,0
 10292 ;; Tracked objects:
 10293 ;;		On entry : 0/0
 10294 ;;		On exit  : 0/0
 10295 ;;		Unchanged: 0/0
 10296 ;; Data sizes:     COMMON   BANK0   BANK1   BANK2   BANK3   BANK4   BANK5   BANK6
 10297 ;;      Params:         0       0       0       0       0       0       0       0
 10298 ;;      Locals:         0       0       0       0       0       0       0       0
 10299 ;;      Temps:          0       0       0       0       0       0       0       0
 10300 ;;      Totals:         0       0       0       0       0       0       0       0
 10301 ;;Total ram usage:        0 bytes
 10302 ;; Hardware stack levels used: 1
 10303 ;; Hardware stack levels required when called: 4
 10304 ;; This function calls:
 10305 ;;		Nothing
 10306 ;; This function is called by:
 10307 ;;		_LIN_handler
 10308 ;; This function uses a non-reentrant model
 10309 ;;
 10310                           
 10311     0E23                     _EUSART_is_rx_ready:	
 10312                           ;psect for function _EUSART_is_rx_ready
 10313                           
 10314     0E23                     l3261:	
 10315                           ;incstack = 0
 10316                           ; Regs used in _EUSART_is_rx_ready: [wreg+status,2+status,0]
 10317                           
 10318                           
 10319                           ;mcc_generated_files/eusart.c: 149:     return (eusartRxCount ? 1 : 0);
 10320     0E23  0020               	movlb	0	; select bank0
 10321     0E24  083E               	movf	_eusartRxCount,w	;volatile
 10322     0E25  1D03               	btfss	3,2
 10323     0E26  2E28               	goto	u2371
 10324     0E27  2E2A               	goto	u2370
 10325     0E28                     u2371:
 10326     0E28  3001               	movlw	1
 10327     0E29  2E2B               	goto	u2380
 10328     0E2A                     u2370:
 10329     0E2A  3000               	movlw	0
 10330     0E2B                     u2380:
 10331     0E2B                     l424:
 10332     0E2B  0008               	return
 10333     0E2C                     __end_of_EUSART_is_rx_ready:
 10334                           
 10335                           	psect	text67
 10336     0E81                     __ptext67:	
 10337 ;; *************** function _AutoBaud_Detect *****************
 10338 ;; Defined at:
 10339 ;;		line 121 in file "main.c"
 10340 ;; Parameters:    Size  Location     Type
 10341 ;;		None
 10342 ;; Auto vars:     Size  Location     Type
 10343 ;;		None
 10344 ;; Return value:  Size  Location     Type
 10345 ;;                  1    wreg      void 
 10346 ;; Registers used:
 10347 ;;		status,2, status,0, pclath, cstack
 10348 ;; Tracked objects:
 10349 ;;		On entry : 0/0
 10350 ;;		On exit  : 0/0
 10351 ;;		Unchanged: 0/0
 10352 ;; Data sizes:     COMMON   BANK0   BANK1   BANK2   BANK3   BANK4   BANK5   BANK6
 10353 ;;      Params:         0       0       0       0       0       0       0       0
 10354 ;;      Locals:         0       0       0       0       0       0       0       0
 10355 ;;      Temps:          0       0       0       0       0       0       0       0
 10356 ;;      Totals:         0       0       0       0       0       0       0       0
 10357 ;;Total ram usage:        0 bytes
 10358 ;; Hardware stack levels used: 1
 10359 ;; Hardware stack levels required when called: 5
 10360 ;; This function calls:
 10361 ;;		_AutoBaud_Detect_ON
 10362 ;; This function is called by:
 10363 ;;		_main
 10364 ;; This function uses a non-reentrant model
 10365 ;;
 10366                           
 10367     0E81                     _AutoBaud_Detect:	
 10368                           ;psect for function _AutoBaud_Detect
 10369                           
 10370     0E81                     l708:	
 10371                           ;incstack = 0
 10372                           ; Regs used in _AutoBaud_Detect: [status,2+status,0+pclath+cstack]
 10373                           ;main.c: 122:   while (1) {
 10374                           
 10375     0E81                     l3629:
 10376                           
 10377                           ;main.c: 123:     AutoBaud_Detect_ON();
 10378     0E81  318D  25B3  318E   	fcall	_AutoBaud_Detect_ON
 10379                           
 10380                           ;main.c: 124:     while (!BAUDCONbits.ABDOVF)
 10381     0E84  2E8A               	goto	l709
 10382     0E85                     l710:
 10383                           
 10384                           ;main.c: 125:     {;main.c: 126:       if (!BAUDCONbits.ABDEN)
 10385     0E85  181F               	btfsc	31,0	;volatile
 10386     0E86  2E88               	goto	u2761
 10387     0E87  2E89               	goto	u2760
 10388     0E88                     u2761:
 10389     0E88  2E8A               	goto	l709
 10390     0E89                     u2760:
 10391     0E89  2E8F               	goto	l712
 10392     0E8A                     l709:	
 10393                           ;main.c: 130:     }
 10394                           
 10395                           
 10396                           ;main.c: 124:     while (!BAUDCONbits.ABDOVF)
 10397     0E8A  0023               	movlb	3	; select bank3
 10398     0E8B  1F9F               	btfss	31,7	;volatile
 10399     0E8C  2E8E               	goto	u2771
 10400     0E8D  2E8F               	goto	u2770
 10401     0E8E                     u2771:
 10402     0E8E  2E85               	goto	l710
 10403     0E8F                     u2770:
 10404     0E8F                     l712:
 10405                           
 10406                           ;main.c: 133:     if (!BAUDCONbits.ABDOVF)
 10407     0E8F  1B9F               	btfsc	31,7	;volatile
 10408     0E90  2E92               	goto	u2781
 10409     0E91  2E93               	goto	u2780
 10410     0E92                     u2781:
 10411     0E92  2E81               	goto	l708
 10412     0E93                     u2780:
 10413     0E93                     l716:
 10414     0E93  0008               	return
 10415     0E94                     __end_of_AutoBaud_Detect:
 10416                           
 10417                           	psect	text68
 10418     0DB3                     __ptext68:	
 10419 ;; *************** function _AutoBaud_Detect_ON *****************
 10420 ;; Defined at:
 10421 ;;		line 114 in file "main.c"
 10422 ;; Parameters:    Size  Location     Type
 10423 ;;		None
 10424 ;; Auto vars:     Size  Location     Type
 10425 ;;		None
 10426 ;; Return value:  Size  Location     Type
 10427 ;;                  1    wreg      void 
 10428 ;; Registers used:
 10429 ;;		None
 10430 ;; Tracked objects:
 10431 ;;		On entry : 0/0
 10432 ;;		On exit  : 0/0
 10433 ;;		Unchanged: 0/0
 10434 ;; Data sizes:     COMMON   BANK0   BANK1   BANK2   BANK3   BANK4   BANK5   BANK6
 10435 ;;      Params:         0       0       0       0       0       0       0       0
 10436 ;;      Locals:         0       0       0       0       0       0       0       0
 10437 ;;      Temps:          0       0       0       0       0       0       0       0
 10438 ;;      Totals:         0       0       0       0       0       0       0       0
 10439 ;;Total ram usage:        0 bytes
 10440 ;; Hardware stack levels used: 1
 10441 ;; Hardware stack levels required when called: 4
 10442 ;; This function calls:
 10443 ;;		Nothing
 10444 ;; This function is called by:
 10445 ;;		_AutoBaud_Detect
 10446 ;; This function uses a non-reentrant model
 10447 ;;
 10448                           
 10449     0DB3                     _AutoBaud_Detect_ON:	
 10450                           ;psect for function _AutoBaud_Detect_ON
 10451                           
 10452     0DB3                     l3407:	
 10453                           ;incstack = 0
 10454                           ; Regs used in _AutoBaud_Detect_ON: []
 10455                           
 10456                           
 10457                           ;main.c: 115:   BAUDCONbits.ABDOVF = 0;
 10458     0DB3  0023               	movlb	3	; select bank3
 10459     0DB4  139F               	bcf	31,7	;volatile
 10460                           
 10461                           ;main.c: 116:   BAUDCONbits.ABDEN = 1;
 10462     0DB5  141F               	bsf	31,0	;volatile
 10463                           
 10464                           ;main.c: 117:   BAUDCONbits.WUE = 1;
 10465     0DB6  149F               	bsf	31,1	;volatile
 10466     0DB7                     l705:
 10467     0DB7  0008               	return
 10468     0DB8                     __end_of_AutoBaud_Detect_ON:
 10469                           
 10470                           	psect	intentry
 10471     0004                     __pintentry:	
 10472 ;; *************** function _INTERRUPT_InterruptManager *****************
 10473 ;; Defined at:
 10474 ;;		line 52 in file "mcc_generated_files/interrupt_manager.c"
 10475 ;; Parameters:    Size  Location     Type
 10476 ;;		None
 10477 ;; Auto vars:     Size  Location     Type
 10478 ;;		None
 10479 ;; Return value:  Size  Location     Type
 10480 ;;                  1    wreg      void 
 10481 ;; Registers used:
 10482 ;;		wreg, fsr1l, fsr1h, status,2, status,0, pclath, cstack
 10483 ;; Tracked objects:
 10484 ;;		On entry : 0/0
 10485 ;;		On exit  : 0/0
 10486 ;;		Unchanged: 0/0
 10487 ;; Data sizes:     COMMON   BANK0   BANK1   BANK2   BANK3   BANK4   BANK5   BANK6
 10488 ;;      Params:         0       0       0       0       0       0       0       0
 10489 ;;      Locals:         0       0       0       0       0       0       0       0
 10490 ;;      Temps:          0       0       0       0       0       0       0       0
 10491 ;;      Totals:         0       0       0       0       0       0       0       0
 10492 ;;Total ram usage:        0 bytes
 10493 ;; Hardware stack levels used: 1
 10494 ;; Hardware stack levels required when called: 3
 10495 ;; This function calls:
 10496 ;;		NULL
 10497 ;;		_EUSART_Receive_ISR
 10498 ;;		_EUSART_Transmit_ISR
 10499 ;;		_TMR0_ISR
 10500 ;; This function is called by:
 10501 ;;		Interrupt level 1
 10502 ;; This function uses a non-reentrant model
 10503 ;;
 10504                           
 10505     0004                     _INTERRUPT_InterruptManager:
 10506                           
 10507                           ;incstack = 0
 10508     0004  147E               	bsf	int$flags,0	;set compiler interrupt flag (level 1)
 10509                           
 10510                           ; Regs used in _INTERRUPT_InterruptManager: [wreg+fsr1l+fsr1h+status,2+status,0+pclath+c
      +                          stack]
 10511     0005  3180               	pagesel	$
 10512     0006                     i1l3813:
 10513                           
 10514                           ;mcc_generated_files/interrupt_manager.c: 55:     if(INTCONbits.TMR0IE == 1 && INTCONbit
      +                          s.TMR0IF == 1)
 10515     0006  1E8B               	btfss	11,5	;volatile
 10516     0007  2809               	goto	u301_21
 10517     0008  280A               	goto	u301_20
 10518     0009                     u301_21:
 10519     0009  2812               	goto	i1l548
 10520     000A                     u301_20:
 10521     000A                     i1l3815:
 10522     000A  1D0B               	btfss	11,2	;volatile
 10523     000B  280D               	goto	u302_21
 10524     000C  280E               	goto	u302_20
 10525     000D                     u302_21:
 10526     000D  2812               	goto	i1l548
 10527     000E                     u302_20:
 10528     000E                     i1l3817:
 10529                           
 10530                           ;mcc_generated_files/interrupt_manager.c: 56:     {;mcc_generated_files/interrupt_manage
      +                          r.c: 57:         TMR0_ISR();
 10531     000E  318E  2671  3180   	fcall	_TMR0_ISR
 10532                           
 10533                           ;mcc_generated_files/interrupt_manager.c: 58:     }
 10534     0011  2836               	goto	i1l556
 10535     0012                     i1l548:	
 10536                           ;mcc_generated_files/interrupt_manager.c: 59:     else if(INTCONbits.PEIE == 1)
 10537                           
 10538     0012  1F0B               	btfss	11,6	;volatile
 10539     0013  2815               	goto	u303_21
 10540     0014  2816               	goto	u303_20
 10541     0015                     u303_21:
 10542     0015  2836               	goto	i1l556
 10543     0016                     u303_20:
 10544     0016                     i1l3819:
 10545                           
 10546                           ;mcc_generated_files/interrupt_manager.c: 60:     {;mcc_generated_files/interrupt_manage
      +                          r.c: 61:         if(PIE1bits.TXIE == 1 && PIR1bits.TXIF == 1)
 10547     0016  0021               	movlb	1	; select bank1
 10548     0017  1E11               	btfss	17,4	;volatile
 10549     0018  281A               	goto	u304_21
 10550     0019  281B               	goto	u304_20
 10551     001A                     u304_21:
 10552     001A  2826               	goto	i1l551
 10553     001B                     u304_20:
 10554     001B                     i1l3821:
 10555     001B  0020               	movlb	0	; select bank0
 10556     001C  1E11               	btfss	17,4	;volatile
 10557     001D  281F               	goto	u305_21
 10558     001E  2820               	goto	u305_20
 10559     001F                     u305_21:
 10560     001F  2826               	goto	i1l551
 10561     0020                     u305_20:
 10562     0020                     i1l3823:
 10563                           
 10564                           ;mcc_generated_files/interrupt_manager.c: 62:         {;mcc_generated_files/interrupt_ma
      +                          nager.c: 63:             EUSART_TxDefaultInterruptHandler();
 10565     0020  082D               	movf	_EUSART_TxDefaultInterruptHandler+1,w
 10566     0021  008A               	movwf	10
 10567     0022  082C               	movf	_EUSART_TxDefaultInterruptHandler,w
 10568     0023  000A               	callw
 10569     0024  3180               	pagesel	$
 10570                           
 10571                           ;mcc_generated_files/interrupt_manager.c: 64:         }
 10572     0025  2836               	goto	i1l556
 10573     0026                     i1l551:	
 10574                           ;mcc_generated_files/interrupt_manager.c: 65:         else if(PIE1bits.RCIE == 1 && PIR1
      +                          bits.RCIF == 1)
 10575                           
 10576     0026  0021               	movlb	1	; select bank1
 10577     0027  1E91               	btfss	17,5	;volatile
 10578     0028  282A               	goto	u306_21
 10579     0029  282B               	goto	u306_20
 10580     002A                     u306_21:
 10581     002A  2836               	goto	i1l555
 10582     002B                     u306_20:
 10583     002B                     i1l3825:
 10584     002B  0020               	movlb	0	; select bank0
 10585     002C  1E91               	btfss	17,5	;volatile
 10586     002D  282F               	goto	u307_21
 10587     002E  2830               	goto	u307_20
 10588     002F                     u307_21:
 10589     002F  2836               	goto	i1l555
 10590     0030                     u307_20:
 10591     0030                     i1l3827:
 10592                           
 10593                           ;mcc_generated_files/interrupt_manager.c: 66:         {;mcc_generated_files/interrupt_ma
      +                          nager.c: 67:             EUSART_RxDefaultInterruptHandler();
 10594     0030  082B               	movf	_EUSART_RxDefaultInterruptHandler+1,w
 10595     0031  008A               	movwf	10
 10596     0032  082A               	movf	_EUSART_RxDefaultInterruptHandler,w
 10597     0033  000A               	callw
 10598     0034  3180               	pagesel	$
 10599                           
 10600                           ;mcc_generated_files/interrupt_manager.c: 68:         }
 10601     0035  2836               	goto	i1l556
 10602     0036                     i1l555:	
 10603                           ;mcc_generated_files/interrupt_manager.c: 75:     {;mcc_generated_files/interrupt_manage
      +                          r.c: 77:     }
 10604                           
 10605     0036                     i1l556:
 10606     0036  107E               	bcf	int$flags,0	;clear compiler interrupt flag (level 1)
 10607     0037  0009               	retfie
 10608     0038                     __end_of_INTERRUPT_InterruptManager:
 10609                           
 10610                           	psect	text70
 10611     0E71                     __ptext70:	
 10612 ;; *************** function _TMR0_ISR *****************
 10613 ;; Defined at:
 10614 ;;		line 112 in file "mcc_generated_files/tmr0.c"
 10615 ;; Parameters:    Size  Location     Type
 10616 ;;		None
 10617 ;; Auto vars:     Size  Location     Type
 10618 ;;		None
 10619 ;; Return value:  Size  Location     Type
 10620 ;;                  1    wreg      void 
 10621 ;; Registers used:
 10622 ;;		wreg, status,2, status,0, pclath, cstack
 10623 ;; Tracked objects:
 10624 ;;		On entry : 0/0
 10625 ;;		On exit  : 0/0
 10626 ;;		Unchanged: 0/0
 10627 ;; Data sizes:     COMMON   BANK0   BANK1   BANK2   BANK3   BANK4   BANK5   BANK6
 10628 ;;      Params:         0       0       0       0       0       0       0       0
 10629 ;;      Locals:         0       0       0       0       0       0       0       0
 10630 ;;      Temps:          0       0       0       0       0       0       0       0
 10631 ;;      Totals:         0       0       0       0       0       0       0       0
 10632 ;;Total ram usage:        0 bytes
 10633 ;; Hardware stack levels used: 1
 10634 ;; Hardware stack levels required when called: 1
 10635 ;; This function calls:
 10636 ;;		NULL
 10637 ;;		_LIN_timerHandler
 10638 ;;		_TMR0_DefaultInterruptHandler
 10639 ;; This function is called by:
 10640 ;;		_INTERRUPT_InterruptManager
 10641 ;; This function uses a non-reentrant model
 10642 ;;
 10643                           
 10644     0E71                     _TMR0_ISR:	
 10645                           ;psect for function _TMR0_ISR
 10646                           
 10647     0E71                     i1l3619:	
 10648                           ;incstack = 0
 10649                           ; Regs used in _TMR0_ISR: [wreg+status,2+status,0+pclath+cstack]
 10650                           
 10651                           
 10652                           ;mcc_generated_files/tmr0.c: 115:   INTCONbits.TMR0IF = 0;
 10653     0E71  110B               	bcf	11,2	;volatile
 10654     0E72                     i1l3621:
 10655                           
 10656                           ;mcc_generated_files/tmr0.c: 117:   TMR0 = timer0ReloadVal;
 10657     0E72  0020               	movlb	0	; select bank0
 10658     0E73  083C               	movf	_timer0ReloadVal,w	;volatile
 10659     0E74  0095               	movwf	21	;volatile
 10660     0E75                     i1l3623:
 10661                           
 10662                           ;mcc_generated_files/tmr0.c: 119:   if (TMR0_InterruptHandler) {
 10663     0E75  0822               	movf	_TMR0_InterruptHandler,w
 10664     0E76  0423               	iorwf	_TMR0_InterruptHandler+1,w
 10665     0E77  1903               	btfsc	3,2
 10666     0E78  2E7A               	goto	u275_21
 10667     0E79  2E7B               	goto	u275_20
 10668     0E7A                     u275_21:
 10669     0E7A  2E80               	goto	i1l521
 10670     0E7B                     u275_20:
 10671     0E7B                     i1l3625:
 10672                           
 10673                           ;mcc_generated_files/tmr0.c: 120:     TMR0_InterruptHandler();
 10674     0E7B  0823               	movf	_TMR0_InterruptHandler+1,w
 10675     0E7C  008A               	movwf	10
 10676     0E7D  0822               	movf	_TMR0_InterruptHandler,w
 10677     0E7E  000A               	callw
 10678     0E7F  318E               	pagesel	$
 10679     0E80                     i1l521:
 10680     0E80  0008               	return
 10681     0E81                     __end_of_TMR0_ISR:
 10682                           
 10683                           	psect	text71
 10684     0E63                     __ptext71:	
 10685 ;; *************** function _LIN_timerHandler *****************
 10686 ;; Defined at:
 10687 ;;		line 318 in file "mcc_generated_files/LINDrivers/lin_slave.c"
 10688 ;; Parameters:    Size  Location     Type
 10689 ;;		None
 10690 ;; Auto vars:     Size  Location     Type
 10691 ;;		None
 10692 ;; Return value:  Size  Location     Type
 10693 ;;                  1    wreg      void 
 10694 ;; Registers used:
 10695 ;;		wreg, status,2, status,0
 10696 ;; Tracked objects:
 10697 ;;		On entry : 0/0
 10698 ;;		On exit  : 0/0
 10699 ;;		Unchanged: 0/0
 10700 ;; Data sizes:     COMMON   BANK0   BANK1   BANK2   BANK3   BANK4   BANK5   BANK6
 10701 ;;      Params:         0       0       0       0       0       0       0       0
 10702 ;;      Locals:         0       0       0       0       0       0       0       0
 10703 ;;      Temps:          1       0       0       0       0       0       0       0
 10704 ;;      Totals:         1       0       0       0       0       0       0       0
 10705 ;;Total ram usage:        1 bytes
 10706 ;; Hardware stack levels used: 1
 10707 ;; This function calls:
 10708 ;;		Nothing
 10709 ;; This function is called by:
 10710 ;;		_LIN_setTimerHandler
 10711 ;;		_TMR0_ISR
 10712 ;; This function uses a non-reentrant model
 10713 ;;
 10714                           
 10715     0E63                     _LIN_timerHandler:	
 10716                           ;psect for function _LIN_timerHandler
 10717                           
 10718     0E63                     i1l3301:	
 10719                           ;incstack = 0
 10720                           ; Regs used in _LIN_timerHandler: [wreg+status,2+status,0]
 10721                           
 10722                           
 10723                           ;mcc_generated_files/LINDrivers/lin_slave.c: 321:   if (++CountCallBack >= LIN_timeout) 
      +                          {
 10724     0E63  3001               	movlw	1
 10725     0E64  00F0               	movwf	??_LIN_timerHandler
 10726     0E65  0870               	movf	??_LIN_timerHandler,w
 10727     0E66  0020               	movlb	0	; select bank0
 10728     0E67  07C5               	addwf	_CountCallBack,f	;volatile
 10729     0E68  086F               	movf	_LIN_timeout,w
 10730     0E69  0245               	subwf	_CountCallBack,w	;volatile
 10731     0E6A  1C03               	skipc
 10732     0E6B  2E6D               	goto	u243_21
 10733     0E6C  2E6E               	goto	u243_20
 10734     0E6D                     u243_21:
 10735     0E6D  2E70               	goto	i1l296
 10736     0E6E                     u243_20:
 10737     0E6E                     i1l3303:
 10738                           
 10739                           ;mcc_generated_files/LINDrivers/lin_slave.c: 324:     CountCallBack = 0;
 10740     0E6E  01C5               	clrf	_CountCallBack	;volatile
 10741                           
 10742                           ;mcc_generated_files/LINDrivers/lin_slave.c: 325:     LIN_timerRunning = 0;
 10743     0E6F  01C6               	clrf	_LIN_timerRunning
 10744     0E70                     i1l296:
 10745     0E70  0008               	return
 10746     0E71                     __end_of_LIN_timerHandler:
 10747                           
 10748                           	psect	text72
 10749     0D87                     __ptext72:	
 10750 ;; *************** function _TMR0_DefaultInterruptHandler *****************
 10751 ;; Defined at:
 10752 ;;		line 131 in file "mcc_generated_files/tmr0.c"
 10753 ;; Parameters:    Size  Location     Type
 10754 ;;		None
 10755 ;; Auto vars:     Size  Location     Type
 10756 ;;		None
 10757 ;; Return value:  Size  Location     Type
 10758 ;;                  1    wreg      void 
 10759 ;; Registers used:
 10760 ;;		None
 10761 ;; Tracked objects:
 10762 ;;		On entry : 0/0
 10763 ;;		On exit  : 0/0
 10764 ;;		Unchanged: 0/0
 10765 ;; Data sizes:     COMMON   BANK0   BANK1   BANK2   BANK3   BANK4   BANK5   BANK6
 10766 ;;      Params:         0       0       0       0       0       0       0       0
 10767 ;;      Locals:         0       0       0       0       0       0       0       0
 10768 ;;      Temps:          0       0       0       0       0       0       0       0
 10769 ;;      Totals:         0       0       0       0       0       0       0       0
 10770 ;;Total ram usage:        0 bytes
 10771 ;; Hardware stack levels used: 1
 10772 ;; This function calls:
 10773 ;;		Nothing
 10774 ;; This function is called by:
 10775 ;;		_TMR0_Initialize
 10776 ;;		_TMR0_ISR
 10777 ;; This function uses a non-reentrant model
 10778 ;;
 10779                           
 10780     0D87                     _TMR0_DefaultInterruptHandler:	
 10781                           ;psect for function _TMR0_DefaultInterruptHandler
 10782                           
 10783     0D87                     i1l527:	
 10784                           ;incstack = 0
 10785                           ; Regs used in _TMR0_DefaultInterruptHandler: []
 10786                           
 10787     0D87  0008               	return
 10788     0D88                     __end_of_TMR0_DefaultInterruptHandler:
 10789                           
 10790                           	psect	text73
 10791     0FDE                     __ptext73:	
 10792 ;; *************** function _EUSART_Transmit_ISR *****************
 10793 ;; Defined at:
 10794 ;;		line 214 in file "mcc_generated_files/eusart.c"
 10795 ;; Parameters:    Size  Location     Type
 10796 ;;		None
 10797 ;; Auto vars:     Size  Location     Type
 10798 ;;		None
 10799 ;; Return value:  Size  Location     Type
 10800 ;;                  1    wreg      void 
 10801 ;; Registers used:
 10802 ;;		wreg, fsr1l, fsr1h, status,2, status,0
 10803 ;; Tracked objects:
 10804 ;;		On entry : 0/0
 10805 ;;		On exit  : 0/0
 10806 ;;		Unchanged: 0/0
 10807 ;; Data sizes:     COMMON   BANK0   BANK1   BANK2   BANK3   BANK4   BANK5   BANK6
 10808 ;;      Params:         0       0       0       0       0       0       0       0
 10809 ;;      Locals:         0       0       0       0       0       0       0       0
 10810 ;;      Temps:          1       0       0       0       0       0       0       0
 10811 ;;      Totals:         1       0       0       0       0       0       0       0
 10812 ;;Total ram usage:        1 bytes
 10813 ;; Hardware stack levels used: 1
 10814 ;; This function calls:
 10815 ;;		Nothing
 10816 ;; This function is called by:
 10817 ;;		_EUSART_Initialize
 10818 ;;		_INTERRUPT_InterruptManager
 10819 ;; This function uses a non-reentrant model
 10820 ;;
 10821                           
 10822     0FDE                     _EUSART_Transmit_ISR:	
 10823                           ;psect for function _EUSART_Transmit_ISR
 10824                           
 10825     0FDE                     i1l3587:	
 10826                           ;incstack = 0
 10827                           ; Regs used in _EUSART_Transmit_ISR: [wreg+fsr1l+fsr1h+status,2+status,0]
 10828                           
 10829                           
 10830                           ;mcc_generated_files/eusart.c: 219:     if(sizeof(eusartTxBuffer) > eusartTxBufferRemain
      +                          ing)
 10831     0FDE  3008               	movlw	8
 10832     0FDF  0020               	movlb	0	; select bank0
 10833     0FE0  0240               	subwf	_eusartTxBufferRemaining,w	;volatile
 10834     0FE1  1803               	skipnc
 10835     0FE2  2FE4               	goto	u270_21
 10836     0FE3  2FE5               	goto	u270_20
 10837     0FE4                     u270_21:
 10838     0FE4  2FFD               	goto	i1l449
 10839     0FE5                     u270_20:
 10840     0FE5                     i1l3589:
 10841                           
 10842                           ;mcc_generated_files/eusart.c: 220:     {;mcc_generated_files/eusart.c: 221:         TXR
      +                          EG = eusartTxBuffer[eusartTxTail++];
 10843     0FE5  0841               	movf	_eusartTxTail,w
 10844     0FE6  3EB0               	addlw	(low (_eusartTxBuffer| 0))& (0+255)
 10845     0FE7  0086               	movwf	6
 10846     0FE8  0187               	clrf	7
 10847     0FE9  0801               	movf	1,w
 10848     0FEA  0023               	movlb	3	; select bank3
 10849     0FEB  009A               	movwf	26	;volatile
 10850     0FEC                     i1l3591:
 10851     0FEC  3001               	movlw	1
 10852     0FED  00F0               	movwf	??_EUSART_Transmit_ISR
 10853     0FEE  0870               	movf	??_EUSART_Transmit_ISR,w
 10854     0FEF  0020               	movlb	0	; select bank0
 10855     0FF0  07C1               	addwf	_eusartTxTail,f	;volatile
 10856     0FF1                     i1l3593:
 10857                           
 10858                           ;mcc_generated_files/eusart.c: 223:         if(sizeof(eusartTxBuffer) <= eusartTxTail)
 10859     0FF1  3008               	movlw	8
 10860     0FF2  0241               	subwf	_eusartTxTail,w	;volatile
 10861     0FF3  1C03               	skipc
 10862     0FF4  2FF6               	goto	u271_21
 10863     0FF5  2FF7               	goto	u271_20
 10864     0FF6                     u271_21:
 10865     0FF6  2FF8               	goto	i1l3597
 10866     0FF7                     u271_20:
 10867     0FF7                     i1l3595:
 10868                           
 10869                           ;mcc_generated_files/eusart.c: 224:         {;mcc_generated_files/eusart.c: 225:        
      +                               eusartTxTail = 0;
 10870     0FF7  01C1               	clrf	_eusartTxTail	;volatile
 10871     0FF8                     i1l3597:
 10872                           
 10873                           ;mcc_generated_files/eusart.c: 227:         eusartTxBufferRemaining++;
 10874     0FF8  3001               	movlw	1
 10875     0FF9  00F0               	movwf	??_EUSART_Transmit_ISR
 10876     0FFA  0870               	movf	??_EUSART_Transmit_ISR,w
 10877     0FFB  07C0               	addwf	_eusartTxBufferRemaining,f	;volatile
 10878                           
 10879                           ;mcc_generated_files/eusart.c: 228:     }
 10880     0FFC  2FFF               	goto	i1l452
 10881     0FFD                     i1l449:	
 10882                           ;mcc_generated_files/eusart.c: 229:     else
 10883                           
 10884                           
 10885                           ;mcc_generated_files/eusart.c: 230:     {;mcc_generated_files/eusart.c: 231:         PIE
      +                          1bits.TXIE = 0;
 10886     0FFD  0021               	movlb	1	; select bank1
 10887     0FFE  1211               	bcf	17,4	;volatile
 10888     0FFF                     i1l452:
 10889     0FFF  0008               	return
 10890     1000                     __end_of_EUSART_Transmit_ISR:
 10891                           
 10892                           	psect	text74
 10893     066A                     __ptext74:	
 10894 ;; *************** function _EUSART_Receive_ISR *****************
 10895 ;; Defined at:
 10896 ;;		line 236 in file "mcc_generated_files/eusart.c"
 10897 ;; Parameters:    Size  Location     Type
 10898 ;;		None
 10899 ;; Auto vars:     Size  Location     Type
 10900 ;;		None
 10901 ;; Return value:  Size  Location     Type
 10902 ;;                  1    wreg      void 
 10903 ;; Registers used:
 10904 ;;		wreg, fsr1l, fsr1h, status,2, status,0, pclath, cstack
 10905 ;; Tracked objects:
 10906 ;;		On entry : 0/0
 10907 ;;		On exit  : 0/0
 10908 ;;		Unchanged: 0/0
 10909 ;; Data sizes:     COMMON   BANK0   BANK1   BANK2   BANK3   BANK4   BANK5   BANK6
 10910 ;;      Params:         0       0       0       0       0       0       0       0
 10911 ;;      Locals:         0       0       0       0       0       0       0       0
 10912 ;;      Temps:          0       0       0       0       0       0       0       0
 10913 ;;      Totals:         0       0       0       0       0       0       0       0
 10914 ;;Total ram usage:        0 bytes
 10915 ;; Hardware stack levels used: 1
 10916 ;; Hardware stack levels required when called: 2
 10917 ;; This function calls:
 10918 ;;		NULL
 10919 ;;		_EUSART_DefaultErrorHandler
 10920 ;;		_EUSART_DefaultFramingErrorHandler
 10921 ;;		_EUSART_DefaultOverrunErrorHandler
 10922 ;;		_EUSART_RxDataHandler
 10923 ;; This function is called by:
 10924 ;;		_EUSART_Initialize
 10925 ;;		_INTERRUPT_InterruptManager
 10926 ;; This function uses a non-reentrant model
 10927 ;;
 10928                           
 10929     066A                     _EUSART_Receive_ISR:	
 10930                           ;psect for function _EUSART_Receive_ISR
 10931                           
 10932     066A                     i1l3599:	
 10933                           ;incstack = 0
 10934                           ; Regs used in _EUSART_Receive_ISR: [wreg+fsr1l+fsr1h+status,2+status,0+pclath+cstack]
 10935                           
 10936                           
 10937                           ;mcc_generated_files/eusart.c: 238:     eusartRxStatusBuffer[eusartRxHead].status = 0;
 10938     066A  087C               	movf	_eusartRxHead,w	;volatile
 10939     066B  3EA0               	addlw	(low (_eusartRxStatusBuffer| 0))& (0+255)
 10940     066C  0086               	movwf	6
 10941     066D  0187               	clrf	7
 10942     066E  0181               	clrf	1
 10943     066F                     i1l3601:
 10944                           
 10945                           ;mcc_generated_files/eusart.c: 241:     if(RCSTAbits.FERR){
 10946     066F  0023               	movlb	3	; select bank3
 10947     0670  1D1D               	btfss	29,2	;volatile
 10948     0671  2E73               	goto	u272_21
 10949     0672  2E74               	goto	u272_20
 10950     0673                     u272_21:
 10951     0673  2E7F               	goto	i1l3607
 10952     0674                     u272_20:
 10953     0674                     i1l3603:
 10954                           
 10955                           ;mcc_generated_files/eusart.c: 242:         eusartRxStatusBuffer[eusartRxHead].ferr = 1;
 10956     0674  087C               	movf	_eusartRxHead,w	;volatile
 10957     0675  3EA0               	addlw	(low (_eusartRxStatusBuffer| 0))& (0+255)
 10958     0676  0086               	movwf	6
 10959     0677  0187               	clrf	7
 10960     0678  1481               	bsf	1,1
 10961     0679                     i1l3605:
 10962                           
 10963                           ;mcc_generated_files/eusart.c: 243:         EUSART_FramingErrorHandler();
 10964     0679  0020               	movlb	0	; select bank0
 10965     067A  0829               	movf	_EUSART_FramingErrorHandler+1,w
 10966     067B  008A               	movwf	10
 10967     067C  0828               	movf	_EUSART_FramingErrorHandler,w
 10968     067D  000A               	callw
 10969     067E  3186               	pagesel	$
 10970     067F                     i1l3607:
 10971                           
 10972                           ;mcc_generated_files/eusart.c: 247:     if(RCSTAbits.OERR){
 10973     067F  0023               	movlb	3	; select bank3
 10974     0680  1C9D               	btfss	29,1	;volatile
 10975     0681  2E83               	goto	u273_21
 10976     0682  2E84               	goto	u273_20
 10977     0683                     u273_21:
 10978     0683  2E8F               	goto	i1l3613
 10979     0684                     u273_20:
 10980     0684                     i1l3609:
 10981                           
 10982                           ;mcc_generated_files/eusart.c: 248:         eusartRxStatusBuffer[eusartRxHead].oerr = 1;
 10983     0684  087C               	movf	_eusartRxHead,w	;volatile
 10984     0685  3EA0               	addlw	(low (_eusartRxStatusBuffer| 0))& (0+255)
 10985     0686  0086               	movwf	6
 10986     0687  0187               	clrf	7
 10987     0688  1501               	bsf	1,2
 10988     0689                     i1l3611:
 10989                           
 10990                           ;mcc_generated_files/eusart.c: 249:         EUSART_OverrunErrorHandler();
 10991     0689  0020               	movlb	0	; select bank0
 10992     068A  0827               	movf	_EUSART_OverrunErrorHandler+1,w
 10993     068B  008A               	movwf	10
 10994     068C  0826               	movf	_EUSART_OverrunErrorHandler,w
 10995     068D  000A               	callw
 10996     068E  3186               	pagesel	$
 10997     068F                     i1l3613:
 10998                           
 10999                           ;mcc_generated_files/eusart.c: 253:     if(eusartRxStatusBuffer[eusartRxHead].status){
 11000     068F  087C               	movf	_eusartRxHead,w	;volatile
 11001     0690  3EA0               	addlw	(low (_eusartRxStatusBuffer| 0))& (0+255)
 11002     0691  0086               	movwf	6
 11003     0692  0187               	clrf	7
 11004     0693  0801               	movf	1,w
 11005     0694  1903               	btfsc	3,2
 11006     0695  2E97               	goto	u274_21
 11007     0696  2E98               	goto	u274_20
 11008     0697                     u274_21:
 11009     0697  2E9F               	goto	i1l3617
 11010     0698                     u274_20:
 11011     0698                     i1l3615:
 11012                           
 11013                           ;mcc_generated_files/eusart.c: 254:         EUSART_ErrorHandler();
 11014     0698  0020               	movlb	0	; select bank0
 11015     0699  0825               	movf	_EUSART_ErrorHandler+1,w
 11016     069A  008A               	movwf	10
 11017     069B  0824               	movf	_EUSART_ErrorHandler,w
 11018     069C  000A               	callw
 11019     069D  3186               	pagesel	$
 11020                           
 11021                           ;mcc_generated_files/eusart.c: 255:     } else {
 11022     069E  2EA2               	goto	i1l459
 11023     069F                     i1l3617:
 11024                           
 11025                           ;mcc_generated_files/eusart.c: 257:         EUSART_RxDataHandler();
 11026     069F  318E  26D3  3186   	fcall	_EUSART_RxDataHandler
 11027     06A2                     i1l459:
 11028     06A2  0008               	return
 11029     06A3                     __end_of_EUSART_Receive_ISR:
 11030                           
 11031                           	psect	text75
 11032     0D9B                     __ptext75:	
 11033 ;; *************** function _EUSART_DefaultOverrunErrorHandler *****************
 11034 ;; Defined at:
 11035 ;;		line 280 in file "mcc_generated_files/eusart.c"
 11036 ;; Parameters:    Size  Location     Type
 11037 ;;		None
 11038 ;; Auto vars:     Size  Location     Type
 11039 ;;		None
 11040 ;; Return value:  Size  Location     Type
 11041 ;;                  1    wreg      void 
 11042 ;; Registers used:
 11043 ;;		None
 11044 ;; Tracked objects:
 11045 ;;		On entry : 0/0
 11046 ;;		On exit  : 0/0
 11047 ;;		Unchanged: 0/0
 11048 ;; Data sizes:     COMMON   BANK0   BANK1   BANK2   BANK3   BANK4   BANK5   BANK6
 11049 ;;      Params:         0       0       0       0       0       0       0       0
 11050 ;;      Locals:         0       0       0       0       0       0       0       0
 11051 ;;      Temps:          0       0       0       0       0       0       0       0
 11052 ;;      Totals:         0       0       0       0       0       0       0       0
 11053 ;;Total ram usage:        0 bytes
 11054 ;; Hardware stack levels used: 1
 11055 ;; This function calls:
 11056 ;;		Nothing
 11057 ;; This function is called by:
 11058 ;;		_EUSART_Initialize
 11059 ;;		_EUSART_Receive_ISR
 11060 ;; This function uses a non-reentrant model
 11061 ;;
 11062                           
 11063     0D9B                     _EUSART_DefaultOverrunErrorHandler:	
 11064                           ;psect for function _EUSART_DefaultOverrunErrorHandler
 11065                           
 11066     0D9B                     i1l3355:	
 11067                           ;incstack = 0
 11068                           ; Regs used in _EUSART_DefaultOverrunErrorHandler: []
 11069                           
 11070                           
 11071                           ;mcc_generated_files/eusart.c: 283:     RCSTAbits.CREN = 0;
 11072     0D9B  0023               	movlb	3	; select bank3
 11073     0D9C  121D               	bcf	29,4	;volatile
 11074                           
 11075                           ;mcc_generated_files/eusart.c: 284:     RCSTAbits.CREN = 1;
 11076     0D9D  161D               	bsf	29,4	;volatile
 11077     0D9E                     i1l469:
 11078     0D9E  0008               	return
 11079     0D9F                     __end_of_EUSART_DefaultOverrunErrorHandler:
 11080                           
 11081                           	psect	text76
 11082     0D86                     __ptext76:	
 11083 ;; *************** function _EUSART_DefaultFramingErrorHandler *****************
 11084 ;; Defined at:
 11085 ;;		line 278 in file "mcc_generated_files/eusart.c"
 11086 ;; Parameters:    Size  Location     Type
 11087 ;;		None
 11088 ;; Auto vars:     Size  Location     Type
 11089 ;;		None
 11090 ;; Return value:  Size  Location     Type
 11091 ;;                  1    wreg      void 
 11092 ;; Registers used:
 11093 ;;		None
 11094 ;; Tracked objects:
 11095 ;;		On entry : 0/0
 11096 ;;		On exit  : 0/0
 11097 ;;		Unchanged: 0/0
 11098 ;; Data sizes:     COMMON   BANK0   BANK1   BANK2   BANK3   BANK4   BANK5   BANK6
 11099 ;;      Params:         0       0       0       0       0       0       0       0
 11100 ;;      Locals:         0       0       0       0       0       0       0       0
 11101 ;;      Temps:          0       0       0       0       0       0       0       0
 11102 ;;      Totals:         0       0       0       0       0       0       0       0
 11103 ;;Total ram usage:        0 bytes
 11104 ;; Hardware stack levels used: 1
 11105 ;; This function calls:
 11106 ;;		Nothing
 11107 ;; This function is called by:
 11108 ;;		_EUSART_Initialize
 11109 ;;		_EUSART_Receive_ISR
 11110 ;; This function uses a non-reentrant model
 11111 ;;
 11112                           
 11113     0D86                     _EUSART_DefaultFramingErrorHandler:	
 11114                           ;psect for function _EUSART_DefaultFramingErrorHandler
 11115                           
 11116     0D86                     i1l466:	
 11117                           ;incstack = 0
 11118                           ; Regs used in _EUSART_DefaultFramingErrorHandler: []
 11119                           
 11120     0D86  0008               	return
 11121     0D87                     __end_of_EUSART_DefaultFramingErrorHandler:
 11122                           
 11123                           	psect	text77
 11124     0D97                     __ptext77:	
 11125 ;; *************** function _EUSART_DefaultErrorHandler *****************
 11126 ;; Defined at:
 11127 ;;		line 288 in file "mcc_generated_files/eusart.c"
 11128 ;; Parameters:    Size  Location     Type
 11129 ;;		None
 11130 ;; Auto vars:     Size  Location     Type
 11131 ;;		None
 11132 ;; Return value:  Size  Location     Type
 11133 ;;                  1    wreg      void 
 11134 ;; Registers used:
 11135 ;;		wreg, fsr1l, fsr1h, status,2, status,0, pclath, cstack
 11136 ;; Tracked objects:
 11137 ;;		On entry : 0/0
 11138 ;;		On exit  : 0/0
 11139 ;;		Unchanged: 0/0
 11140 ;; Data sizes:     COMMON   BANK0   BANK1   BANK2   BANK3   BANK4   BANK5   BANK6
 11141 ;;      Params:         0       0       0       0       0       0       0       0
 11142 ;;      Locals:         0       0       0       0       0       0       0       0
 11143 ;;      Temps:          0       0       0       0       0       0       0       0
 11144 ;;      Totals:         0       0       0       0       0       0       0       0
 11145 ;;Total ram usage:        0 bytes
 11146 ;; Hardware stack levels used: 1
 11147 ;; Hardware stack levels required when called: 1
 11148 ;; This function calls:
 11149 ;;		_EUSART_RxDataHandler
 11150 ;; This function is called by:
 11151 ;;		_EUSART_Initialize
 11152 ;;		_EUSART_Receive_ISR
 11153 ;; This function uses a non-reentrant model
 11154 ;;
 11155                           
 11156     0D97                     _EUSART_DefaultErrorHandler:	
 11157                           ;psect for function _EUSART_DefaultErrorHandler
 11158                           
 11159     0D97                     i1l3357:	
 11160                           ;incstack = 0
 11161                           ; Regs used in _EUSART_DefaultErrorHandler: [wreg+fsr1l+fsr1h+status,2+status,0+pclath+c
      +                          stack]
 11162                           
 11163                           
 11164                           ;mcc_generated_files/eusart.c: 289:     EUSART_RxDataHandler();
 11165     0D97  318E  26D3  318D   	fcall	_EUSART_RxDataHandler
 11166     0D9A                     i1l472:
 11167     0D9A  0008               	return
 11168     0D9B                     __end_of_EUSART_DefaultErrorHandler:
 11169                           
 11170                           	psect	text78
 11171     0ED3                     __ptext78:	
 11172 ;; *************** function _EUSART_RxDataHandler *****************
 11173 ;; Defined at:
 11174 ;;		line 264 in file "mcc_generated_files/eusart.c"
 11175 ;; Parameters:    Size  Location     Type
 11176 ;;		None
 11177 ;; Auto vars:     Size  Location     Type
 11178 ;;		None
 11179 ;; Return value:  Size  Location     Type
 11180 ;;                  1    wreg      void 
 11181 ;; Registers used:
 11182 ;;		wreg, fsr1l, fsr1h, status,2, status,0
 11183 ;; Tracked objects:
 11184 ;;		On entry : 0/0
 11185 ;;		On exit  : 0/0
 11186 ;;		Unchanged: 0/0
 11187 ;; Data sizes:     COMMON   BANK0   BANK1   BANK2   BANK3   BANK4   BANK5   BANK6
 11188 ;;      Params:         0       0       0       0       0       0       0       0
 11189 ;;      Locals:         0       0       0       0       0       0       0       0
 11190 ;;      Temps:          1       0       0       0       0       0       0       0
 11191 ;;      Totals:         1       0       0       0       0       0       0       0
 11192 ;;Total ram usage:        1 bytes
 11193 ;; Hardware stack levels used: 1
 11194 ;; This function calls:
 11195 ;;		Nothing
 11196 ;; This function is called by:
 11197 ;;		_EUSART_Receive_ISR
 11198 ;;		_EUSART_DefaultErrorHandler
 11199 ;; This function uses a non-reentrant model
 11200 ;;
 11201                           
 11202     0ED3                     _EUSART_RxDataHandler:	
 11203                           ;psect for function _EUSART_RxDataHandler
 11204                           
 11205     0ED3                     i1l3097:	
 11206                           ;incstack = 0
 11207                           ; Regs used in _EUSART_RxDataHandler: [wreg+fsr1l+fsr1h+status,2+status,0]
 11208                           
 11209                           
 11210                           ;mcc_generated_files/eusart.c: 268:     eusartRxBuffer[eusartRxHead++] = RCREG;
 11211     0ED3  087C               	movf	_eusartRxHead,w
 11212     0ED4  3EA8               	addlw	(low (_eusartRxBuffer| 0))& (0+255)
 11213     0ED5  0086               	movwf	6
 11214     0ED6  0187               	clrf	7
 11215     0ED7  0023               	movlb	3	; select bank3
 11216     0ED8  0819               	movf	25,w	;volatile
 11217     0ED9  0081               	movwf	1
 11218     0EDA                     i1l3099:
 11219     0EDA  3001               	movlw	1
 11220     0EDB  00F0               	movwf	??_EUSART_RxDataHandler
 11221     0EDC  0870               	movf	??_EUSART_RxDataHandler,w
 11222     0EDD  07FC               	addwf	_eusartRxHead,f	;volatile
 11223     0EDE                     i1l3101:
 11224                           
 11225                           ;mcc_generated_files/eusart.c: 270:     if(sizeof(eusartRxBuffer) <= eusartRxHead)
 11226     0EDE  3008               	movlw	8
 11227     0EDF  027C               	subwf	_eusartRxHead,w	;volatile
 11228     0EE0  1C03               	skipc
 11229     0EE1  2EE3               	goto	u207_21
 11230     0EE2  2EE4               	goto	u207_20
 11231     0EE3                     u207_21:
 11232     0EE3  2EE5               	goto	i1l3105
 11233     0EE4                     u207_20:
 11234     0EE4                     i1l3103:
 11235                           
 11236                           ;mcc_generated_files/eusart.c: 271:     {;mcc_generated_files/eusart.c: 272:         eus
      +                          artRxHead = 0;
 11237     0EE4  01FC               	clrf	_eusartRxHead	;volatile
 11238     0EE5                     i1l3105:
 11239                           
 11240                           ;mcc_generated_files/eusart.c: 275:     eusartRxCount++;
 11241     0EE5  3001               	movlw	1
 11242     0EE6  00F0               	movwf	??_EUSART_RxDataHandler
 11243     0EE7  0870               	movf	??_EUSART_RxDataHandler,w
 11244     0EE8  0020               	movlb	0	; select bank0
 11245     0EE9  07BE               	addwf	_eusartRxCount,f	;volatile
 11246     0EEA                     i1l463:
 11247     0EEA  0008               	return
 11248     0EEB                     __end_of_EUSART_RxDataHandler:
 11249     007E                     btemp	set	126	;btemp
 11250     007E                     int$flags	set	126
 11251     007E                     wtemp0	set	126
 11252                           
 11253                           	psect	config
 11254                           
 11255                           ;Config register CONFIG1 @ 0x8007
 11256                           ;	Oscillator Selection
 11257                           ;	FOSC = INTOSC, INTOSC oscillator: I/O function on CLKIN pin
 11258                           ;	Watchdog Timer Enable
 11259                           ;	WDTE = OFF, WDT disabled
 11260                           ;	Power-up Timer Enable
 11261                           ;	PWRTE = OFF, PWRT disabled
 11262                           ;	MCLR Pin Function Select
 11263                           ;	MCLRE = ON, MCLR/VPP pin function is MCLR
 11264                           ;	Flash Program Memory Code Protection
 11265                           ;	CP = OFF, Program memory code protection is disabled
 11266                           ;	Data Memory Code Protection
 11267                           ;	CPD = OFF, Data memory code protection is disabled
 11268                           ;	Brown-out Reset Enable
 11269                           ;	BOREN = ON, Brown-out Reset enabled
 11270                           ;	Clock Out Enable
 11271                           ;	CLKOUTEN = OFF, CLKOUT function is disabled. I/O or oscillator function on the CLKOUT 
      +                          pin
 11272                           ;	Internal/External Switchover
 11273                           ;	IESO = ON, Internal/External Switchover mode is enabled
 11274                           ;	Fail-Safe Clock Monitor Enable
 11275                           ;	FCMEN = ON, Fail-Safe Clock Monitor is enabled
 11276     8007                     	org	32775
 11277     8007  3FE4               	dw	16356
 11278                           
 11279                           ;Config register CONFIG2 @ 0x8008
 11280                           ;	Flash Memory Self-Write Protection
 11281                           ;	WRT = OFF, Write protection off
 11282                           ;	Voltage Regulator Capacitor Enable
 11283                           ;	VCAPEN = OFF, All VCAP pin functionality is disabled
 11284                           ;	PLL Enable
 11285                           ;	PLLEN = ON, 4x PLL enabled
 11286                           ;	Stack Overflow/Underflow Reset Enable
 11287                           ;	STVREN = ON, Stack Overflow or Underflow will cause a Reset
 11288                           ;	Brown-out Reset Voltage Selection
 11289                           ;	BORV = LO, Brown-out Reset Voltage (Vbor), low trip point selected.
 11290                           ;	Low-Voltage Programming Enable
 11291                           ;	LVP = OFF, High-voltage on MCLR/VPP must be used for programming
 11292     8008                     	org	32776
 11293     8008  1FFF               	dw	8191

Data Sizes:
    Strings     0
    Constant    4
    Data        1
    BSS         94
    Persistent  32
    Stack       0

Auto Spaces:
    Space          Size  Autos    Used
    COMMON           14     12      13
    BANK0            80     18      80
    BANK1            80      0      32
    BANK2            80      0       0
    BANK3            80      0       0
    BANK4            80      0       0
    BANK5            80      0       0
    BANK6            16      0       0

Pointer List with Targets:

    EUSART_ErrorHandler	PTR FTN()void  size(2) Largest target is 1
		 -> EUSART_DefaultErrorHandler(), NULL(), 

    EUSART_FramingErrorHandler	PTR FTN()void  size(2) Largest target is 1
		 -> EUSART_DefaultFramingErrorHandler(), NULL(), 

    EUSART_OverrunErrorHandler	PTR FTN()void  size(2) Largest target is 1
		 -> EUSART_DefaultOverrunErrorHandler(), NULL(), 

    EUSART_RxDefaultInterruptHandler	PTR FTN()void  size(2) Largest target is 1
		 -> EUSART_Receive_ISR(), NULL(), 

    EUSART_SetErrorHandler@interruptHandler	PTR FTN()void  size(2) Largest target is 1
		 -> EUSART_DefaultErrorHandler(), 

    EUSART_SetFramingErrorHandler@interruptHandler	PTR FTN()void  size(2) Largest target is 1
		 -> EUSART_DefaultFramingErrorHandler(), 

    EUSART_SetOverrunErrorHandler@interruptHandler	PTR FTN()void  size(2) Largest target is 1
		 -> EUSART_DefaultOverrunErrorHandler(), 

    EUSART_SetRxInterruptHandler@interruptHandler	PTR FTN()void  size(2) Largest target is 1
		 -> EUSART_Receive_ISR(), 

    EUSART_SetTxInterruptHandler@interruptHandler	PTR FTN()void  size(2) Largest target is 1
		 -> EUSART_Transmit_ISR(), 

    EUSART_TxDefaultInterruptHandler	PTR FTN()void  size(2) Largest target is 1
		 -> EUSART_Transmit_ISR(), NULL(), 

    LIN_getChecksum@data	PTR unsigned char  size(1) Largest target is 13
		 -> LIN_packet(BANK0[13]), 

    LIN_getFromTable@rxCommand	PTR const struct . size(2) Largest target is 5
		 -> scheduleTable(CODE[4]), NULL(NULL[0]), 

    LIN_getFromTable@rxCommand$data	PTR unsigned char  size(1) Largest target is 8
		 -> SW_STATE_Data(BANK1[8]), 

    LIN_getPacket@data	PTR unsigned char  size(1) Largest target is 8
		 -> processLIN@tempRxData(BANK0[8]), 

    LIN_init@command	const PTR const struct . size(2) Largest target is 5
		 -> scheduleTable(CODE[4]), 

    LIN_init@processData	PTR FTN()void  size(2) Largest target is 1
		 -> processLIN(), 

    LIN_processData	PTR FTN()void  size(2) Largest target is 1
		 -> processLIN(), NULL(), 

    LIN_queuePacket@tempSchedule	PTR const struct . size(2) Largest target is 5
		 -> scheduleTable(CODE[4]), NULL(NULL[0]), 

    LIN_queuePacket@tempSchedule$data	PTR unsigned char  size(1) Largest target is 8
		 -> SW_STATE_Data(BANK1[8]), 

    LIN_rxCommand	PTR const struct . size(2) Largest target is 5
		 -> scheduleTable(CODE[4]), NULL(NULL[0]), 

    LIN_rxCommand$data	PTR unsigned char  size(1) Largest target is 8
		 -> SW_STATE_Data(BANK1[8]), 

    LIN_sendPacket@data	PTR unsigned char  size(1) Largest target is 13
		 -> LIN_packet(BANK0[13]), 

    memcpy@d	PTR unsigned char  size(1) Largest target is 13
		 -> LIN_packet(BANK0[13]), processLIN@tempRxData(BANK0[8]), 

    memcpy@d1	PTR void  size(1) Largest target is 13
		 -> LIN_packet(BANK0[13]), processLIN@tempRxData(BANK0[8]), 

    memcpy@s	PTR const unsigned char  size(1) Largest target is 13
		 -> LIN_packet(BANK0[13]), LIN_packet$data(BANK0[8]), SW_STATE_Data(BANK1[8]), 

    memcpy@s1	PTR const void  size(1) Largest target is 13
		 -> LIN_packet(BANK0[13]), LIN_packet$data(BANK0[8]), SW_STATE_Data(BANK1[8]), 

    memset@dest	PTR void  size(1) Largest target is 13
		 -> LIN_packet(BANK0[13]), 

    memset@p	PTR unsigned char  size(1) Largest target is 13
		 -> LIN_packet(BANK0[13]), 

    S26$data	PTR unsigned char  size(1) Largest target is 8
		 -> SW_STATE_Data(BANK1[8]), 

    scheduleTable$data	PTR unsigned char  size(1) Largest target is 8
		 -> SW_STATE_Data(BANK1[8]), 

    sp__memcpy	PTR void  size(1) Largest target is 13
		 -> LIN_packet(BANK0[13]), processLIN@tempRxData(BANK0[8]), 

    sp__memset	PTR void  size(1) Largest target is 13
		 -> LIN_packet(BANK0[13]), 

    TMR0_InterruptHandler	PTR FTN()void  size(2) Largest target is 1
		 -> LIN_timerHandler(), TMR0_DefaultInterruptHandler(), NULL(), 

    TMR0_SetInterruptHandler@InterruptHandler	PTR FTN()void  size(2) Largest target is 1
		 -> LIN_timerHandler(), TMR0_DefaultInterruptHandler(), 


Critical Paths under _main in COMMON

    _testmode->_LED_ON
    _Streamer_SEG2_TEST->_LED_SET
    _Streamer_SEG1_TEST->_LED_SET
    _TMR0_Initialize->_TMR0_SetInterruptHandler
    _LIN_Slave_Initialize->_LIN_init
    _LIN_setTimerHandler->_TMR0_SetInterruptHandler
    _EUSART_Initialize->_EUSART_SetErrorHandler
    _EUSART_Initialize->_EUSART_SetFramingErrorHandler
    _EUSART_Initialize->_EUSART_SetOverrunErrorHandler
    _EUSART_Initialize->_EUSART_SetRxInterruptHandler
    _EUSART_Initialize->_EUSART_SetTxInterruptHandler
    _RIGHT_ON2->_LED_ON
    _RIGHT_ON->_TrunLight
    _LIN_getPacket->_memcpy
    _LEFT_ON2->_LED_ON
    _LED_ON->_LED_SET
    _LEFT_ON->_TrunLight
    _TrunLight->_LED_SET
    _LED_OFF->_LED_SET
    _LED_SET->_PWM_SendData
    _Delay_ms->_Timer
    _LIN_queuePacket->_LIN_sendPacket
    _LIN_sendPacket->_LIN_getChecksum
    _LIN_checkPID->_LIN_getFromTable
    _LIN_breakCheck->_EUSART_Read

Critical Paths under _INTERRUPT_InterruptManager in COMMON

    _INTERRUPT_InterruptManager->_EUSART_Transmit_ISR
    _TMR0_ISR->_LIN_timerHandler
    _EUSART_Receive_ISR->_EUSART_RxDataHandler
    _EUSART_DefaultErrorHandler->_EUSART_RxDataHandler

Critical Paths under _main in BANK0

    _main->_LIN_handler
    _testmode->_Streamer_SEG1_TEST
    _testmode->_Streamer_SEG2_TEST
    _LIN_handler->_processLIN
    _RIGHT_ON->_TrunLight
    _LEFT_ON->_TrunLight
    _LIN_queuePacket->_LIN_sendPacket

Critical Paths under _INTERRUPT_InterruptManager in BANK0

    None.

Critical Paths under _main in BANK1

    None.

Critical Paths under _INTERRUPT_InterruptManager in BANK1

    None.

Critical Paths under _main in BANK2

    None.

Critical Paths under _INTERRUPT_InterruptManager in BANK2

    None.

Critical Paths under _main in BANK3

    None.

Critical Paths under _INTERRUPT_InterruptManager in BANK3

    None.

Critical Paths under _main in BANK4

    None.

Critical Paths under _INTERRUPT_InterruptManager in BANK4

    None.

Critical Paths under _main in BANK5

    None.

Critical Paths under _INTERRUPT_InterruptManager in BANK5

    None.

Critical Paths under _main in BANK6

    None.

Critical Paths under _INTERRUPT_InterruptManager in BANK6

    None.

Call Graph Tables:

 ---------------------------------------------------------------------------------
 (Depth) Function   	        Calls       Base Space   Used Autos Params    Refs
 ---------------------------------------------------------------------------------
 (0) _main                                                 2     2      0   54572
                                             16 BANK0      2     2      0
                    _AutoBaud_Detect
                           _Delay_ms
                        _LIN_handler
                  _SYSTEM_Initialize
                              _Timer
                           _testmode
 ---------------------------------------------------------------------------------
 (1) _testmode                                             0     0      0   16356
                           _Delay_ms
                            _LED_OFF
                             _LED_ON
                 _Streamer_SEG1_TEST
                 _Streamer_SEG2_TEST
                     _Timer_TESTMODE
 ---------------------------------------------------------------------------------
 (2) _Timer_TESTMODE                                       1     1      0       0
                                              1 COMMON     1     1      0
 ---------------------------------------------------------------------------------
 (2) _Streamer_SEG2_TEST                                   5     5      0    4687
                                             10 COMMON     1     1      0
                                              0 BANK0      4     4      0
                           _Delay_ms
                            _LED_SET
 ---------------------------------------------------------------------------------
 (2) _Streamer_SEG1_TEST                                   5     5      0    4665
                                             10 COMMON     1     1      0
                                              0 BANK0      4     4      0
                           _Delay_ms
                            _LED_SET
 ---------------------------------------------------------------------------------
 (1) _SYSTEM_Initialize                                    0     0      0    1085
                  _EUSART_Initialize
               _LIN_Slave_Initialize
              _OSCILLATOR_Initialize
             _PIN_MANAGER_Initialize
                    _PWM5_Initialize
                    _TMR0_Initialize
                    _TMR2_Initialize
                    _TMR6_Initialize
                     _WDT_Initialize
 ---------------------------------------------------------------------------------
 (2) _WDT_Initialize                                       0     0      0       0
 ---------------------------------------------------------------------------------
 (2) _TMR6_Initialize                                      0     0      0       0
 ---------------------------------------------------------------------------------
 (2) _TMR2_Initialize                                      0     0      0       0
 ---------------------------------------------------------------------------------
 (2) _TMR0_Initialize                                      0     0      0     203
                     _TMR0_ReadTimer
           _TMR0_SetInterruptHandler
                    _TMR0_WriteTimer
 ---------------------------------------------------------------------------------
 (3) _TMR0_WriteTimer                                      1     1      0      22
                                              1 COMMON     1     1      0
 ---------------------------------------------------------------------------------
 (3) _TMR0_ReadTimer                                       1     1      0       7
 ---------------------------------------------------------------------------------
 (2) _PWM5_Initialize                                      0     0      0       0
 ---------------------------------------------------------------------------------
 (2) _PIN_MANAGER_Initialize                               0     0      0       0
 ---------------------------------------------------------------------------------
 (2) _OSCILLATOR_Initialize                                0     0      0       0
 ---------------------------------------------------------------------------------
 (2) _LIN_Slave_Initialize                                 0     0      0     392
                           _LIN_init
 ---------------------------------------------------------------------------------
 (3) _LIN_init                                             5     1      4     392
                                              3 COMMON     5     1      4
                       _LIN_enableRx
                _LIN_setTimerHandler
                      _LIN_stopTimer
 ---------------------------------------------------------------------------------
 (4) _LIN_setTimerHandler                                  0     0      0     174
           _TMR0_SetInterruptHandler
 ---------------------------------------------------------------------------------
 (3) _TMR0_SetInterruptHandler                             2     0      2     174
                                              1 COMMON     2     0      2
 ---------------------------------------------------------------------------------
 (2) _EUSART_Initialize                                    0     0      0     490
             _EUSART_SetErrorHandler
      _EUSART_SetFramingErrorHandler
      _EUSART_SetOverrunErrorHandler
       _EUSART_SetRxInterruptHandler
       _EUSART_SetTxInterruptHandler
 ---------------------------------------------------------------------------------
 (3) _EUSART_SetTxInterruptHandler                         2     0      2      98
                                              1 COMMON     2     0      2
 ---------------------------------------------------------------------------------
 (3) _EUSART_SetRxInterruptHandler                         2     0      2      98
                                              1 COMMON     2     0      2
 ---------------------------------------------------------------------------------
 (3) _EUSART_SetOverrunErrorHandler                        2     0      2      98
                                              1 COMMON     2     0      2
 ---------------------------------------------------------------------------------
 (3) _EUSART_SetFramingErrorHandler                        2     0      2      98
                                              1 COMMON     2     0      2
 ---------------------------------------------------------------------------------
 (3) _EUSART_SetErrorHandler                               2     0      2      98
                                              1 COMMON     2     0      2
 ---------------------------------------------------------------------------------
 (1) _LIN_handler                                          2     2      0   34994
                                             14 BANK0      2     2      0
                                NULL *
                        _EUSART_Read
                 _EUSART_is_rx_ready
                     _LIN_breakCheck
                       _LIN_checkPID
                      _LIN_disableRx
                       _LIN_enableRx
                    _LIN_getChecksum
                   _LIN_getFromTable
                    _LIN_queuePacket
                     _LIN_startTimer
                      _LIN_stopTimer
                             _memset
                         _processLIN *
 ---------------------------------------------------------------------------------
 (2) _processLIN                                           9     9      0   30317
                                              5 BANK0      9     9      0
                            _DRL_OFF
                             _DRL_ON
                         _HIBEAM_OFF
                          _HIBEAM_ON
                           _LEFT_OFF
                            _LEFT_ON
                           _LEFT_ON2
                      _LIN_getPacket
                         _LOBEAM_OFF
                          _LOBEAM_ON
                            _POS_OFF
                             _POS_ON
                          _RIGHT_OFF
                           _RIGHT_ON
                          _RIGHT_ON2
 ---------------------------------------------------------------------------------
 (3) _RIGHT_ON2                                            0     0      0    2476
                             _LED_ON
 ---------------------------------------------------------------------------------
 (3) _RIGHT_ON                                             0     0      0    7430
                          _TrunLight
 ---------------------------------------------------------------------------------
 (3) _RIGHT_OFF                                            0     0      0    4528
                           _Delay_ms
                            _LED_OFF
 ---------------------------------------------------------------------------------
 (3) _POS_ON                                               0     0      0       0
 ---------------------------------------------------------------------------------
 (3) _POS_OFF                                              0     0      0       0
 ---------------------------------------------------------------------------------
 (3) _LOBEAM_ON                                            0     0      0       0
 ---------------------------------------------------------------------------------
 (3) _LOBEAM_OFF                                           0     0      0       0
 ---------------------------------------------------------------------------------
 (3) _LIN_getPacket                                        2     2      0    1057
                                              9 COMMON     2     2      0
                             _memcpy
                             _memset
 ---------------------------------------------------------------------------------
 (4) _memset                                               7     3      4     466
                                              1 COMMON     7     3      4
 ---------------------------------------------------------------------------------
 (3) _LEFT_ON2                                             0     0      0    2476
                             _LED_ON
 ---------------------------------------------------------------------------------
 (2) _LED_ON                                               2     2      0    2476
                                             10 COMMON     2     2      0
                            _LED_SET
 ---------------------------------------------------------------------------------
 (3) _LEFT_ON                                              0     0      0    7430
                          _TrunLight
 ---------------------------------------------------------------------------------
 (4) _TrunLight                                            6     6      0    7430
                                             10 COMMON     1     1      0
                                              0 BANK0      5     5      0
                           _Delay_ms
                            _LED_OFF
                            _LED_SET
 ---------------------------------------------------------------------------------
 (3) _LEFT_OFF                                             0     0      0    4528
                           _Delay_ms
                            _LED_OFF
 ---------------------------------------------------------------------------------
 (2) _LED_OFF                                              0     0      0    2431
                            _LED_SET
 ---------------------------------------------------------------------------------
 (3) _LED_SET                                              6     5      1    2431
                                              4 COMMON     6     5      1
                       _PWM_SendData
 ---------------------------------------------------------------------------------
 (4) _PWM_SendData                                         3     3      0     113
                                              1 COMMON     3     3      0
 ---------------------------------------------------------------------------------
 (3) _Delay_ms                                             4     2      2    2097
                                              2 COMMON     4     2      2
                              _Timer
 ---------------------------------------------------------------------------------
 (4) _Timer                                                1     1      0       0
                                              1 COMMON     1     1      0
 ---------------------------------------------------------------------------------
 (3) _HIBEAM_ON                                            0     0      0       0
 ---------------------------------------------------------------------------------
 (3) _HIBEAM_OFF                                           0     0      0       0
 ---------------------------------------------------------------------------------
 (3) _DRL_ON                                               0     0      0       0
 ---------------------------------------------------------------------------------
 (3) _DRL_OFF                                              0     0      0       0
 ---------------------------------------------------------------------------------
 (4) _LIN_stopTimer                                        0     0      0       0
 ---------------------------------------------------------------------------------
 (2) _LIN_startTimer                                       1     1      0      22
                                              1 COMMON     1     1      0
                        _TMR0_Reload
 ---------------------------------------------------------------------------------
 (3) _TMR0_Reload                                          0     0      0       0
 ---------------------------------------------------------------------------------
 (2) _LIN_queuePacket                                      8     8      0    2280
                                              2 BANK0      8     8      0
                    _LIN_getChecksum
                     _LIN_sendPacket
                             _memcpy
 ---------------------------------------------------------------------------------
 (4) _memcpy                                               8     5      3     513
                                              1 COMMON     8     5      3
 ---------------------------------------------------------------------------------
 (3) _LIN_sendPacket                                       5     3      2     991
                                              9 COMMON     3     1      2
                                              0 BANK0      2     2      0
                       _EUSART_Write
                    _LIN_getChecksum
 ---------------------------------------------------------------------------------
 (4) _LIN_getChecksum                                      8     6      2     639
                                              1 COMMON     8     6      2
 ---------------------------------------------------------------------------------
 (4) _EUSART_Write                                         2     2      0      44
                                              1 COMMON     2     2      0
 ---------------------------------------------------------------------------------
 (4) _LIN_enableRx                                         0     0      0       0
 ---------------------------------------------------------------------------------
 (2) _LIN_disableRx                                        0     0      0       0
 ---------------------------------------------------------------------------------
 (2) _LIN_checkPID                                         1     1      0     813
                                              8 COMMON     1     1      0
                     _LIN_calcParity
                   _LIN_getFromTable
 ---------------------------------------------------------------------------------
 (2) _LIN_getFromTable                                     7     6      1     409
                                              1 COMMON     7     6      1
 ---------------------------------------------------------------------------------
 (3) _LIN_calcParity                                       3     3      0     338
                                              1 COMMON     3     3      0
 ---------------------------------------------------------------------------------
 (2) _LIN_breakCheck                                       0     0      0      24
                        _EUSART_Read
             _EUSART_get_last_status
 ---------------------------------------------------------------------------------
 (3) _EUSART_get_last_status                               0     0      0       0
 ---------------------------------------------------------------------------------
 (3) _EUSART_Read                                          2     2      0      24
                                              1 COMMON     2     2      0
 ---------------------------------------------------------------------------------
 (2) _EUSART_is_rx_ready                                   0     0      0       0
 ---------------------------------------------------------------------------------
 (10) NULL(Fake)                                           0     0      0       0
 ---------------------------------------------------------------------------------
 (1) _AutoBaud_Detect                                      0     0      0       0
                 _AutoBaud_Detect_ON
 ---------------------------------------------------------------------------------
 (2) _AutoBaud_Detect_ON                                   0     0      0       0
 ---------------------------------------------------------------------------------
 Estimated maximum stack depth 10
 ---------------------------------------------------------------------------------
 (Depth) Function   	        Calls       Base Space   Used Autos Params    Refs
 ---------------------------------------------------------------------------------
 (8) _INTERRUPT_InterruptManager                           0     0      0       0
                                NULL *
                 _EUSART_Receive_ISR *
                _EUSART_Transmit_ISR *
                           _TMR0_ISR
 ---------------------------------------------------------------------------------
 (9) _TMR0_ISR                                             0     0      0       0
                                NULL *
                   _LIN_timerHandler *
       _TMR0_DefaultInterruptHandler *
 ---------------------------------------------------------------------------------
 (10) _TMR0_DefaultInterruptHandler                        0     0      0       0
 ---------------------------------------------------------------------------------
 (10) _LIN_timerHandler                                    1     1      0       0
                                              0 COMMON     1     1      0
 ---------------------------------------------------------------------------------
 (9) _EUSART_Transmit_ISR                                  1     1      0       0
                                              0 COMMON     1     1      0
 ---------------------------------------------------------------------------------
 (9) _EUSART_Receive_ISR                                   0     0      0       0
                                NULL *
         _EUSART_DefaultErrorHandler *
  _EUSART_DefaultFramingErrorHandler *
  _EUSART_DefaultOverrunErrorHandler *
               _EUSART_RxDataHandler
 ---------------------------------------------------------------------------------
 (10) _EUSART_DefaultOverrunErrorHandler                   0     0      0       0
 ---------------------------------------------------------------------------------
 (10) _EUSART_DefaultFramingErrorHandler                   0     0      0       0
 ---------------------------------------------------------------------------------
 (10) _EUSART_DefaultErrorHandler                          0     0      0       0
               _EUSART_RxDataHandler
 ---------------------------------------------------------------------------------
 (10) _EUSART_RxDataHandler                                1     1      0       0
                                              0 COMMON     1     1      0
 ---------------------------------------------------------------------------------
 (10) NULL(Fake)                                           0     0      0       0
 ---------------------------------------------------------------------------------
 Estimated maximum stack depth 10
 ---------------------------------------------------------------------------------

 Call Graph Graphs:

 _main (ROOT)
   _AutoBaud_Detect
     _AutoBaud_Detect_ON
   _Delay_ms
     _Timer
   _LIN_handler
     NULL(Fake) *
     _EUSART_Read *
     _EUSART_is_rx_ready *
     _LIN_breakCheck *
       _EUSART_Read
       _EUSART_get_last_status
     _LIN_checkPID *
       _LIN_calcParity
       _LIN_getFromTable
     _LIN_disableRx *
     _LIN_enableRx *
     _LIN_getChecksum *
     _LIN_getFromTable *
     _LIN_queuePacket *
       _LIN_getChecksum
       _LIN_sendPacket
         _EUSART_Write
         _LIN_getChecksum
       _memcpy
     _LIN_startTimer *
       _TMR0_Reload
     _LIN_stopTimer *
     _memset *
     _processLIN *
       _DRL_OFF
       _DRL_ON
       _HIBEAM_OFF
       _HIBEAM_ON
       _LEFT_OFF
         _Delay_ms
         _LED_OFF
           _LED_SET
             _PWM_SendData
       _LEFT_ON
         _TrunLight
           _Delay_ms
           _LED_OFF
           _LED_SET
       _LEFT_ON2
         _LED_ON
           _LED_SET
       _LIN_getPacket
         _memcpy
         _memset
       _LOBEAM_OFF
       _LOBEAM_ON
       _POS_OFF
       _POS_ON
       _RIGHT_OFF
         _Delay_ms
         _LED_OFF
       _RIGHT_ON
         _TrunLight
       _RIGHT_ON2
         _LED_ON
   _SYSTEM_Initialize
     _EUSART_Initialize
       _EUSART_SetErrorHandler
       _EUSART_SetFramingErrorHandler
       _EUSART_SetOverrunErrorHandler
       _EUSART_SetRxInterruptHandler
       _EUSART_SetTxInterruptHandler
     _LIN_Slave_Initialize
       _LIN_init
         _LIN_enableRx
         _LIN_setTimerHandler
           _TMR0_SetInterruptHandler
         _LIN_stopTimer
     _OSCILLATOR_Initialize
     _PIN_MANAGER_Initialize
     _PWM5_Initialize
     _TMR0_Initialize
       _TMR0_ReadTimer
       _TMR0_SetInterruptHandler
       _TMR0_WriteTimer
     _TMR2_Initialize
     _TMR6_Initialize
     _WDT_Initialize
   _Timer
   _testmode
     _Delay_ms
     _LED_OFF
     _LED_ON
     _Streamer_SEG1_TEST
       _Delay_ms
       _LED_SET
     _Streamer_SEG2_TEST
       _Delay_ms
       _LED_SET
     _Timer_TESTMODE

 _INTERRUPT_InterruptManager (ROOT)
   NULL(Fake) *
   _EUSART_Receive_ISR *
     NULL(Fake) *
     _EUSART_DefaultErrorHandler *
       _EUSART_RxDataHandler
     _EUSART_DefaultFramingErrorHandler *
     _EUSART_DefaultOverrunErrorHandler *
     _EUSART_RxDataHandler *
   _EUSART_Transmit_ISR *
   _TMR0_ISR *
     NULL(Fake) *
     _LIN_timerHandler *
     _TMR0_DefaultInterruptHandler *

 Address spaces:
Name               Size   Autos  Total    Cost      Usage
BIGRAM             1F0      0       0       0        0.0%
EEDATA             100      0       0       0        0.0%
NULL                 0      0       0       0        0.0%
CODE                 0      0       0       0        0.0%
BITCOMMON            E      0       0       1        0.0%
BITSFR0              0      0       0       1        0.0%
SFR0                 0      0       0       1        0.0%
COMMON               E      C       D       2       92.9%
BITSFR1              0      0       0       2        0.0%
SFR1                 0      0       0       2        0.0%
BITSFR2              0      0       0       3        0.0%
SFR2                 0      0       0       3        0.0%
STACK                0      0       0       3        0.0%
BITSFR3              0      0       0       4        0.0%
SFR3                 0      0       0       4        0.0%
ABS                  0      0      7D       4        0.0%
BITBANK0            50      0       0       5        0.0%
BITSFR4              0      0       0       5        0.0%
SFR4                 0      0       0       5        0.0%
BANK0               50     12      50       6      100.0%
BITSFR5              0      0       0       6        0.0%
SFR5                 0      0       0       6        0.0%
BITBANK1            50      0       0       7        0.0%
BITSFR6              0      0       0       7        0.0%
SFR6                 0      0       0       7        0.0%
BANK1               50      0      20       8       40.0%
BITSFR7              0      0       0       8        0.0%
SFR7                 0      0       0       8        0.0%
BITBANK2            50      0       0       9        0.0%
BITSFR8              0      0       0       9        0.0%
SFR8                 0      0       0       9        0.0%
BANK2               50      0       0      10        0.0%
BITSFR9              0      0       0      10        0.0%
SFR9                 0      0       0      10        0.0%
BITBANK3            50      0       0      11        0.0%
BITSFR10             0      0       0      11        0.0%
SFR10                0      0       0      11        0.0%
BANK3               50      0       0      12        0.0%
BITSFR11             0      0       0      12        0.0%
SFR11                0      0       0      12        0.0%
BITBANK4            50      0       0      13        0.0%
BITSFR12             0      0       0      13        0.0%
SFR12                0      0       0      13        0.0%
BANK4               50      0       0      14        0.0%
BITSFR13             0      0       0      14        0.0%
SFR13                0      0       0      14        0.0%
BITBANK5            50      0       0      15        0.0%
BITSFR14             0      0       0      15        0.0%
SFR14                0      0       0      15        0.0%
BANK5               50      0       0      16        0.0%
BITSFR15             0      0       0      16        0.0%
SFR15                0      0       0      16        0.0%
BITBANK6            10      0       0      17        0.0%
BITSFR16             0      0       0      17        0.0%
SFR16                0      0       0      17        0.0%
BANK6               10      0       0      18        0.0%
BITSFR17             0      0       0      18        0.0%
SFR17                0      0       0      18        0.0%
BITSFR18             0      0       0      19        0.0%
SFR18                0      0       0      19        0.0%
DATA                 0      0      7D      19        0.0%
BITSFR19             0      0       0      20        0.0%
SFR19                0      0       0      20        0.0%
BITSFR20             0      0       0      21        0.0%
SFR20                0      0       0      21        0.0%
BITSFR21             0      0       0      22        0.0%
SFR21                0      0       0      22        0.0%
BITSFR22             0      0       0      23        0.0%
SFR22                0      0       0      23        0.0%
BITSFR23             0      0       0      24        0.0%
SFR23                0      0       0      24        0.0%
BITSFR24             0      0       0      25        0.0%
SFR24                0      0       0      25        0.0%
BITSFR25             0      0       0      26        0.0%
SFR25                0      0       0      26        0.0%
BITSFR26             0      0       0      27        0.0%
SFR26                0      0       0      27        0.0%
BITSFR27             0      0       0      28        0.0%
SFR27                0      0       0      28        0.0%
BITSFR28             0      0       0      29        0.0%
SFR28                0      0       0      29        0.0%
BITSFR29             0      0       0      30        0.0%
SFR29                0      0       0      30        0.0%
BITSFR30             0      0       0      31        0.0%
SFR30                0      0       0      31        0.0%
BITSFR31             0      0       0      32        0.0%
SFR31                0      0       0      32        0.0%


Microchip Technology PIC Macro Assembler V2.46 build 20240104201356 
Symbol Table                                                                                   Mon Nov 10 09:18:17 2025

                       __end_of_LIN_breakCheck 0EA7                    Streamer_SEG2_TEST@InputData 005D  
                ?_EUSART_SetRxInterruptHandler 0071                          __end_of_LIN_getPacket 0FC2  
                        ??_LIN_setTimerHandler 0073                          __end_of_LIN_disableRx 0DBD  
                                  ?_LOBEAM_OFF 0070                                             l42 0D8A  
                                           l51 0D91                                             l45 0D89  
                                           l61 0DAB                                             l53 0D93  
                                           l70 0DA9                                             l63 0DAD  
                                           l39 0002                                             l48 0D88  
                                           l72 0DAA                                             l56 0D8E  
                                           l65 0DAE                                             l81 0F54  
                                           l58 0D90                                             l90 0F6F  
                                           l75 0DFD                                             l68 0DA7  
                                           l84 0E0B                                             l93 0E62  
                                           l78 0E04                                             l87 0E12  
                              _timer0ReloadVal 003C                                ?_LIN_calcParity 0070  
                                          l105 01D1                                            l130 0249  
                                          l115 01D7                                            l212 04C7  
                                          l116 01DD                                            l117 01E3  
                                          l205 0ED2                                            l302 0DA6  
                                          l142 0265                                            l119 01F2  
                                          l312 0EA6                                            l305 0DC1  
                                          l251 016A                                            l308 0DBC  
                                          l260 0FC1                                            l430 0D8D  
                                          l343 0F8A                                            l511 0D96  
                                          l424 0E2B                                            l600 0DB2  
                                          l257 07F3                                            l282 045C  
                                          l442 073D                                            l418 0669  
                                          l514 0DC6                                            l443 0746  
                                          l611 0E22                                            l268 0531  
                                          l292 0E4A                                            l524 0DF0  
                                          l508 0FA5                                            l437 07A9  
                                          l517 0DA2                                            l710 0E85  
                                          l278 0F04                                            l446 075D  
                                          l622 0E55                                            l712 0E8F  
                                          l288 06D2                                            l705 0DB7  
                                          l289 06D5                                            l801 0DCC  
                                          l481 0DD2                                            l721 027C  
                                          l475 0DD8                                            l299 0E1A  
                                          l635 0E3F                                            l716 0E93  
                                          l708 0E81                                            l804 0E35  
                                          l484 0DEA                                            l709 0E8A  
                                          l901 058C                                            l478 0DDE  
                                          l742 0321                                            l487 0DE4  
                                          l591 0FDD                                            l727 030A  
                                          l751 05F1                                            l912 05DC  
                                          l752 05FD                                            l745 033B  
                                          l842 03D6                                            l594 07FA  
                                          l834 0706                                            l746 0349  
                                          l819 0735                                            l917 0F39  
                                          l597 07FF                                            l790 0779  
                                          l759 0621                                            l792 0783  
                                          l892 0572                                            l788 0774  
                                          l885 0532                                            l798 0EBC  
                                          l895 0584                                            l898 058B  
                                          _PR2 001B                                            _PR6 041D  
                            TrunLight@seg1_num 0060                              TrunLight@seg2_num 0061  
                       ??_EUSART_RxDataHandler 0070                 ?_EUSART_SetFramingErrorHandler 0071  
                     __end_of_LIN_getFromTable 0532                                _TMR2_Initialize 0E1B  
                                          wreg 0009                 __end_of_EUSART_get_last_status 0D8E  
                        __end_of_scheduleTable 1004                                   ?_EUSART_Read 0070  
                              __end_of_LED_OFF 0DCD                                __end_of_LED_SET 0EBD  
                              __end_of_DRL_OFF 0D89                                __end_of_LEFT_ON 0DFE  
                                         l3001 07E8                                           l3011 079A  
                                         l3003 0784                                           l3021 07A8  
                                         l3013 07A0                                           l3005 0784  
                                         l3015 07A1                                           l3007 078A  
                                         l3031 04D4                                           l3017 07A3  
                                         l3009 0796                                           l3041 04F3  
                                         l3025 04C9                                           l3201 021F  
                                         l3121 017B                                           l3113 0E56  
                                         l3019 07A6                                           l3035 04DF  
                                         l3043 04F7                                           l3027 04CE  
                                         l3211 0235                                           l3203 0223  
                                         l3131 0191                                           l3123 0181  
                                         l3115 016B                                           l3107 0DC3  
                                         l3053 0511                                           l3045 04FE  
                                         l3037 04F1                                           l3029 04D2  
                                         l3221 0245                                           l3213 0237  
                                         l3205 0226                                           l3141 01A9  
                                         l3133 0197                                           l3125 0183  
                                         l3117 016E                                           l3109 0D94  
                                         l1526 07C2                                           l1535 0F1E  
                                         l3223 024D                                           l3231 025C  
                                         l3215 023B                                           l3207 022C  
                                         l3151 01BB                                           l3143 01AF  
                                         l3135 019B                                           l3127 0185  
                                         l3119 0175                                           l3311 0F7A  
                                         l3073 03D8                                           l4041 0526  
                                         l3049 0504                                           l1529 07CE  
                                         l3241 0467                                           l3081 0D9F  
                                         l3233 0261                                           l3225 0252  
                                         l3209 0230                                           l3217 023F  
                                         l3145 01B3                                           l3137 019D  
                                         l3129 018B                                           l3321 0F88  
                                         l3313 0F7C                                           l3305 0F70  
                                         l3401 0E1E                                           l3083 0D8B  
                                         l3075 0452                                           l3059 051E  
                                         l3243 0469                                           l3251 047C  
                                         l3235 0262                                           l3227 0254  
                                         l3219 0244                                           l3171 01E1  
                                         l3155 01C0                                           l3139 01A3  
                                         l3091 0DD3                                           l3331 0641  
                                         l3323 062C                                           l3315 0F80  
                                         l3307 0F75                                           l3403 0E1F  
                                         l3411 0591                                           l3261 0E23  
                                         l3077 045B                                           l3253 0482  
                                         l3237 045F                                           l3229 0258  
                                         l3181 01F6                                           l3173 01E7  
                                         l3157 01C6                                           l3149 01B5  
                                         l3165 01D1                                           l3501 0070  
                                         l3093 0DD9                                           l3341 0650  
                                         l3333 0643                                           l3325 062E  
                                         l3317 0F82                                           l3309 0F78  
                                         l3405 0E20                                           l3421 05A9  
                                         l3413 0595                                           l3407 0DB3  
                                         l3271 0E94                                           l3255 049C  
                                         l3247 0474                                           l3239 0463  
                                         l3191 0209                                           l3183 01FA  
                                         l3175 01EA                                           l3167 01D5  
                                         l3159 01CC                                           l4039 014A  
                                         l3511 008B                                           l3503 0073  
                                         l3095 0DCD                                           l3087 0DDF  
                                         l3351 0662                                           l3343 0657  
                                         l3335 0645                                           l3327 0635  
                                         l3319 0F86                                           l3431 05BB  
                                         l3423 05AF                                           l3415 059E  
                                         l3273 0E9C                                           l3257 04B4  
                                         l3249 0478                                           l3265 0E41  
                                         l2801 0F25                                           l3193 020E  
                                         l3185 01FD                                           l3169 01DB  
                                         l3521 00A7                                           l3513 0093  
                                         l3505 007B                                           l3089 0DE5  
                                         l3353 0667                                           l3345 065E  
                                         l3337 0647                                           l3329 063E  
                                         l3361 0F90                                           l3441 05D3  
                                         l3433 05BF                                           l3425 05B0  
                                         l3417 05A4                                           l3409 058C  
                                         l3275 0EA3                                           l3291 0F03  
                                         l3283 0EEC                                           l3259 04BF  
                                         l3267 0E44                                           l2803 0F28  
                                         l2811 0DC7                                           l3195 0212  
                                         l3187 0202                                           l3179 01ED  
                                         l3531 00C4                                           l3523 00AC  
                                         l3515 009B                                           l3507 0083  
                                         l3347 0660                                           l3339 0649  
                                         l3371 0F9D                                           l3363 0F93  
                                         l3451 070B                                           l3435 05C3  
                                         l3443 05D4                                           l3427 05B4  
                                         l3419 05A5                                           l3285 0EF7  
                                         l2901 06BB                                           l3269 0E47  
                                         l2805 0F29                                           l2741 076D  
                                         l2821 0351                                           l3197 0217  
                                         l3189 0206                                           l3541 00DE  
                                         l3533 00CC                                           l3509 0087  
                                         l3349 0661                                           l2813 0DEB  
                                         l3373 0F9E                                           l3365 0F95  
                                         l3381 0DAF                                           l3461 0717  
                                         l3453 070C                                           l3445 05D8  
                                         l3437 05C8                                           l3429 05BA  
                                         l3701 02F3                                           l3279 0EA5  
                                         l2903 06C4                                           l2751 0537  
                                         l2807 0F2B                                           l2743 0771  
                                         l2735 075F                                           l2831 0360  
                                         l2823 0353                                           l2815 034C  
                                         l3199 021A                                           l3551 00FF  
                                         l3543 00E9                                           l3535 00CF  
                                         l3527 00B6                                           l3519 009F  
                                         l3375 07F4                                           l3391 0E4B  
                                         l3367 0F99                                           l3359 0F8B  
                                         l3383 0E36                                           l3463 071E  
                                         l3471 06DA                                           l3447 05DB  
                                         l3439 05CE                                           l3711 02FD  
                                         l3703 02F5                                           l3289 0EF9  
                                         l2921 0737                                           l2905 06C8  
                                         l2761 054F                                           l2753 053B  
                                         l2809 0F2E                                           l2745 077A  
                                         l2737 0763                                           l2841 037F  
                                         l2833 0367                                           l2825 0355  
                                         l2817 034E                                           l2913 0F06  
                                         l3561 011D                                           l3545 00F3  
                                         l3537 00D2                                           l3529 00BF  
                                         l3377 07F7                                           l3393 0E4E  
                                         l3369 0F9C                                           l3385 0E39  
                                         l3465 0723                                           l3457 070D  
                                         l3449 0709                                           l3481 06E7  
                                         l3473 06DB                                           l3721 0318  
                                         l3713 0300                                           l3705 02F7  
                                         l3641 0278                                           l3299 0DB8  
                                         l2931 0752                                           l2923 0737  
                                         l2907 06CC                                           l2771 0561  
                                         l2763 0555                                           l2755 0544  
                                         l2747 0781                                           l2739 0767  
                                         l2851 038F                                           l2835 036C  
                                         l2827 0356                                           l2819 034F  
                                         l2915 0F09                                           l3571 0133  
                                         l3563 0122                                           l3555 0113  
                                         l3547 00F4                                           l3539 00D6  
                                         l3491 0059                                           l3379 07F8  
                                         l3395 0E4F                                           l3387 0E3A  
                                         l3627 0FC2                                           l3467 072F  
                                         l3459 0711                                           l3483 06ED  
                                         l3731 032E                                           l3723 0325  
                                         l3715 0303                                           l3707 02F8  
                                         l3651 028E                                           l3643 027F  
                                         l3635 0266                                           l3629 0E81  
                                         l2933 0758                                           l2925 0742  
                                         l2909 06D4                                           l2781 057B  
                                         l2773 0565                                           l2765 0556  
                                         l2757 054A                                           l2749 0532  
                                         l2861 03B0                                           l2853 0396  
                                         l2837 0373                                           l2829 0359  
                                         l2941 0DF8                                           l2917 0F0E  
                                         l3573 0138                                           l3565 0125  
                                         l3557 0116                                           l3549 00F7  
                                         l3493 005E                                           l3581 0142  
                                         l3397 0E50                                           l3389 0E3C  
                                         l3485 06F4                                           l3477 06DC  
                                         l3469 06D8                                           l3733 0332  
                                         l3725 032A                                           l3717 030E  
                                         l3709 02F9                                           l3661 0299  
                                         l3653 028F                                           l3645 0285  
                                         l3637 0270                                           l2935 0759  
                                         l2927 0747                                           l2783 057F  
                                         l2775 056A                                           l2767 055A  
                                         l2759 054B                                           l2791 0EAC  
                                         l2951 0F3A                                           l2871 03CA  
                                         l2863 03B6                                           l2855 039D  
                                         l2847 0381                                           l2839 0378  
                                         l2943 0DFC                                           l2919 0F12  
                                         l3575 013B                                           l3567 0127  
                                         l3559 011A                                           l3495 0061  
                                         l3399 0E1B                                           l3487 0700  
                                         l3479 06E2                                           l3727 032B  
                                         l3719 0313                                           l3671 02B5  
                                         l3655 0290                                           l3647 028B  
                                         l3663 02A1                                           l3639 0273  
                                         l3735 0336                                           l2881 0DBD  
                                         l2929 074E                                           l2937 075B  
                                         l2785 0588                                           l2777 056E  
                                         l2769 0560                                           l2793 0EAE  
                                         l2953 0F3B                                           l2873 03CF  
                                         l2865 03B8                                           l2857 03A4  
                                         l2849 0389                                           l2945 0DFE  
                                         l2961 0E0A                                           l3577 013E  
                                         l3569 0128                                           l3497 0069  
                                         l3489 0053                                           l3737 033F  
                                         l3729 032D                                           l3681 02CF  
                                         l3673 02B8                                           l3665 02A6  
                                         l3657 0293                                           l3649 028C  
                                         l2891 07B9                                           l2787 0589  
                                         l2779 0575                                           l2795 0EB2  
                                         l2955 0F53                                           l2867 03BE  
                                         l2859 03AB                                           l2939 0DF7  
                                         l2875 0E2D                                           l2947 0DFF  
                                         l2971 0F56                                           l2963 0E0C  
                                         l3499 006D                                           l2883 0E13  
                                         l3691 02D9                                           l3683 02D1  
                                         l3675 02BB                                           l3667 02AC  
                                         l3659 0296                                           l2893 06A4  
                                         l2885 07AB                                           l2797 0EB6  
                                         l2789 0EA8                                           l2869 03C3  
                                         l2877 0E2F                                           l2949 0E03  
                                         l2973 0F6E                                           l2957 0E05  
                                         l2965 0E0D                                           l2981 0ECF  
                                         l3693 02DC                                           l3685 02D3  
                                         l3669 02B2                                           l3677 02C3  
                                         l3941 05DF                                           l2895 06AB  
                                         l2887 07B0                                           l2879 0DA3  
                                         l2799 0F1F                                           l2983 0FA7  
                                         l2959 0E06                                           l2967 0E11  
                                         l2975 0EBE                                           l3695 02DF  
                                         l3687 02D4                                           l3679 02C9  
                                         l3951 05FA                                           l3943 05E2  
                                         l2897 06AD                                           l2993 07D1  
                                         l2889 07B5                                           l2985 0FAB  
                                         l2969 0F55                                           l2977 0EC9  
                                         l3689 02D5                                           l3697 02E7  
                                         l3961 0612                                           l3953 0600  
                                         l3945 05E9                                           l2899 06B7  
                                         l2995 07D3                                           l2987 0FB5  
                                         l2979 0ECC                                           l3699 02ED  
                                         l3971 061B                                           l3963 0615  
                                         l3955 0605                                           l3947 05EE  
                                         l3939 05DD                                           l2997 07DD  
                                         l2989 0FC0                                           l3973 061F  
                                         l3965 0617                                           l3957 060B  
                                         l3949 05F8                                           l2999 07E2  
                                         l3975 0623                                           l3967 0619  
                                         l3959 0610                                           l3977 0626  
                                         l3969 061A                                           u2010 0443  
                                         u2011 0441                                           u2020 044A  
                                         u2012 0444                                           u2004 043E  
                                         u2100 018B                                           u2021 0448  
                                         u2101 018A                                           u2030 0451  
                                         u2022 044B                                           u2110 0191  
                                         u2031 044F                                           u2111 0190  
                                         u2200 01DB                                           u2120 0197  
                                         u2201 01DA                                           u2121 0196  
                                         u2050 045A                                           u2210 01E1  
                                         u2130 01A3                                           u2051 0458  
                                         u2211 01E0                                           u2131 01A2  
                                         u2044 0452                                           u2300 0235  
                                         u2220 01E7                                           u2140 01A9  
                                         u2301 0234                                           u2221 01E6  
                                         u2141 01A8                                           _LATA 010C  
                                         u2310 0244                                           u2230 01F6  
                                         u2150 01AF                                           _LATB 010D  
                                         u2311 0243                                           u2231 01F5  
                                         u2151 01AE                                           _LATC 010E  
                                         u2400 0EA3                                           u2064 045B  
                                         u1600 056A                                           u2320 024D  
                                         u2240 0202                                           u2160 01BB  
                                         u2080 017B                                           u3120 05EE  
                                         u2401 0EA2                                           u1601 0569  
                                         u2321 024C                                           u2241 0201  
                                         u2161 01BA                                           u2081 017A  
                                         u3121 05ED                                           _LATE 0110  
                                         u2410 0EF7                                           u1610 056E  
                                         u1530 076D                                           u2330 0252  
                                         u2250 020E                                           u2170 01C6  
                                         u2090 0181                                           u3130 0605  
                                         u2411 0EF6                                           u1611 056D  
                                         u1531 076C                                           u2331 0251  
                                         u2251 020D                                           u2171 01C5  
                                         u2091 0180                                           u3131 0604  
                                         u2420 0F03                                           u1700 06D2  
                                         u1620 057B                                           u1540 0779  
                                         u2340 0261                                           u2260 0217  
                                         u2180 01CC                                           u2500 05C8  
                                         u3140 060B                                           u2421 0F02  
                                         u1701 06D1                                           u1621 057A  
                                         u1541 0778                                           u2341 0260  
                                         u2261 0216                                           u2181 01CB  
                                         u2501 05C7                                           u3141 060A  
                                         u2350 0473                                           u1630 057F  
                                         u1550 0781                                           u1710 0F1E  
                                         u2270 021F                                           u2190 01D5  
                                         u2510 05CE                                           u3150 061F  
                                         u2351 0472                                           u1631 057E  
                                         u1551 0780                                           u1711 0F1D  
                                         u2271 021E                                           u2191 01D4  
                                         u2511 05CD                                           u3151 061E  
                                         u1800 04FD                                           u1720 073D  
                                         u2360 0482                                           u1640 0588  
                                         u1560 0537                                           u2280 022C  
                                         u2600 0093                                           u2440 07FF  
                                         u2520 05D8                                           u1801 04FC  
                                         u1721 073C                                           u2361 0481  
                                         u1641 0587                                           u1561 0536  
                                         u2281 022B                                           u2601 0092  
                                         u2441 07FE                                           u2521 05D7  
                                         u2370 0E2A                                           u1810 03DF  
                                         u1730 0742                                           u1570 054A  
                                         u1650 0EBC                                           u2290 0230  
                                         u2610 009B                                           u2530 0735  
                                         u2450 0591                                           u2371 0E28  
                                         u1811 03DD                                           u1731 0741  
                                         u1571 0549                                           u1651 0EBB  
                                         u2291 022F                                           u2611 009A  
                                         u2531 0734                                           u2451 0590  
                                         u2380 0E2B                                           u1900 040E  
                                         u1820 03E6                                           u1812 03E0  
                                         u1740 0758                                           u1580 0555  
                                         u1660 0F39                                           u2620 00A7  
                                         u2540 0706                                           u2460 05A4  
                                         u1901 040C                                           u1821 03E4  
                                         u1741 0757                                           u1581 0554  
                                         u1661 0F38                                           u2621 00A6  
                                         u2541 0705                                           u2461 05A3  
                                         u2390 0E9C                                           u1910 0415  
                                         u1902 040F                                           u1830 03ED  
                                         u1822 03E7                                           u1750 07E8  
                                         u1590 0560                                           u1670 03B6  
                                         u2630 00B5                                           u2550 0059  
                                         u2470 05AF                                           u2391 0E9B  
                                         u1911 0413                                           u1831 03EB  
                                         u1751 07E7                                           u1591 055F  
                                         u1671 03B5                                           u2631 00B4  
                                         u2551 0058                                           u2471 05AE  
                                         u1760 078A                                           u1680 07CE  
                                         u2640 00C4                                           u2560 005E  
                                         u2480 05BA                                           u2800 0285  
                                         u1761 0789                                           u1681 07CD  
                                         u1665 0F35                                           u2641 00C3  
                                         u2561 005D                                           u2481 05B9  
                                         u2801 0284                                           u1770 07A0  
                                         u1930 041B                                           u1850 03F3  
                                         u1690 06C4                                           u2650 00DE  
                                         u2570 0069                                           u2490 05C3  
                                         u2810 028B                                           u1771 079F  
                                         u1931 0419                                           u1851 03F1  
                                         u1691 06C3                                           u2651 00DD  
                                         u2571 0068                                           u2491 05C2  
                                         u2811 028A                                           u1940 0422  
                                         u1932 041C                                           u1924 0416  
                                         u1860 03FA                                           u1852 03F4  
                                         u1844 03EE                                           u1780 04DE  
                                         u2660 00F3                                           u2580 007B  
                                         u2900 02F3                                           u2820 02A0  
                                         u1941 0420                                           u1861 03F8  
                                         u1781 04DD                                           u2661 00F2  
                                         u2581 007A                                           u2901 02F2  
                                         u2821 029F                                           u1950 0429  
                                         u1942 0423                                           u1870 0401  
                                         u1862 03FB                                           u1790 04F1  
                                         u2670 00FF                                           u2590 0083  
                                         u2910 030A                                           u2830 02A6  
                                         u1951 0427                                           u1871 03FF  
                                         u1791 04F0                                           u2671 00FE  
                                         u2591 0082                                           u2911 0309  
                                         u2831 02A5                                           u2760 0E89  
                                         u2680 0112                                           u2920 030E  
                                         u2840 02AC                                           u2761 0E88  
                                         u2681 0111                                           u2921 030D  
                                         u2841 02AB                                           u2770 0E8F  
                                         u1970 042F                                           u1890 0407  
                                         u2690 0138                                           u2930 0313  
                                         u2850 02C2                                           u2771 0E8E  
                                         u1971 042D                                           u1891 0405  
                                         u2691 0137                                           u2931 0312  
                                         u2851 02C1                                           u2780 0E93  
                                         u1980 0436                                           u1972 0430  
                                         u1964 042A                                           u1892 0408  
                                         u1884 0402                                           u2940 0325  
                                         u2860 02C9                                           u2781 0E92  
                                         u1981 0434                                           u2941 0324  
                                         u2861 02C8                                           u1990 043D  
                                         u1982 0437                                           u2950 032A  
                                         u2870 02CF                                           u2790 0278  
                                         u1991 043B                                           u2951 0329  
                                         u2871 02CE                                           u2791 0277  
                                         u2960 033B                                           u2880 02E6  
                                         u2961 033A                                           u2881 02E5  
                                         u2890 02ED                                           u2891 02EC  
                                         _PLLR 04D6                                           _TMR0 0015  
                                         _TMR2 001A                                           _TMR6 041C  
                                         _WPUB 020D                                           _WPUE 0210  
                               _LIN_sendPacket 07CF                                           _fY_W 0032  
                              __end_of_POS_OFF 0D8B                                           _main 05DD  
                                         _mode 0037                                           fsr0h 0005  
                                         fsr1h 0007                                           indf0 0000  
                                         fsr0l 0004                                           indf1 0001  
                                         fsr1l 0006                                           btemp 007E  
                                  LED_SET@data 0077                                   _PWM_SendData 075E  
                                         start 0038                                _PWM5_Initialize 0E4B  
                                processLIN@cmd 0062                                ?_LIN_breakCheck 0070  
                             __end_of_LEFT_ON2 0E05                               __end_of_LEFT_OFF 0F55  
                      __end_of_TMR0_Initialize 0FA6                          PWM_SendData@InputData 0071  
               ??_TMR0_DefaultInterruptHandler 0070                                  ?_EUSART_Write 0070  
                __end_of_OSCILLATOR_Initialize 0800                              LIN_sendPacket@pid 0079  
                                        ?_main 0070                                LIN_init@command 0073  
                                        _T2CON 001C                                          _T6CON 041E  
                                        i1l521 0E80                                          i1l452 0FFF  
                                        i1l463 0EEA                                          i1l527 0D87  
                                        i1l551 0026                                          i1l472 0D9A  
                                        i1l296 0E70                                          i1l449 0FFD  
                                        i1l466 0D86                                          i1l459 06A2  
                                        i1l555 0036                                          i1l556 0036  
                                        i1l548 0012                                          i1l469 0D9E  
                              _TMR0_WriteTimer 0DC2                                          _RCREG 0199  
                                        _RCSTA 019D                               __end_of_RIGHT_ON 0E0C  
                                        _TRISA 008C                                          _TRISB 008D  
                                        _TRISC 008E                                          _TRISE 0090  
                                        _TXREG 019A                               __end_of_LIN_init 0ED3  
                        __end_of_LIN_stopTimer 0DA7                                          _TXSTA 019E  
                    ?_TMR0_SetInterruptHandler 0071                                          _Timer 0532  
                             __end_of_TMR0_ISR 0E81                                          _fLock 004C  
                                        _fTurn 0039                                 _WDT_Initialize 0DAF  
                       __end_of_LIN_sendPacket 07F4                                          _ftest 0038  
                                        pclath 000A                              ??_AutoBaud_Detect 0071  
                               _LIN_startTimer 0E40                                          status 0003  
                                        wtemp0 007E                               __end_of_Delay_ms 0F3A  
                             ?_LIN_getChecksum 0071                              __end_of_HIBEAM_ON 0DAF  
                  LIN_queuePacket@tempSchedule 0065                                __initialization 003A  
                                 ?_LIN_handler 0070                                   __end_of_main 062C  
                               ??_EUSART_Write 0071                        __end_of_TMR2_Initialize 0E23  
                  ?_INTERRUPT_InterruptManager 0070                 ??_EUSART_SetRxInterruptHandler 0073  
                                       ??_main 006D                                      ??_LED_OFF 007A  
                            __end_of_LOBEAM_ON 0D94                                      ??_LED_SET 0075  
                                    ??_DRL_OFF 0071                                      ??_LEFT_ON 007B  
                       __end_of_WDT_Initialize 0DB3                                _TMR6_Initialize 0E36  
                           LIN_sendPacket@data 007A                                         ?_Timer 0070  
    __end_of_EUSART_DefaultFramingErrorHandler 0D87            ??_EUSART_DefaultFramingErrorHandler 0070  
           ?_EUSART_DefaultFramingErrorHandler 0070              _EUSART_DefaultFramingErrorHandler 0D86  
                                    ??_POS_OFF 0071                     _EUSART_OverrunErrorHandler 0026  
                       __end_of_LIN_startTimer 0E4B                                ?_LIN_sendPacket 0079  
                                       _CCPR5H 031D                                         _CCPR5L 031C  
                                       _APFCON 011D                                         _ANSELA 018C  
                                       _ANSELB 018D                     __end_of_EUSART_is_rx_ready 0E2C  
                                       _BORCON 0116                                         i1l3101 0EDE  
                                       i1l3103 0EE4                                         i1l3105 0EE5  
                                       i1l3301 0E63                                         i1l3303 0E6E  
                                       _LED_ON 0E2C                                         i1l3097 0ED3  
                                       i1l3601 066F                                         i1l3099 0EDA  
                                       i1l3355 0D9B                                         i1l3611 0689  
                                       i1l3603 0674                        __end_of_PWM5_Initialize 0E56  
                                       i1l3357 0D97                                         i1l3613 068F  
                                       i1l3605 0679                                         i1l3621 0E72  
                                       i1l3615 0698                                         i1l3607 067F  
                                       i1l3623 0E75                                         _DRL_ON 0D89  
                                       i1l3617 069F                                         i1l3609 0684  
                                       i1l3625 0E7B                                         i1l3619 0E71  
                                       i1l3821 001B                                         i1l3813 0006  
                                       i1l3591 0FEC                                         i1l3823 0020  
                                       i1l3815 000A                                         i1l3593 0FF1  
                                       i1l3825 002B                                         i1l3817 000E  
                                       i1l3595 0FF7                                         i1l3587 0FDE  
                                       i1l3827 0030                                         i1l3819 0016  
                                       i1l3597 0FF8                                         i1l3589 0FE5  
                                       i1l3599 066A                                         u301_20 000A  
                                       u301_21 0009                                         u302_20 000E  
                                       u302_21 000D                                         u207_20 0EE4  
                                       u303_20 0016                                         u207_21 0EE3  
                                       u303_21 0015                                         u304_20 001B  
                                       u304_21 001A                                         u305_20 0020  
                                       u305_21 001F                                         u306_20 002B  
                                       u306_21 002A                                         u243_20 0E6E  
                                       u307_20 0030                                         u243_21 0E6D  
                                       u307_21 002F                                         u270_20 0FE5  
                                       u270_21 0FE4                                         u271_20 0FF7  
                                       u271_21 0FF6                                         u272_20 0674  
                                       u272_21 0673                                         u273_20 0684  
                                       u273_21 0683                                         u274_20 0698  
                                       u274_21 0697                                         u275_20 0E7B  
                                       u275_21 0E7A                                         _OSCCON 0099  
                            __end_of_RIGHT_ON2 0E13                              __end_of_RIGHT_OFF 0F70  
                                       _TMR2IF 0089                                         _SPBRGH 019C  
                                       _SPBRGL 019B                                         _WDTCON 0097  
                                       _POS_ON 0002                                _LIN_processData 0030  
                                 _CCPTMRS1bits 029F                                   ?_TMR0_Reload 0070  
                              _LIN_queuePacket 045D                        __end_of_TMR0_WriteTimer 0DC7  
                          _EUSART_Transmit_ISR 0FDE                                         _memcpy 07AA  
                             ?_TMR0_Initialize 0070                                         _memset 0F05  
                                 ??_HIBEAM_OFF 0071                                ?_WDT_Initialize 0070  
                             _LIN_rxInProgress 0048                               __end_of_testmode 034A  
     TMR0_SetInterruptHandler@InterruptHandler 0071                                ?_LIN_startTimer 0070  
                         ?_EUSART_Transmit_ISR 0070                              _SYSTEM_Initialize 0FC2  
                      __end_of__initialization 004F                                      ?_LEFT_ON2 0070  
                                    ?_LEFT_OFF 0070                             ?_SYSTEM_Initialize 0070  
                           __end_of_HIBEAM_OFF 0DAB                                  ?_LIN_checkPID 0070  
                                   _fRight_old 004A           __end_of_EUSART_SetTxInterruptHandler 0DEB  
                 _EUSART_SetTxInterruptHandler 0DE5                                      ?_RIGHT_ON 0070  
                                    ?_LIN_init 0073                                 __pcstackCOMMON 0070  
                                ?_LIN_enableRx 0070                                  __end_of_Timer 058C  
                             ??_LIN_calcParity 0071                                LIN_sendPacket@i 005E  
                                 __pidataBANK0 0003                            ??_SYSTEM_Initialize 0078  
                                    ?_TMR0_ISR 0070                                   ??_LOBEAM_OFF 0071  
                             ?_TMR2_Initialize 0070                        __end_of_TMR6_Initialize 0E40  
                       LIN_handler@rxDataIndex 0043                                 _OPTION_REGbits 0095  
                         _eusartRxStatusBuffer 00A0                              ?_LIN_getFromTable 0071  
                                    ?_Delay_ms 0072                                        ??_Timer 0071  
                       LIN_handler@LIN_rxState 0044                ??_EUSART_SetOverrunErrorHandler 0073  
                                   TrunLight@i 005E                             ??_LIN_getFromTable 0072  
                    __end_of_SYSTEM_Initialize 0FDE                          ??_EUSART_Transmit_ISR 0070  
                                   __pbssBANK0 0020                                     __pbssBANK1 00A0  
                                      ?_LED_ON 0070                                        ?_DRL_ON 0070  
                         __end_of_EUSART_Write 075E                               ?_PWM5_Initialize 0070  
                   __end_of_Streamer_SEG1_TEST 0736                     __end_of_Streamer_SEG2_TEST 0707  
                           __end_of_LOBEAM_OFF 0D91                                     ??_LEFT_ON2 007C  
                                   ??_LEFT_OFF 007A                                 _Timer_TESTMODE 058C  
                                      ?_POS_ON 0070                               ??_LIN_breakCheck 0073  
                               ??_LIN_checkPID 0078                    __end_of_LIN_setTimerHandler 0E1B  
                      __end_of_LIN_queuePacket 04C8                                     ??_RIGHT_ON 007B  
                               ??_LIN_enableRx 0071                                     __pmaintext 05DD  
                             _LIN_timerHandler 0E63                                     ??_LIN_init 0077  
                          LIN_getChecksum@data 0072                  ?_EUSART_SetTxInterruptHandler 0071  
             _EUSART_TxDefaultInterruptHandler 002C               __end_of_TMR0_SetInterruptHandler 0DF1  
                                   ??_TMR0_ISR 0071                                     __pintentry 0004  
                             ?_TMR0_WriteTimer 0070                                        _CCP5CON 031E  
                                      ?_memcpy 0071                                        _BAUDCON 019F  
                                      ?_memset 0071                   ??_EUSART_DefaultErrorHandler 0071  
                            __end_of_TrunLight 03D7                          LIN_getChecksum@length 0075  
                             _LIN_timerRunning 0046                                  _eusartRxCount 003E  
                              _AutoBaud_Detect 0E81                                        _LED_OFF 0DC7  
                                      _LED_SET 0EA7                                        _DRL_OFF 0D88  
                                      _LEFT_ON 0DF7                                     ??_Delay_ms 0074  
                                      _OSCTUNE 0098                                        _POS_OFF 0D8A  
                     ??_EUSART_SetErrorHandler 0073                         __end_of_Timer_TESTMODE 05DD  
                      LIN_getChecksum@checksum 0077                                 LED_SET@LED_num 0076  
                 __end_of_LIN_Slave_Initialize 0E63                                        _fLoBeam 004F  
                                _SW_STATE_Data 00B8                                      ?_testmode 0070  
                                    _HIBEAM_ON 0DAB                               ?_TMR6_Initialize 0070  
                                      __ptext1 0266                                        __ptext2 058C  
                                      __ptext3 06D6                                        __ptext4 0707  
                                      __ptext5 0FC2                                        __ptext6 0DAF  
                                      __ptext7 0E36                                        __ptext8 0E1B  
                                      __ptext9 0F8B                          _OSCILLATOR_Initialize 07F4  
                             ??_LIN_sendPacket 007B                       ??_PIN_MANAGER_Initialize 0071  
                                    _T6CONbits 041E                                  TrunLight@data 005F  
                                    _LOBEAM_ON 0D91                                        clrloop0 0DF2  
                    LIN_getFromTable@rxCommand 0076                           end_of_initialization 004F  
                              ?_Timer_TESTMODE 0070          __end_of_EUSART_SetOverrunErrorHandler 0DDF  
                _EUSART_SetOverrunErrorHandler 0DD9                                        memcpy@d 0076  
                                      memcpy@n 0072                                        memcpy@s 0077  
                                      memset@c 0071                                        memset@n 0073  
                                      memset@p 0076                              _EUSART_Initialize 062C  
                             ?_LIN_queuePacket 0070                    Streamer_SEG1_TEST@InputData 005D  
                                    _RIGHT_ON2 0E0C                                      _RIGHT_OFF 0F55  
                           ?_EUSART_Initialize 0070                                      _RCSTAbits 019D  
                           _EUSART_is_rx_ready 0E23                                     ??_testmode 007C  
                                _LIN_getPacket 0FA6                        __end_of_AutoBaud_Detect 0E94  
                                   ?_HIBEAM_ON 0070                                 _TMR0_ReadTimer 0D94  
                                _LIN_disableRx 0DB8                       ??_EUSART_get_last_status 0071  
                          ??_EUSART_Initialize 0073                               ??_WDT_Initialize 0071  
               ??_EUSART_SetTxInterruptHandler 0073                              LIN_getPacket@data 007A  
                     _TMR0_SetInterruptHandler 0DEB                                      _PORTAbits 000C  
                                    _PORTBbits 000D                            ?_EUSART_is_rx_ready 0070  
                                    _PORTCbits 000E                                     _processLIN 016B  
                         __end_of_LIN_checkPID 0F05                            LIN_init@tableLength 0077  
                             ??_LIN_startTimer 0071                           __end_of_LIN_enableRx 0DC2  
                                   ?_LOBEAM_ON 0070                                  _scheduleTable 1000  
                    __end_of_EUSART_Initialize 066A                           ??_EUSART_is_rx_ready 0071  
                               __end_of_LED_ON 0E36                                 __end_of_DRL_ON 0D8A  
                                    _TXSTAbits 019E                                 __end_of_POS_ON 0003  
                                   LED_ON@data 007B                                     LED_SET@num 0078  
                                _LIN_rxCommand 002E                                     ?_RIGHT_ON2 0070  
                                   ?_RIGHT_OFF 0070                         __end_of_TMR0_ReadTimer 0D97  
                               ?_LIN_getPacket 0070                                 ?_LIN_disableRx 0070  
           __end_of_EUSART_DefaultErrorHandler 0D9B                     _EUSART_DefaultErrorHandler 0D97  
                                  _BAUDCONbits 019F                                   _EUSART_Write 0736  
                               __end_of_memcpy 07CF                         ?_OSCILLATOR_Initialize 0070  
                               __end_of_memset 0F1F                            start_initialization 003A  
                                _LIN_stopTimer 0DA3                       __end_of_LIN_timerHandler 0E71  
                         _LIN_Slave_Initialize 0E56                                  ??_EUSART_Read 0071  
                   __end_of_AutoBaud_Detect_ON 0DB8   EUSART_SetRxInterruptHandler@interruptHandler 0071  
 EUSART_SetTxInterruptHandler@interruptHandler 0071                                       ??_LED_ON 007A  
                                     ??_DRL_ON 0071                          LIN_startTimer@timeout 0071  
                                     ??_POS_ON 0071                                  ?_PWM_SendData 0070  
                                  _T100us_cnt1 0034                              LIN_calcParity@CMD 0072  
               ?_EUSART_SetOverrunErrorHandler 0071                              LIN_calcParity@PID 0073  
                   _EUSART_FramingErrorHandler 0028                                ?_TMR0_ReadTimer 0070  
                       _EUSART_SetErrorHandler 0DCD                                    ??_HIBEAM_ON 0071  
                           _Streamer_SEG1_TEST 0707                             _Streamer_SEG2_TEST 06D6  
                             ?_AutoBaud_Detect 0070                                    __pdataBANK0 006F  
                                    _fLampSide 004E                                       ??_memcpy 0074  
                                     ??_memset 0075                           processLIN@tempRxData 0063  
                                    _fLeft_old 0049                                     memset@dest 0077  
                                  ?_processLIN 0070                            LIN_init@processData 0075  
                          ?_Streamer_SEG1_TEST 0070                            ?_Streamer_SEG2_TEST 0070  
                                     ?_LED_OFF 0070                                       ?_LED_SET 0074  
                                     ?_DRL_OFF 0070                                       ?_LEFT_ON 0070  
                  __end_of_EUSART_Transmit_ISR 1000                                 ?_LIN_stopTimer 0070  
                                  __pbssCOMMON 007C                                      _TrunLight 034A  
                                    ___latbits 0002                                       LED_SET@i 0079  
                                __pcstackBANK0 005D                              ??_LIN_getChecksum 0073  
                        ?_LIN_Slave_Initialize 0070                                    ??_LOBEAM_ON 0071  
                                     ?_POS_OFF 0070                     __end_of_EUSART_Receive_ISR 06A3  
                               ??_PWM_SendData 0071               _EUSART_RxDefaultInterruptHandler 002A  
                          __end_of_EUSART_Read 07AA                           ??_Streamer_SEG1_TEST 007A  
                         ??_Streamer_SEG2_TEST 007A                          _TMR0_InterruptHandler 0022  
                 __end_of_EUSART_RxDataHandler 0EEB                                    ??_RIGHT_ON2 007C  
                              ??_LIN_getPacket 0079                                    ??_RIGHT_OFF 007A  
                       _PIN_MANAGER_Initialize 0F70                                  ??_LIN_handler 006B  
                             LIN_getChecksum@i 0076                                ??_LIN_disableRx 0071  
                         EUSART_Read@readValue 0072                             LIN_getChecksum@pid 0071  
                         LIN_sendPacket@length 005D                                   _eusartRxHead 007C  
                                 _eusartTxHead 0042                                   _eusartRxTail 003F  
                                 _eusartTxTail 0041                   ??_INTERRUPT_InterruptManager 0071  
                                    _lampFlags 004B                               LED_SET@InputData 0074  
                      _eusartTxBufferRemaining 0040                             _fColorSeletDisable 003B  
                                    _lampState 004D                               ??_Timer_TESTMODE 0071  
                                   ?_TrunLight 0070                                LIN_checkPID@pid 0078  
                               _eusartRxBuffer 00A8                         _EUSART_get_last_status 0D8B  
                            ??_TMR0_Initialize 0073                                       _LEFT_ON2 0DFE  
                                     _LEFT_OFF 0F3A                                 _eusartTxBuffer 00B0  
                          Streamer_SEG1_TEST@i 0060                                       _T1MS_cnt 0020  
       EUSART_SetErrorHandler@interruptHandler 0071                                       _LATBbits 010D  
                          Streamer_SEG2_TEST@i 0060                                       _LATCbits 010E  
                             Delay_ms@input_ms 0072                                      clear_ram0 0DF1  
                                     _T5MS_cnt 0033                                       _PIE1bits 0091  
                            _eusartRxLastError 003D                                   _LIN_checkPID 0EEB  
                   ??_TMR0_SetInterruptHandler 0073                                       _PIR1bits 0011  
                                     _RIGHT_ON 0E05                ??_EUSART_SetFramingErrorHandler 0073  
                                     _PIR3bits 0013                                  ??_TMR0_Reload 0071  
                                     _LIN_init 0EBD                                   _LIN_enableRx 0DBD  
                                     _TMR0_ISR 0E71      __end_of_EUSART_DefaultOverrunErrorHandler 0D9F  
          ??_EUSART_DefaultOverrunErrorHandler 0070             ?_EUSART_DefaultOverrunErrorHandler 0070  
            _EUSART_DefaultOverrunErrorHandler 0D9B                               LIN_getPacket@cmd 0079  
                       Streamer_SEG1_TEST@data 005E                            __end_of_LIN_handler 016B  
                              ??_LIN_stopTimer 0071                         ??_LIN_Slave_Initialize 0078  
                                     _Delay_ms 0F1F                         Streamer_SEG2_TEST@data 005E  
                                  _EUSART_Read 0784                                     _T250MS_cnt 003A  
                            ??_TMR2_Initialize 0071                               _LIN_getFromTable 04C8  
                          PWM_SendData@bitmask 0073                                     _T100us_cnt 0035  
                                    memcpy@tmp 0075                        ??_OSCILLATOR_Initialize 0071  
                              LED_ON@InputData 007A                            _EUSART_ErrorHandler 0024  
                  ?_EUSART_DefaultErrorHandler 0070                                     _HIBEAM_OFF 0DA7  
                            ??_PWM5_Initialize 0071                            __end_of_TMR0_Reload 0DA3  
                         __end_of_PWM_SendData 0784                                    ??_TrunLight 007A  
                         _EUSART_RxDataHandler 0ED3                                       __ptext10 0DC2  
                                     __ptext11 0D94                                       __ptext20 0DE5  
                                     __ptext12 0E4B                                       __ptext21 0DDF  
                                     __ptext13 0F70                                       __ptext30 0002  
                                     __ptext22 0DD9                                       __ptext14 07F4  
                                     __ptext31 0D8A                                       __ptext23 0DD3  
                                     __ptext15 0E56                                       __ptext40 0F3A  
                                     __ptext32 0D91                                       __ptext24 0DCD  
                                     __ptext16 0EBD                                       __ptext41 0DC7  
                                     __ptext33 0D8E                                       __ptext25 0053  
                                     __ptext17 0E13                                       __ptext50 0DA3  
                                     __ptext42 0EA7                                       __ptext34 0FA6  
                                     __ptext26 016B                                       __ptext18 0DEB  
                                     __ptext51 0E40                                       __ptext43 075E  
                                     __ptext35 0F05                                       __ptext27 0E0C  
                                     __ptext19 062C                                       __ptext60 0EEB  
                                     __ptext52 0D9F                                       __ptext44 0F1F  
                                     __ptext36 0DFE                                       __ptext28 0E05  
                                     __ptext61 04C8                                       __ptext53 045D  
                                     __ptext45 0532                                       __ptext37 0E2C  
                                     __ptext29 0F55                                       __ptext70 0E71  
                                     __ptext62 03D7                                       __ptext54 07AA  
                                     __ptext46 0DAB                                       __ptext38 0DF7  
                                     __ptext71 0E63                                       __ptext63 0E94  
                                     __ptext55 07CF                                       __ptext47 0DA7  
                                     __ptext39 034A                                       __ptext72 0D87  
                                     __ptext64 0D8B                                       __ptext56 06A3  
                                     __ptext48 0D89                                       __ptext73 0FDE  
                                     __ptext65 0784                                       __ptext57 0736  
                                     __ptext49 0D88                                       __ptext74 066A  
                                     __ptext66 0E23                                       __ptext58 0DBD  
                                     __ptext75 0D9B                                       __ptext67 0E81  
                                     __ptext59 0DB8                                       __ptext76 0D86  
                                     __ptext68 0DB3                                       __ptext77 0D97  
                                     __ptext78 0ED3                              ?_LIN_timerHandler 0070  
                      TMR0_WriteTimer@timerVal 0071                             ??_LIN_timerHandler 0070  
                            ??_TMR0_WriteTimer 0071                         LIN_getFromTable@length 0075  
                             ??_TMR0_ReadTimer 0071                                       _mode_old 0036  
         __end_of_TMR0_DefaultInterruptHandler 0D88                   _TMR0_DefaultInterruptHandler 0D87  
                      ?_EUSART_SetErrorHandler 0071                             _AutoBaud_Detect_ON 0DB3  
                          _LIN_rxCommandLength 0047  EUSART_SetOverrunErrorHandler@interruptHandler 0071  
                                  _LIN_handler 0053                                       int$flags 007E  
                                     _testmode 0266                                     _LOBEAM_OFF 0D8E  
                        Streamer_SEG1_TEST@num 005F                                _LIN_getChecksum 06A3  
           __end_of_INTERRUPT_InterruptManager 0038                     _INTERRUPT_InterruptManager 0004  
                          ?_AutoBaud_Detect_ON 0070          __end_of_EUSART_SetFramingErrorHandler 0DD9  
                _EUSART_SetFramingErrorHandler 0DD3                          Streamer_SEG2_TEST@num 005F  
                                 ??_processLIN 007C                                    _LIN_timeout 006F  
                               _LIN_calcParity 03D7                                     _INTCONbits 000B  
                        ?_EUSART_RxDataHandler 0070                                       memcpy@d1 0078  
                                     memcpy@s1 0071                                     Delay_ms@ms 0074  
                          _LIN_setTimerHandler 0E13                           ??_AutoBaud_Detect_ON 0071  
                                     intlevel1 0000                                  _CountCallBack 0045  
                      ?_PIN_MANAGER_Initialize 0070                              ??_TMR6_Initialize 0071  
               __end_of_EUSART_SetErrorHandler 0DD3                          LIN_getFromTable@param 0071  
                           __end_of_processLIN 0266           __end_of_EUSART_SetRxInterruptHandler 0DE5  
                 _EUSART_SetRxInterruptHandler 0DDF                  ?_TMR0_DefaultInterruptHandler 0070  
                           TrunLight@InputData 005D                                    _TMR0_Reload 0D9F  
                                   _LIN_packet 0050                             _EUSART_Receive_ISR 066A  
                         ?_LIN_setTimerHandler 0070  EUSART_SetFramingErrorHandler@interruptHandler 0071  
                               _LIN_breakCheck 0E94                                    ?_HIBEAM_OFF 0070  
                       __end_of_LIN_calcParity 045D                                  __pstringtext1 1000  
                           LIN_queuePacket@cmd 0063                                     _OPTION_REG 0095  
                          ?_EUSART_Receive_ISR 0070                                _TMR0_Initialize 0F8B  
                            ??_LIN_queuePacket 005F                        ?_EUSART_get_last_status 0070  
                             PWM_SendData@data 0072                             EUSART_Write@txData 0072  
               __end_of_PIN_MANAGER_Initialize 0F8B                                   main@UART_CNT 006E  
                          LIN_getFromTable@cmd 0074                               LIN_queuePacket@i 0064  
                         ??_EUSART_Receive_ISR 0071                        __end_of_LIN_getChecksum 06D6  
