

Microchip MPLAB XC8 Assembler V2.46 build 20240104201356 
                                                                                               Tue Oct 21 13:34:11 2025

Microchip MPLAB XC8 C Compiler v2.46 (Free license) build 20240104201356 Og1 
     1                           	processor	16F1936
     2                           	pagewidth 120
     3                           	opt	flic
     4                           	psect	idataBANK0,global,class=CODE,delta=2,noexec
     5                           	psect	stringtext1,global,class=STRCODE,delta=2,noexec
     6                           	psect	cinit,global,class=CODE,merge=1,delta=2
     7                           	psect	bssCOMMON,global,class=COMMON,space=1,delta=1,noexec
     8                           	psect	bssBANK0,global,class=BANK0,space=1,delta=1,noexec
     9                           	psect	dataBANK0,global,class=BANK0,space=1,delta=1,noexec
    10                           	psect	bssBANK1,global,class=BANK1,space=1,delta=1,noexec
    11                           	psect	clrtext,global,class=CODE,delta=2
    12                           	psect	cstackCOMMON,global,class=COMMON,space=1,delta=1,noexec
    13                           	psect	cstackBANK0,global,class=BANK0,space=1,delta=1,noexec
    14                           	psect	maintext,global,class=CODE,merge=1,split=1,delta=2
    15                           	psect	text1,local,class=CODE,merge=1,delta=2
    16                           	psect	text2,local,class=CODE,merge=1,delta=2
    17                           	psect	text3,local,class=CODE,merge=1,delta=2
    18                           	psect	text4,local,class=CODE,merge=1,delta=2
    19                           	psect	text5,local,class=CODE,merge=1,delta=2
    20                           	psect	text6,local,class=CODE,merge=1,delta=2
    21                           	psect	text7,local,class=CODE,merge=1,delta=2
    22                           	psect	text8,local,class=CODE,merge=1,delta=2
    23                           	psect	text9,local,class=CODE,merge=1,delta=2
    24                           	psect	text10,local,class=CODE,merge=1,delta=2
    25                           	psect	text11,local,class=CODE,merge=1,delta=2
    26                           	psect	text12,local,class=CODE,merge=1,delta=2
    27                           	psect	text13,local,class=CODE,merge=1,delta=2
    28                           	psect	text14,local,class=CODE,merge=1,delta=2
    29                           	psect	text15,local,class=CODE,merge=1,delta=2
    30                           	psect	text16,local,class=CODE,merge=1,delta=2
    31                           	psect	text17,local,class=CODE,merge=1,delta=2
    32                           	psect	text18,local,class=CODE,merge=1,delta=2
    33                           	psect	text19,local,class=CODE,merge=1,delta=2
    34                           	psect	text20,local,class=CODE,merge=1,delta=2
    35                           	psect	text21,local,class=CODE,merge=1,delta=2
    36                           	psect	text22,local,class=CODE,merge=1,delta=2
    37                           	psect	text23,local,class=CODE,merge=1,delta=2
    38                           	psect	text24,local,class=CODE,merge=1,delta=2
    39                           	psect	text25,local,class=CODE,merge=1,delta=2,group=2
    40                           	psect	text26,local,class=CODE,merge=1,delta=2
    41                           	psect	text27,local,class=CODE,merge=1,delta=2
    42                           	psect	text28,local,class=CODE,merge=1,delta=2
    43                           	psect	text29,local,class=CODE,merge=1,delta=2
    44                           	psect	text30,local,class=CODE,merge=1,delta=2
    45                           	psect	text31,local,class=CODE,merge=1,delta=2
    46                           	psect	text32,local,class=CODE,merge=1,delta=2
    47                           	psect	text33,local,class=CODE,merge=1,delta=2
    48                           	psect	text34,local,class=CODE,merge=1,delta=2
    49                           	psect	text35,local,class=CODE,merge=1,delta=2
    50                           	psect	text36,local,class=CODE,merge=1,delta=2,group=2
    51                           	psect	text37,local,class=CODE,merge=1,delta=2
    52                           	psect	text38,local,class=CODE,merge=1,delta=2
    53                           	psect	text39,local,class=CODE,merge=1,delta=2
    54                           	psect	text40,local,class=CODE,merge=1,delta=2
    55                           	psect	text41,local,class=CODE,merge=1,delta=2
    56                           	psect	text42,local,class=CODE,merge=1,delta=2
    57                           	psect	text43,local,class=CODE,merge=1,delta=2
    58                           	psect	text44,local,class=CODE,merge=1,delta=2
    59                           	psect	text45,local,class=CODE,merge=1,delta=2
    60                           	psect	text46,local,class=CODE,merge=1,delta=2
    61                           	psect	text47,local,class=CODE,merge=1,delta=2
    62                           	psect	text48,local,class=CODE,merge=1,delta=2
    63                           	psect	text49,local,class=CODE,merge=1,delta=2
    64                           	psect	text50,local,class=CODE,merge=1,delta=2
    65                           	psect	intentry,global,class=CODE,delta=2
    66                           	psect	text52,local,class=CODE,merge=1,delta=2
    67                           	psect	text53,local,class=CODE,merge=1,delta=2
    68                           	psect	text54,local,class=CODE,merge=1,delta=2
    69                           	psect	text55,local,class=CODE,merge=1,delta=2
    70                           	psect	text56,local,class=CODE,merge=1,delta=2
    71                           	psect	text57,local,class=CODE,merge=1,delta=2
    72                           	psect	text58,local,class=CODE,merge=1,delta=2
    73                           	psect	text59,local,class=CODE,merge=1,delta=2
    74                           	psect	text60,local,class=CODE,merge=1,delta=2
    75                           	psect	text61,local,class=CODE,merge=1,delta=2
    76                           	psect	idloc,global,abs,ovrld,class=IDLOC,space=5,delta=2,noexec
    77                           	psect	config,global,abs,ovrld,class=CONFIG,space=4,delta=2,noexec
    78                           	dabs	1,0x7E,2
    79     0000                     
    80                           ; Version 2.20
    81                           ; Generated 12/02/2020 GMT
    82                           ; 
    83                           ; Copyright © 2020, Microchip Technology Inc. and its subsidiaries ("Microchip")
    84                           ; All rights reserved.
    85                           ; 
    86                           ; This software is developed by Microchip Technology Inc. and its subsidiaries ("Microch
      +                          ip").
    87                           ; 
    88                           ; Redistribution and use in source and binary forms, with or without modification, are
    89                           ; permitted provided that the following conditions are met:
    90                           ; 
    91                           ;     1. Redistributions of source code must retain the above copyright notice, this lis
      +                          t of
    92                           ;        conditions and the following disclaimer.
    93                           ; 
    94                           ;     2. Redistributions in binary form must reproduce the above copyright notice, this 
      +                          list
    95                           ;        of conditions and the following disclaimer in the documentation and/or other
    96                           ;        materials provided with the distribution.
    97                           ; 
    98                           ;     3. Microchip's name may not be used to endorse or promote products derived from th
      +                          is
    99                           ;        software without specific prior written permission.
   100                           ; 
   101                           ; THIS SOFTWARE IS PROVIDED BY MICROCHIP "AS IS" AND ANY EXPRESS OR IMPLIED WARRANTIES,
   102                           ; INCLUDING, BUT NOT LIMITED TO, THE IMPLIED WARRANTIES OF MERCHANTABILITY AND FITNESS F
      +                          OR
   103                           ; PURPOSE ARE DISCLAIMED.  IN NO EVENT SHALL MICROCHIP BE LIABLE FOR ANY DIRECT, INDIREC
      +                          T,
   104                           ; INCIDENTAL, SPECIAL, EXEMPLARY, OR CONSEQUENTIAL DAMAGES (INCLUDING BUT NOT LIMITED TO
   105                           ; PROCUREMENT OF SUBSTITUTE GOODS OR SERVICES; LOSS OF USE, DATA OR PROFITS; OR BUSINESS
   106                           ; INTERRUPTION) HOWSOEVER CAUSED AND ON ANY THEORY OF LIABILITY, WHETHER IN CONTRACT, ST
      +                          RICT
   107                           ; LIABILITY, OR TORT (INCLUDING NEGLIGENCE OR OTHERWISE) ARISING IN ANY WAY OUT OF THE U
      +                          SE OF
   108                           ; THIS SOFTWARE, EVEN IF ADVISED OF THE POSSIBILITY OF SUCH DAMAGE.
   109                           ; 
   110                           ; 
   111                           ; Code-generator required, PIC16F1936 Definitions
   112                           ; 
   113                           ; SFR Addresses
   114     0000                     	;# 
   115     0001                     	;# 
   116     0002                     	;# 
   117     0003                     	;# 
   118     0004                     	;# 
   119     0005                     	;# 
   120     0006                     	;# 
   121     0007                     	;# 
   122     0008                     	;# 
   123     0009                     	;# 
   124     000A                     	;# 
   125     000B                     	;# 
   126     000C                     	;# 
   127     000D                     	;# 
   128     000E                     	;# 
   129     0010                     	;# 
   130     0011                     	;# 
   131     0012                     	;# 
   132     0013                     	;# 
   133     0015                     	;# 
   134     0016                     	;# 
   135     0016                     	;# 
   136     0017                     	;# 
   137     0018                     	;# 
   138     0019                     	;# 
   139     001A                     	;# 
   140     001B                     	;# 
   141     001C                     	;# 
   142     001E                     	;# 
   143     001F                     	;# 
   144     008C                     	;# 
   145     008D                     	;# 
   146     008E                     	;# 
   147     0090                     	;# 
   148     0091                     	;# 
   149     0092                     	;# 
   150     0093                     	;# 
   151     0095                     	;# 
   152     0096                     	;# 
   153     0097                     	;# 
   154     0098                     	;# 
   155     0099                     	;# 
   156     009A                     	;# 
   157     009B                     	;# 
   158     009B                     	;# 
   159     009C                     	;# 
   160     009D                     	;# 
   161     009E                     	;# 
   162     010C                     	;# 
   163     010D                     	;# 
   164     010E                     	;# 
   165     0110                     	;# 
   166     0111                     	;# 
   167     0112                     	;# 
   168     0113                     	;# 
   169     0114                     	;# 
   170     0115                     	;# 
   171     0116                     	;# 
   172     0117                     	;# 
   173     0118                     	;# 
   174     0119                     	;# 
   175     011A                     	;# 
   176     011B                     	;# 
   177     011D                     	;# 
   178     018C                     	;# 
   179     018D                     	;# 
   180     0191                     	;# 
   181     0191                     	;# 
   182     0192                     	;# 
   183     0193                     	;# 
   184     0193                     	;# 
   185     0193                     	;# 
   186     0194                     	;# 
   187     0195                     	;# 
   188     0196                     	;# 
   189     0199                     	;# 
   190     019A                     	;# 
   191     019B                     	;# 
   192     019B                     	;# 
   193     019B                     	;# 
   194     019B                     	;# 
   195     019C                     	;# 
   196     019C                     	;# 
   197     019D                     	;# 
   198     019E                     	;# 
   199     019F                     	;# 
   200     020D                     	;# 
   201     0210                     	;# 
   202     0211                     	;# 
   203     0212                     	;# 
   204     0213                     	;# 
   205     0214                     	;# 
   206     0215                     	;# 
   207     0215                     	;# 
   208     0216                     	;# 
   209     0217                     	;# 
   210     0291                     	;# 
   211     0291                     	;# 
   212     0292                     	;# 
   213     0293                     	;# 
   214     0294                     	;# 
   215     0295                     	;# 
   216     0295                     	;# 
   217     0296                     	;# 
   218     0298                     	;# 
   219     0298                     	;# 
   220     0299                     	;# 
   221     029A                     	;# 
   222     029B                     	;# 
   223     029C                     	;# 
   224     029C                     	;# 
   225     029D                     	;# 
   226     029E                     	;# 
   227     029F                     	;# 
   228     0311                     	;# 
   229     0311                     	;# 
   230     0312                     	;# 
   231     0313                     	;# 
   232     0314                     	;# 
   233     0315                     	;# 
   234     0315                     	;# 
   235     0316                     	;# 
   236     0318                     	;# 
   237     0318                     	;# 
   238     0319                     	;# 
   239     031A                     	;# 
   240     031C                     	;# 
   241     031C                     	;# 
   242     031D                     	;# 
   243     031E                     	;# 
   244     0394                     	;# 
   245     0395                     	;# 
   246     0396                     	;# 
   247     0415                     	;# 
   248     0416                     	;# 
   249     0417                     	;# 
   250     041C                     	;# 
   251     041D                     	;# 
   252     041E                     	;# 
   253     0791                     	;# 
   254     0792                     	;# 
   255     0793                     	;# 
   256     0794                     	;# 
   257     0795                     	;# 
   258     0798                     	;# 
   259     0799                     	;# 
   260     07A0                     	;# 
   261     07A1                     	;# 
   262     07A3                     	;# 
   263     07A4                     	;# 
   264     07A6                     	;# 
   265     07A7                     	;# 
   266     07A9                     	;# 
   267     07AA                     	;# 
   268     0FE4                     	;# 
   269     0FE5                     	;# 
   270     0FE6                     	;# 
   271     0FE7                     	;# 
   272     0FE8                     	;# 
   273     0FE9                     	;# 
   274     0FEA                     	;# 
   275     0FEB                     	;# 
   276     0FED                     	;# 
   277     0FEE                     	;# 
   278     0FEF                     	;# 
   279     0000                     	;# 
   280     0001                     	;# 
   281     0002                     	;# 
   282     0003                     	;# 
   283     0004                     	;# 
   284     0005                     	;# 
   285     0006                     	;# 
   286     0007                     	;# 
   287     0008                     	;# 
   288     0009                     	;# 
   289     000A                     	;# 
   290     000B                     	;# 
   291     000C                     	;# 
   292     000D                     	;# 
   293     000E                     	;# 
   294     0010                     	;# 
   295     0011                     	;# 
   296     0012                     	;# 
   297     0013                     	;# 
   298     0015                     	;# 
   299     0016                     	;# 
   300     0016                     	;# 
   301     0017                     	;# 
   302     0018                     	;# 
   303     0019                     	;# 
   304     001A                     	;# 
   305     001B                     	;# 
   306     001C                     	;# 
   307     001E                     	;# 
   308     001F                     	;# 
   309     008C                     	;# 
   310     008D                     	;# 
   311     008E                     	;# 
   312     0090                     	;# 
   313     0091                     	;# 
   314     0092                     	;# 
   315     0093                     	;# 
   316     0095                     	;# 
   317     0096                     	;# 
   318     0097                     	;# 
   319     0098                     	;# 
   320     0099                     	;# 
   321     009A                     	;# 
   322     009B                     	;# 
   323     009B                     	;# 
   324     009C                     	;# 
   325     009D                     	;# 
   326     009E                     	;# 
   327     010C                     	;# 
   328     010D                     	;# 
   329     010E                     	;# 
   330     0110                     	;# 
   331     0111                     	;# 
   332     0112                     	;# 
   333     0113                     	;# 
   334     0114                     	;# 
   335     0115                     	;# 
   336     0116                     	;# 
   337     0117                     	;# 
   338     0118                     	;# 
   339     0119                     	;# 
   340     011A                     	;# 
   341     011B                     	;# 
   342     011D                     	;# 
   343     018C                     	;# 
   344     018D                     	;# 
   345     0191                     	;# 
   346     0191                     	;# 
   347     0192                     	;# 
   348     0193                     	;# 
   349     0193                     	;# 
   350     0193                     	;# 
   351     0194                     	;# 
   352     0195                     	;# 
   353     0196                     	;# 
   354     0199                     	;# 
   355     019A                     	;# 
   356     019B                     	;# 
   357     019B                     	;# 
   358     019B                     	;# 
   359     019B                     	;# 
   360     019C                     	;# 
   361     019C                     	;# 
   362     019D                     	;# 
   363     019E                     	;# 
   364     019F                     	;# 
   365     020D                     	;# 
   366     0210                     	;# 
   367     0211                     	;# 
   368     0212                     	;# 
   369     0213                     	;# 
   370     0214                     	;# 
   371     0215                     	;# 
   372     0215                     	;# 
   373     0216                     	;# 
   374     0217                     	;# 
   375     0291                     	;# 
   376     0291                     	;# 
   377     0292                     	;# 
   378     0293                     	;# 
   379     0294                     	;# 
   380     0295                     	;# 
   381     0295                     	;# 
   382     0296                     	;# 
   383     0298                     	;# 
   384     0298                     	;# 
   385     0299                     	;# 
   386     029A                     	;# 
   387     029B                     	;# 
   388     029C                     	;# 
   389     029C                     	;# 
   390     029D                     	;# 
   391     029E                     	;# 
   392     029F                     	;# 
   393     0311                     	;# 
   394     0311                     	;# 
   395     0312                     	;# 
   396     0313                     	;# 
   397     0314                     	;# 
   398     0315                     	;# 
   399     0315                     	;# 
   400     0316                     	;# 
   401     0318                     	;# 
   402     0318                     	;# 
   403     0319                     	;# 
   404     031A                     	;# 
   405     031C                     	;# 
   406     031C                     	;# 
   407     031D                     	;# 
   408     031E                     	;# 
   409     0394                     	;# 
   410     0395                     	;# 
   411     0396                     	;# 
   412     0415                     	;# 
   413     0416                     	;# 
   414     0417                     	;# 
   415     041C                     	;# 
   416     041D                     	;# 
   417     041E                     	;# 
   418     0791                     	;# 
   419     0792                     	;# 
   420     0793                     	;# 
   421     0794                     	;# 
   422     0795                     	;# 
   423     0798                     	;# 
   424     0799                     	;# 
   425     07A0                     	;# 
   426     07A1                     	;# 
   427     07A3                     	;# 
   428     07A4                     	;# 
   429     07A6                     	;# 
   430     07A7                     	;# 
   431     07A9                     	;# 
   432     07AA                     	;# 
   433     0FE4                     	;# 
   434     0FE5                     	;# 
   435     0FE6                     	;# 
   436     0FE7                     	;# 
   437     0FE8                     	;# 
   438     0FE9                     	;# 
   439     0FEA                     	;# 
   440     0FEB                     	;# 
   441     0FED                     	;# 
   442     0FEE                     	;# 
   443     0FEF                     	;# 
   444     0000                     	;# 
   445     0001                     	;# 
   446     0002                     	;# 
   447     0003                     	;# 
   448     0004                     	;# 
   449     0005                     	;# 
   450     0006                     	;# 
   451     0007                     	;# 
   452     0008                     	;# 
   453     0009                     	;# 
   454     000A                     	;# 
   455     000B                     	;# 
   456     000C                     	;# 
   457     000D                     	;# 
   458     000E                     	;# 
   459     0010                     	;# 
   460     0011                     	;# 
   461     0012                     	;# 
   462     0013                     	;# 
   463     0015                     	;# 
   464     0016                     	;# 
   465     0016                     	;# 
   466     0017                     	;# 
   467     0018                     	;# 
   468     0019                     	;# 
   469     001A                     	;# 
   470     001B                     	;# 
   471     001C                     	;# 
   472     001E                     	;# 
   473     001F                     	;# 
   474     008C                     	;# 
   475     008D                     	;# 
   476     008E                     	;# 
   477     0090                     	;# 
   478     0091                     	;# 
   479     0092                     	;# 
   480     0093                     	;# 
   481     0095                     	;# 
   482     0096                     	;# 
   483     0097                     	;# 
   484     0098                     	;# 
   485     0099                     	;# 
   486     009A                     	;# 
   487     009B                     	;# 
   488     009B                     	;# 
   489     009C                     	;# 
   490     009D                     	;# 
   491     009E                     	;# 
   492     010C                     	;# 
   493     010D                     	;# 
   494     010E                     	;# 
   495     0110                     	;# 
   496     0111                     	;# 
   497     0112                     	;# 
   498     0113                     	;# 
   499     0114                     	;# 
   500     0115                     	;# 
   501     0116                     	;# 
   502     0117                     	;# 
   503     0118                     	;# 
   504     0119                     	;# 
   505     011A                     	;# 
   506     011B                     	;# 
   507     011D                     	;# 
   508     018C                     	;# 
   509     018D                     	;# 
   510     0191                     	;# 
   511     0191                     	;# 
   512     0192                     	;# 
   513     0193                     	;# 
   514     0193                     	;# 
   515     0193                     	;# 
   516     0194                     	;# 
   517     0195                     	;# 
   518     0196                     	;# 
   519     0199                     	;# 
   520     019A                     	;# 
   521     019B                     	;# 
   522     019B                     	;# 
   523     019B                     	;# 
   524     019B                     	;# 
   525     019C                     	;# 
   526     019C                     	;# 
   527     019D                     	;# 
   528     019E                     	;# 
   529     019F                     	;# 
   530     020D                     	;# 
   531     0210                     	;# 
   532     0211                     	;# 
   533     0212                     	;# 
   534     0213                     	;# 
   535     0214                     	;# 
   536     0215                     	;# 
   537     0215                     	;# 
   538     0216                     	;# 
   539     0217                     	;# 
   540     0291                     	;# 
   541     0291                     	;# 
   542     0292                     	;# 
   543     0293                     	;# 
   544     0294                     	;# 
   545     0295                     	;# 
   546     0295                     	;# 
   547     0296                     	;# 
   548     0298                     	;# 
   549     0298                     	;# 
   550     0299                     	;# 
   551     029A                     	;# 
   552     029B                     	;# 
   553     029C                     	;# 
   554     029C                     	;# 
   555     029D                     	;# 
   556     029E                     	;# 
   557     029F                     	;# 
   558     0311                     	;# 
   559     0311                     	;# 
   560     0312                     	;# 
   561     0313                     	;# 
   562     0314                     	;# 
   563     0315                     	;# 
   564     0315                     	;# 
   565     0316                     	;# 
   566     0318                     	;# 
   567     0318                     	;# 
   568     0319                     	;# 
   569     031A                     	;# 
   570     031C                     	;# 
   571     031C                     	;# 
   572     031D                     	;# 
   573     031E                     	;# 
   574     0394                     	;# 
   575     0395                     	;# 
   576     0396                     	;# 
   577     0415                     	;# 
   578     0416                     	;# 
   579     0417                     	;# 
   580     041C                     	;# 
   581     041D                     	;# 
   582     041E                     	;# 
   583     0791                     	;# 
   584     0792                     	;# 
   585     0793                     	;# 
   586     0794                     	;# 
   587     0795                     	;# 
   588     0798                     	;# 
   589     0799                     	;# 
   590     07A0                     	;# 
   591     07A1                     	;# 
   592     07A3                     	;# 
   593     07A4                     	;# 
   594     07A6                     	;# 
   595     07A7                     	;# 
   596     07A9                     	;# 
   597     07AA                     	;# 
   598     0FE4                     	;# 
   599     0FE5                     	;# 
   600     0FE6                     	;# 
   601     0FE7                     	;# 
   602     0FE8                     	;# 
   603     0FE9                     	;# 
   604     0FEA                     	;# 
   605     0FEB                     	;# 
   606     0FED                     	;# 
   607     0FEE                     	;# 
   608     0FEF                     	;# 
   609     0000                     	;# 
   610     0001                     	;# 
   611     0002                     	;# 
   612     0003                     	;# 
   613     0004                     	;# 
   614     0005                     	;# 
   615     0006                     	;# 
   616     0007                     	;# 
   617     0008                     	;# 
   618     0009                     	;# 
   619     000A                     	;# 
   620     000B                     	;# 
   621     000C                     	;# 
   622     000D                     	;# 
   623     000E                     	;# 
   624     0010                     	;# 
   625     0011                     	;# 
   626     0012                     	;# 
   627     0013                     	;# 
   628     0015                     	;# 
   629     0016                     	;# 
   630     0016                     	;# 
   631     0017                     	;# 
   632     0018                     	;# 
   633     0019                     	;# 
   634     001A                     	;# 
   635     001B                     	;# 
   636     001C                     	;# 
   637     001E                     	;# 
   638     001F                     	;# 
   639     008C                     	;# 
   640     008D                     	;# 
   641     008E                     	;# 
   642     0090                     	;# 
   643     0091                     	;# 
   644     0092                     	;# 
   645     0093                     	;# 
   646     0095                     	;# 
   647     0096                     	;# 
   648     0097                     	;# 
   649     0098                     	;# 
   650     0099                     	;# 
   651     009A                     	;# 
   652     009B                     	;# 
   653     009B                     	;# 
   654     009C                     	;# 
   655     009D                     	;# 
   656     009E                     	;# 
   657     010C                     	;# 
   658     010D                     	;# 
   659     010E                     	;# 
   660     0110                     	;# 
   661     0111                     	;# 
   662     0112                     	;# 
   663     0113                     	;# 
   664     0114                     	;# 
   665     0115                     	;# 
   666     0116                     	;# 
   667     0117                     	;# 
   668     0118                     	;# 
   669     0119                     	;# 
   670     011A                     	;# 
   671     011B                     	;# 
   672     011D                     	;# 
   673     018C                     	;# 
   674     018D                     	;# 
   675     0191                     	;# 
   676     0191                     	;# 
   677     0192                     	;# 
   678     0193                     	;# 
   679     0193                     	;# 
   680     0193                     	;# 
   681     0194                     	;# 
   682     0195                     	;# 
   683     0196                     	;# 
   684     0199                     	;# 
   685     019A                     	;# 
   686     019B                     	;# 
   687     019B                     	;# 
   688     019B                     	;# 
   689     019B                     	;# 
   690     019C                     	;# 
   691     019C                     	;# 
   692     019D                     	;# 
   693     019E                     	;# 
   694     019F                     	;# 
   695     020D                     	;# 
   696     0210                     	;# 
   697     0211                     	;# 
   698     0212                     	;# 
   699     0213                     	;# 
   700     0214                     	;# 
   701     0215                     	;# 
   702     0215                     	;# 
   703     0216                     	;# 
   704     0217                     	;# 
   705     0291                     	;# 
   706     0291                     	;# 
   707     0292                     	;# 
   708     0293                     	;# 
   709     0294                     	;# 
   710     0295                     	;# 
   711     0295                     	;# 
   712     0296                     	;# 
   713     0298                     	;# 
   714     0298                     	;# 
   715     0299                     	;# 
   716     029A                     	;# 
   717     029B                     	;# 
   718     029C                     	;# 
   719     029C                     	;# 
   720     029D                     	;# 
   721     029E                     	;# 
   722     029F                     	;# 
   723     0311                     	;# 
   724     0311                     	;# 
   725     0312                     	;# 
   726     0313                     	;# 
   727     0314                     	;# 
   728     0315                     	;# 
   729     0315                     	;# 
   730     0316                     	;# 
   731     0318                     	;# 
   732     0318                     	;# 
   733     0319                     	;# 
   734     031A                     	;# 
   735     031C                     	;# 
   736     031C                     	;# 
   737     031D                     	;# 
   738     031E                     	;# 
   739     0394                     	;# 
   740     0395                     	;# 
   741     0396                     	;# 
   742     0415                     	;# 
   743     0416                     	;# 
   744     0417                     	;# 
   745     041C                     	;# 
   746     041D                     	;# 
   747     041E                     	;# 
   748     0791                     	;# 
   749     0792                     	;# 
   750     0793                     	;# 
   751     0794                     	;# 
   752     0795                     	;# 
   753     0798                     	;# 
   754     0799                     	;# 
   755     07A0                     	;# 
   756     07A1                     	;# 
   757     07A3                     	;# 
   758     07A4                     	;# 
   759     07A6                     	;# 
   760     07A7                     	;# 
   761     07A9                     	;# 
   762     07AA                     	;# 
   763     0FE4                     	;# 
   764     0FE5                     	;# 
   765     0FE6                     	;# 
   766     0FE7                     	;# 
   767     0FE8                     	;# 
   768     0FE9                     	;# 
   769     0FEA                     	;# 
   770     0FEB                     	;# 
   771     0FED                     	;# 
   772     0FEE                     	;# 
   773     0FEF                     	;# 
   774     0000                     	;# 
   775     0001                     	;# 
   776     0002                     	;# 
   777     0003                     	;# 
   778     0004                     	;# 
   779     0005                     	;# 
   780     0006                     	;# 
   781     0007                     	;# 
   782     0008                     	;# 
   783     0009                     	;# 
   784     000A                     	;# 
   785     000B                     	;# 
   786     000C                     	;# 
   787     000D                     	;# 
   788     000E                     	;# 
   789     0010                     	;# 
   790     0011                     	;# 
   791     0012                     	;# 
   792     0013                     	;# 
   793     0015                     	;# 
   794     0016                     	;# 
   795     0016                     	;# 
   796     0017                     	;# 
   797     0018                     	;# 
   798     0019                     	;# 
   799     001A                     	;# 
   800     001B                     	;# 
   801     001C                     	;# 
   802     001E                     	;# 
   803     001F                     	;# 
   804     008C                     	;# 
   805     008D                     	;# 
   806     008E                     	;# 
   807     0090                     	;# 
   808     0091                     	;# 
   809     0092                     	;# 
   810     0093                     	;# 
   811     0095                     	;# 
   812     0096                     	;# 
   813     0097                     	;# 
   814     0098                     	;# 
   815     0099                     	;# 
   816     009A                     	;# 
   817     009B                     	;# 
   818     009B                     	;# 
   819     009C                     	;# 
   820     009D                     	;# 
   821     009E                     	;# 
   822     010C                     	;# 
   823     010D                     	;# 
   824     010E                     	;# 
   825     0110                     	;# 
   826     0111                     	;# 
   827     0112                     	;# 
   828     0113                     	;# 
   829     0114                     	;# 
   830     0115                     	;# 
   831     0116                     	;# 
   832     0117                     	;# 
   833     0118                     	;# 
   834     0119                     	;# 
   835     011A                     	;# 
   836     011B                     	;# 
   837     011D                     	;# 
   838     018C                     	;# 
   839     018D                     	;# 
   840     0191                     	;# 
   841     0191                     	;# 
   842     0192                     	;# 
   843     0193                     	;# 
   844     0193                     	;# 
   845     0193                     	;# 
   846     0194                     	;# 
   847     0195                     	;# 
   848     0196                     	;# 
   849     0199                     	;# 
   850     019A                     	;# 
   851     019B                     	;# 
   852     019B                     	;# 
   853     019B                     	;# 
   854     019B                     	;# 
   855     019C                     	;# 
   856     019C                     	;# 
   857     019D                     	;# 
   858     019E                     	;# 
   859     019F                     	;# 
   860     020D                     	;# 
   861     0210                     	;# 
   862     0211                     	;# 
   863     0212                     	;# 
   864     0213                     	;# 
   865     0214                     	;# 
   866     0215                     	;# 
   867     0215                     	;# 
   868     0216                     	;# 
   869     0217                     	;# 
   870     0291                     	;# 
   871     0291                     	;# 
   872     0292                     	;# 
   873     0293                     	;# 
   874     0294                     	;# 
   875     0295                     	;# 
   876     0295                     	;# 
   877     0296                     	;# 
   878     0298                     	;# 
   879     0298                     	;# 
   880     0299                     	;# 
   881     029A                     	;# 
   882     029B                     	;# 
   883     029C                     	;# 
   884     029C                     	;# 
   885     029D                     	;# 
   886     029E                     	;# 
   887     029F                     	;# 
   888     0311                     	;# 
   889     0311                     	;# 
   890     0312                     	;# 
   891     0313                     	;# 
   892     0314                     	;# 
   893     0315                     	;# 
   894     0315                     	;# 
   895     0316                     	;# 
   896     0318                     	;# 
   897     0318                     	;# 
   898     0319                     	;# 
   899     031A                     	;# 
   900     031C                     	;# 
   901     031C                     	;# 
   902     031D                     	;# 
   903     031E                     	;# 
   904     0394                     	;# 
   905     0395                     	;# 
   906     0396                     	;# 
   907     0415                     	;# 
   908     0416                     	;# 
   909     0417                     	;# 
   910     041C                     	;# 
   911     041D                     	;# 
   912     041E                     	;# 
   913     0791                     	;# 
   914     0792                     	;# 
   915     0793                     	;# 
   916     0794                     	;# 
   917     0795                     	;# 
   918     0798                     	;# 
   919     0799                     	;# 
   920     07A0                     	;# 
   921     07A1                     	;# 
   922     07A3                     	;# 
   923     07A4                     	;# 
   924     07A6                     	;# 
   925     07A7                     	;# 
   926     07A9                     	;# 
   927     07AA                     	;# 
   928     0FE4                     	;# 
   929     0FE5                     	;# 
   930     0FE6                     	;# 
   931     0FE7                     	;# 
   932     0FE8                     	;# 
   933     0FE9                     	;# 
   934     0FEA                     	;# 
   935     0FEB                     	;# 
   936     0FED                     	;# 
   937     0FEE                     	;# 
   938     0FEF                     	;# 
   939     0000                     	;# 
   940     0001                     	;# 
   941     0002                     	;# 
   942     0003                     	;# 
   943     0004                     	;# 
   944     0005                     	;# 
   945     0006                     	;# 
   946     0007                     	;# 
   947     0008                     	;# 
   948     0009                     	;# 
   949     000A                     	;# 
   950     000B                     	;# 
   951     000C                     	;# 
   952     000D                     	;# 
   953     000E                     	;# 
   954     0010                     	;# 
   955     0011                     	;# 
   956     0012                     	;# 
   957     0013                     	;# 
   958     0015                     	;# 
   959     0016                     	;# 
   960     0016                     	;# 
   961     0017                     	;# 
   962     0018                     	;# 
   963     0019                     	;# 
   964     001A                     	;# 
   965     001B                     	;# 
   966     001C                     	;# 
   967     001E                     	;# 
   968     001F                     	;# 
   969     008C                     	;# 
   970     008D                     	;# 
   971     008E                     	;# 
   972     0090                     	;# 
   973     0091                     	;# 
   974     0092                     	;# 
   975     0093                     	;# 
   976     0095                     	;# 
   977     0096                     	;# 
   978     0097                     	;# 
   979     0098                     	;# 
   980     0099                     	;# 
   981     009A                     	;# 
   982     009B                     	;# 
   983     009B                     	;# 
   984     009C                     	;# 
   985     009D                     	;# 
   986     009E                     	;# 
   987     010C                     	;# 
   988     010D                     	;# 
   989     010E                     	;# 
   990     0110                     	;# 
   991     0111                     	;# 
   992     0112                     	;# 
   993     0113                     	;# 
   994     0114                     	;# 
   995     0115                     	;# 
   996     0116                     	;# 
   997     0117                     	;# 
   998     0118                     	;# 
   999     0119                     	;# 
  1000     011A                     	;# 
  1001     011B                     	;# 
  1002     011D                     	;# 
  1003     018C                     	;# 
  1004     018D                     	;# 
  1005     0191                     	;# 
  1006     0191                     	;# 
  1007     0192                     	;# 
  1008     0193                     	;# 
  1009     0193                     	;# 
  1010     0193                     	;# 
  1011     0194                     	;# 
  1012     0195                     	;# 
  1013     0196                     	;# 
  1014     0199                     	;# 
  1015     019A                     	;# 
  1016     019B                     	;# 
  1017     019B                     	;# 
  1018     019B                     	;# 
  1019     019B                     	;# 
  1020     019C                     	;# 
  1021     019C                     	;# 
  1022     019D                     	;# 
  1023     019E                     	;# 
  1024     019F                     	;# 
  1025     020D                     	;# 
  1026     0210                     	;# 
  1027     0211                     	;# 
  1028     0212                     	;# 
  1029     0213                     	;# 
  1030     0214                     	;# 
  1031     0215                     	;# 
  1032     0215                     	;# 
  1033     0216                     	;# 
  1034     0217                     	;# 
  1035     0291                     	;# 
  1036     0291                     	;# 
  1037     0292                     	;# 
  1038     0293                     	;# 
  1039     0294                     	;# 
  1040     0295                     	;# 
  1041     0295                     	;# 
  1042     0296                     	;# 
  1043     0298                     	;# 
  1044     0298                     	;# 
  1045     0299                     	;# 
  1046     029A                     	;# 
  1047     029B                     	;# 
  1048     029C                     	;# 
  1049     029C                     	;# 
  1050     029D                     	;# 
  1051     029E                     	;# 
  1052     029F                     	;# 
  1053     0311                     	;# 
  1054     0311                     	;# 
  1055     0312                     	;# 
  1056     0313                     	;# 
  1057     0314                     	;# 
  1058     0315                     	;# 
  1059     0315                     	;# 
  1060     0316                     	;# 
  1061     0318                     	;# 
  1062     0318                     	;# 
  1063     0319                     	;# 
  1064     031A                     	;# 
  1065     031C                     	;# 
  1066     031C                     	;# 
  1067     031D                     	;# 
  1068     031E                     	;# 
  1069     0394                     	;# 
  1070     0395                     	;# 
  1071     0396                     	;# 
  1072     0415                     	;# 
  1073     0416                     	;# 
  1074     0417                     	;# 
  1075     041C                     	;# 
  1076     041D                     	;# 
  1077     041E                     	;# 
  1078     0791                     	;# 
  1079     0792                     	;# 
  1080     0793                     	;# 
  1081     0794                     	;# 
  1082     0795                     	;# 
  1083     0798                     	;# 
  1084     0799                     	;# 
  1085     07A0                     	;# 
  1086     07A1                     	;# 
  1087     07A3                     	;# 
  1088     07A4                     	;# 
  1089     07A6                     	;# 
  1090     07A7                     	;# 
  1091     07A9                     	;# 
  1092     07AA                     	;# 
  1093     0FE4                     	;# 
  1094     0FE5                     	;# 
  1095     0FE6                     	;# 
  1096     0FE7                     	;# 
  1097     0FE8                     	;# 
  1098     0FE9                     	;# 
  1099     0FEA                     	;# 
  1100     0FEB                     	;# 
  1101     0FED                     	;# 
  1102     0FEE                     	;# 
  1103     0FEF                     	;# 
  1104     0000                     	;# 
  1105     0001                     	;# 
  1106     0002                     	;# 
  1107     0003                     	;# 
  1108     0004                     	;# 
  1109     0005                     	;# 
  1110     0006                     	;# 
  1111     0007                     	;# 
  1112     0008                     	;# 
  1113     0009                     	;# 
  1114     000A                     	;# 
  1115     000B                     	;# 
  1116     000C                     	;# 
  1117     000D                     	;# 
  1118     000E                     	;# 
  1119     0010                     	;# 
  1120     0011                     	;# 
  1121     0012                     	;# 
  1122     0013                     	;# 
  1123     0015                     	;# 
  1124     0016                     	;# 
  1125     0016                     	;# 
  1126     0017                     	;# 
  1127     0018                     	;# 
  1128     0019                     	;# 
  1129     001A                     	;# 
  1130     001B                     	;# 
  1131     001C                     	;# 
  1132     001E                     	;# 
  1133     001F                     	;# 
  1134     008C                     	;# 
  1135     008D                     	;# 
  1136     008E                     	;# 
  1137     0090                     	;# 
  1138     0091                     	;# 
  1139     0092                     	;# 
  1140     0093                     	;# 
  1141     0095                     	;# 
  1142     0096                     	;# 
  1143     0097                     	;# 
  1144     0098                     	;# 
  1145     0099                     	;# 
  1146     009A                     	;# 
  1147     009B                     	;# 
  1148     009B                     	;# 
  1149     009C                     	;# 
  1150     009D                     	;# 
  1151     009E                     	;# 
  1152     010C                     	;# 
  1153     010D                     	;# 
  1154     010E                     	;# 
  1155     0110                     	;# 
  1156     0111                     	;# 
  1157     0112                     	;# 
  1158     0113                     	;# 
  1159     0114                     	;# 
  1160     0115                     	;# 
  1161     0116                     	;# 
  1162     0117                     	;# 
  1163     0118                     	;# 
  1164     0119                     	;# 
  1165     011A                     	;# 
  1166     011B                     	;# 
  1167     011D                     	;# 
  1168     018C                     	;# 
  1169     018D                     	;# 
  1170     0191                     	;# 
  1171     0191                     	;# 
  1172     0192                     	;# 
  1173     0193                     	;# 
  1174     0193                     	;# 
  1175     0193                     	;# 
  1176     0194                     	;# 
  1177     0195                     	;# 
  1178     0196                     	;# 
  1179     0199                     	;# 
  1180     019A                     	;# 
  1181     019B                     	;# 
  1182     019B                     	;# 
  1183     019B                     	;# 
  1184     019B                     	;# 
  1185     019C                     	;# 
  1186     019C                     	;# 
  1187     019D                     	;# 
  1188     019E                     	;# 
  1189     019F                     	;# 
  1190     020D                     	;# 
  1191     0210                     	;# 
  1192     0211                     	;# 
  1193     0212                     	;# 
  1194     0213                     	;# 
  1195     0214                     	;# 
  1196     0215                     	;# 
  1197     0215                     	;# 
  1198     0216                     	;# 
  1199     0217                     	;# 
  1200     0291                     	;# 
  1201     0291                     	;# 
  1202     0292                     	;# 
  1203     0293                     	;# 
  1204     0294                     	;# 
  1205     0295                     	;# 
  1206     0295                     	;# 
  1207     0296                     	;# 
  1208     0298                     	;# 
  1209     0298                     	;# 
  1210     0299                     	;# 
  1211     029A                     	;# 
  1212     029B                     	;# 
  1213     029C                     	;# 
  1214     029C                     	;# 
  1215     029D                     	;# 
  1216     029E                     	;# 
  1217     029F                     	;# 
  1218     0311                     	;# 
  1219     0311                     	;# 
  1220     0312                     	;# 
  1221     0313                     	;# 
  1222     0314                     	;# 
  1223     0315                     	;# 
  1224     0315                     	;# 
  1225     0316                     	;# 
  1226     0318                     	;# 
  1227     0318                     	;# 
  1228     0319                     	;# 
  1229     031A                     	;# 
  1230     031C                     	;# 
  1231     031C                     	;# 
  1232     031D                     	;# 
  1233     031E                     	;# 
  1234     0394                     	;# 
  1235     0395                     	;# 
  1236     0396                     	;# 
  1237     0415                     	;# 
  1238     0416                     	;# 
  1239     0417                     	;# 
  1240     041C                     	;# 
  1241     041D                     	;# 
  1242     041E                     	;# 
  1243     0791                     	;# 
  1244     0792                     	;# 
  1245     0793                     	;# 
  1246     0794                     	;# 
  1247     0795                     	;# 
  1248     0798                     	;# 
  1249     0799                     	;# 
  1250     07A0                     	;# 
  1251     07A1                     	;# 
  1252     07A3                     	;# 
  1253     07A4                     	;# 
  1254     07A6                     	;# 
  1255     07A7                     	;# 
  1256     07A9                     	;# 
  1257     07AA                     	;# 
  1258     0FE4                     	;# 
  1259     0FE5                     	;# 
  1260     0FE6                     	;# 
  1261     0FE7                     	;# 
  1262     0FE8                     	;# 
  1263     0FE9                     	;# 
  1264     0FEA                     	;# 
  1265     0FEB                     	;# 
  1266     0FED                     	;# 
  1267     0FEE                     	;# 
  1268     0FEF                     	;# 
  1269     0000                     	;# 
  1270     0001                     	;# 
  1271     0002                     	;# 
  1272     0003                     	;# 
  1273     0004                     	;# 
  1274     0005                     	;# 
  1275     0006                     	;# 
  1276     0007                     	;# 
  1277     0008                     	;# 
  1278     0009                     	;# 
  1279     000A                     	;# 
  1280     000B                     	;# 
  1281     000C                     	;# 
  1282     000D                     	;# 
  1283     000E                     	;# 
  1284     0010                     	;# 
  1285     0011                     	;# 
  1286     0012                     	;# 
  1287     0013                     	;# 
  1288     0015                     	;# 
  1289     0016                     	;# 
  1290     0016                     	;# 
  1291     0017                     	;# 
  1292     0018                     	;# 
  1293     0019                     	;# 
  1294     001A                     	;# 
  1295     001B                     	;# 
  1296     001C                     	;# 
  1297     001E                     	;# 
  1298     001F                     	;# 
  1299     008C                     	;# 
  1300     008D                     	;# 
  1301     008E                     	;# 
  1302     0090                     	;# 
  1303     0091                     	;# 
  1304     0092                     	;# 
  1305     0093                     	;# 
  1306     0095                     	;# 
  1307     0096                     	;# 
  1308     0097                     	;# 
  1309     0098                     	;# 
  1310     0099                     	;# 
  1311     009A                     	;# 
  1312     009B                     	;# 
  1313     009B                     	;# 
  1314     009C                     	;# 
  1315     009D                     	;# 
  1316     009E                     	;# 
  1317     010C                     	;# 
  1318     010D                     	;# 
  1319     010E                     	;# 
  1320     0110                     	;# 
  1321     0111                     	;# 
  1322     0112                     	;# 
  1323     0113                     	;# 
  1324     0114                     	;# 
  1325     0115                     	;# 
  1326     0116                     	;# 
  1327     0117                     	;# 
  1328     0118                     	;# 
  1329     0119                     	;# 
  1330     011A                     	;# 
  1331     011B                     	;# 
  1332     011D                     	;# 
  1333     018C                     	;# 
  1334     018D                     	;# 
  1335     0191                     	;# 
  1336     0191                     	;# 
  1337     0192                     	;# 
  1338     0193                     	;# 
  1339     0193                     	;# 
  1340     0193                     	;# 
  1341     0194                     	;# 
  1342     0195                     	;# 
  1343     0196                     	;# 
  1344     0199                     	;# 
  1345     019A                     	;# 
  1346     019B                     	;# 
  1347     019B                     	;# 
  1348     019B                     	;# 
  1349     019B                     	;# 
  1350     019C                     	;# 
  1351     019C                     	;# 
  1352     019D                     	;# 
  1353     019E                     	;# 
  1354     019F                     	;# 
  1355     020D                     	;# 
  1356     0210                     	;# 
  1357     0211                     	;# 
  1358     0212                     	;# 
  1359     0213                     	;# 
  1360     0214                     	;# 
  1361     0215                     	;# 
  1362     0215                     	;# 
  1363     0216                     	;# 
  1364     0217                     	;# 
  1365     0291                     	;# 
  1366     0291                     	;# 
  1367     0292                     	;# 
  1368     0293                     	;# 
  1369     0294                     	;# 
  1370     0295                     	;# 
  1371     0295                     	;# 
  1372     0296                     	;# 
  1373     0298                     	;# 
  1374     0298                     	;# 
  1375     0299                     	;# 
  1376     029A                     	;# 
  1377     029B                     	;# 
  1378     029C                     	;# 
  1379     029C                     	;# 
  1380     029D                     	;# 
  1381     029E                     	;# 
  1382     029F                     	;# 
  1383     0311                     	;# 
  1384     0311                     	;# 
  1385     0312                     	;# 
  1386     0313                     	;# 
  1387     0314                     	;# 
  1388     0315                     	;# 
  1389     0315                     	;# 
  1390     0316                     	;# 
  1391     0318                     	;# 
  1392     0318                     	;# 
  1393     0319                     	;# 
  1394     031A                     	;# 
  1395     031C                     	;# 
  1396     031C                     	;# 
  1397     031D                     	;# 
  1398     031E                     	;# 
  1399     0394                     	;# 
  1400     0395                     	;# 
  1401     0396                     	;# 
  1402     0415                     	;# 
  1403     0416                     	;# 
  1404     0417                     	;# 
  1405     041C                     	;# 
  1406     041D                     	;# 
  1407     041E                     	;# 
  1408     0791                     	;# 
  1409     0792                     	;# 
  1410     0793                     	;# 
  1411     0794                     	;# 
  1412     0795                     	;# 
  1413     0798                     	;# 
  1414     0799                     	;# 
  1415     07A0                     	;# 
  1416     07A1                     	;# 
  1417     07A3                     	;# 
  1418     07A4                     	;# 
  1419     07A6                     	;# 
  1420     07A7                     	;# 
  1421     07A9                     	;# 
  1422     07AA                     	;# 
  1423     0FE4                     	;# 
  1424     0FE5                     	;# 
  1425     0FE6                     	;# 
  1426     0FE7                     	;# 
  1427     0FE8                     	;# 
  1428     0FE9                     	;# 
  1429     0FEA                     	;# 
  1430     0FEB                     	;# 
  1431     0FED                     	;# 
  1432     0FEE                     	;# 
  1433     0FEF                     	;# 
  1434     0000                     	;# 
  1435     0001                     	;# 
  1436     0002                     	;# 
  1437     0003                     	;# 
  1438     0004                     	;# 
  1439     0005                     	;# 
  1440     0006                     	;# 
  1441     0007                     	;# 
  1442     0008                     	;# 
  1443     0009                     	;# 
  1444     000A                     	;# 
  1445     000B                     	;# 
  1446     000C                     	;# 
  1447     000D                     	;# 
  1448     000E                     	;# 
  1449     0010                     	;# 
  1450     0011                     	;# 
  1451     0012                     	;# 
  1452     0013                     	;# 
  1453     0015                     	;# 
  1454     0016                     	;# 
  1455     0016                     	;# 
  1456     0017                     	;# 
  1457     0018                     	;# 
  1458     0019                     	;# 
  1459     001A                     	;# 
  1460     001B                     	;# 
  1461     001C                     	;# 
  1462     001E                     	;# 
  1463     001F                     	;# 
  1464     008C                     	;# 
  1465     008D                     	;# 
  1466     008E                     	;# 
  1467     0090                     	;# 
  1468     0091                     	;# 
  1469     0092                     	;# 
  1470     0093                     	;# 
  1471     0095                     	;# 
  1472     0096                     	;# 
  1473     0097                     	;# 
  1474     0098                     	;# 
  1475     0099                     	;# 
  1476     009A                     	;# 
  1477     009B                     	;# 
  1478     009B                     	;# 
  1479     009C                     	;# 
  1480     009D                     	;# 
  1481     009E                     	;# 
  1482     010C                     	;# 
  1483     010D                     	;# 
  1484     010E                     	;# 
  1485     0110                     	;# 
  1486     0111                     	;# 
  1487     0112                     	;# 
  1488     0113                     	;# 
  1489     0114                     	;# 
  1490     0115                     	;# 
  1491     0116                     	;# 
  1492     0117                     	;# 
  1493     0118                     	;# 
  1494     0119                     	;# 
  1495     011A                     	;# 
  1496     011B                     	;# 
  1497     011D                     	;# 
  1498     018C                     	;# 
  1499     018D                     	;# 
  1500     0191                     	;# 
  1501     0191                     	;# 
  1502     0192                     	;# 
  1503     0193                     	;# 
  1504     0193                     	;# 
  1505     0193                     	;# 
  1506     0194                     	;# 
  1507     0195                     	;# 
  1508     0196                     	;# 
  1509     0199                     	;# 
  1510     019A                     	;# 
  1511     019B                     	;# 
  1512     019B                     	;# 
  1513     019B                     	;# 
  1514     019B                     	;# 
  1515     019C                     	;# 
  1516     019C                     	;# 
  1517     019D                     	;# 
  1518     019E                     	;# 
  1519     019F                     	;# 
  1520     020D                     	;# 
  1521     0210                     	;# 
  1522     0211                     	;# 
  1523     0212                     	;# 
  1524     0213                     	;# 
  1525     0214                     	;# 
  1526     0215                     	;# 
  1527     0215                     	;# 
  1528     0216                     	;# 
  1529     0217                     	;# 
  1530     0291                     	;# 
  1531     0291                     	;# 
  1532     0292                     	;# 
  1533     0293                     	;# 
  1534     0294                     	;# 
  1535     0295                     	;# 
  1536     0295                     	;# 
  1537     0296                     	;# 
  1538     0298                     	;# 
  1539     0298                     	;# 
  1540     0299                     	;# 
  1541     029A                     	;# 
  1542     029B                     	;# 
  1543     029C                     	;# 
  1544     029C                     	;# 
  1545     029D                     	;# 
  1546     029E                     	;# 
  1547     029F                     	;# 
  1548     0311                     	;# 
  1549     0311                     	;# 
  1550     0312                     	;# 
  1551     0313                     	;# 
  1552     0314                     	;# 
  1553     0315                     	;# 
  1554     0315                     	;# 
  1555     0316                     	;# 
  1556     0318                     	;# 
  1557     0318                     	;# 
  1558     0319                     	;# 
  1559     031A                     	;# 
  1560     031C                     	;# 
  1561     031C                     	;# 
  1562     031D                     	;# 
  1563     031E                     	;# 
  1564     0394                     	;# 
  1565     0395                     	;# 
  1566     0396                     	;# 
  1567     0415                     	;# 
  1568     0416                     	;# 
  1569     0417                     	;# 
  1570     041C                     	;# 
  1571     041D                     	;# 
  1572     041E                     	;# 
  1573     0791                     	;# 
  1574     0792                     	;# 
  1575     0793                     	;# 
  1576     0794                     	;# 
  1577     0795                     	;# 
  1578     0798                     	;# 
  1579     0799                     	;# 
  1580     07A0                     	;# 
  1581     07A1                     	;# 
  1582     07A3                     	;# 
  1583     07A4                     	;# 
  1584     07A6                     	;# 
  1585     07A7                     	;# 
  1586     07A9                     	;# 
  1587     07AA                     	;# 
  1588     0FE4                     	;# 
  1589     0FE5                     	;# 
  1590     0FE6                     	;# 
  1591     0FE7                     	;# 
  1592     0FE8                     	;# 
  1593     0FE9                     	;# 
  1594     0FEA                     	;# 
  1595     0FEB                     	;# 
  1596     0FED                     	;# 
  1597     0FEE                     	;# 
  1598     0FEF                     	;# 
  1599                           
  1600                           	psect	idataBANK0
  1601     06D3                     __pidataBANK0:
  1602                           
  1603                           ;initializer for _LIN_timeout
  1604     06D3  340A               	retlw	10
  1605                           
  1606                           	psect	stringtext1
  1607     069C                     __pstringtext1:
  1608     069C                     _scheduleTable:
  1609     069C  3401               	retlw	1
  1610     069D  3401               	retlw	1
  1611     069E  3408               	retlw	8
  1612     069F  34A8               	retlw	low (_SW_STATE_Data| 0)
  1613     06A0                     __end_of_scheduleTable:
  1614     0015                     _TMR0	set	21
  1615     0011                     _PIR1bits	set	17
  1616     000B                     _INTCONbits	set	11
  1617     0095                     _OPTION_REG	set	149
  1618     0095                     _OPTION_REGbits	set	149
  1619     008E                     _TRISC	set	142
  1620     008D                     _TRISB	set	141
  1621     008C                     _TRISA	set	140
  1622     0090                     _TRISE	set	144
  1623     0097                     _WDTCON	set	151
  1624     0098                     _OSCTUNE	set	152
  1625     0099                     _OSCCON	set	153
  1626     0091                     _PIE1bits	set	145
  1627     04D6                     _PLLR	set	1238
  1628     011D                     _APFCON	set	285
  1629     010E                     _LATC	set	270
  1630     010D                     _LATB	set	269
  1631     010C                     _LATA	set	268
  1632     0110                     _LATE	set	272
  1633     0116                     _BORCON	set	278
  1634     010E                     _LATCbits	set	270
  1635     010D                     _LATBbits	set	269
  1636     018C                     _ANSELA	set	396
  1637     018D                     _ANSELB	set	397
  1638     0199                     _RCREG	set	409
  1639     019A                     _TXREG	set	410
  1640     019C                     _SPBRGH	set	412
  1641     019B                     _SPBRGL	set	411
  1642     019E                     _TXSTA	set	414
  1643     019D                     _RCSTA	set	413
  1644     019F                     _BAUDCON	set	415
  1645     019D                     _RCSTAbits	set	413
  1646     019E                     _TXSTAbits	set	414
  1647     019F                     _BAUDCONbits	set	415
  1648     020D                     _WPUB	set	525
  1649     0210                     _WPUE	set	528
  1650                           
  1651                           	psect	cinit
  1652     003A                     start_initialization:	
  1653                           ; #config settings
  1654                           
  1655     003A                     __initialization:
  1656                           
  1657                           ; Initialize objects allocated to BANK0
  1658     003A  3186  26D3  3180   	fcall	__pidataBANK0	;fetch initializer
  1659     003D  00E8               	movwf	__pdataBANK0& (0+127)
  1660                           
  1661                           ; Clear objects allocated to COMMON
  1662     003E  01FB               	clrf	__pbssCOMMON& (0+127)
  1663     003F  01FC               	clrf	(__pbssCOMMON+1)& (0+127)
  1664                           
  1665                           ; Clear objects allocated to BANK0
  1666     0040  3020               	movlw	low __pbssBANK0
  1667     0041  0084               	movwf	4
  1668     0042  3000               	movlw	high __pbssBANK0
  1669     0043  0085               	movwf	5
  1670     0044  303C               	movlw	60
  1671     0045  3186  2654  3180   	fcall	clear_ram0
  1672                           
  1673                           ; Clear objects allocated to BANK1
  1674     0048  30A0               	movlw	low __pbssBANK1
  1675     0049  0084               	movwf	4
  1676     004A  3000               	movlw	high __pbssBANK1
  1677     004B  0085               	movwf	5
  1678     004C  3010               	movlw	16
  1679     004D  3186  2654  3180   	fcall	clear_ram0
  1680     0050                     end_of_initialization:	
  1681                           ;End of C runtime variable initialization code
  1682                           
  1683     0050                     __end_of__initialization:
  1684     0050  107E               	bcf	int$flags,0	;clear compiler interrupt flag (level 1)
  1685     0051  0020               	movlb	0
  1686     0052  3186  2E0F         	ljmp	_main	;jump to C main() function
  1687                           
  1688                           	psect	bssCOMMON
  1689     007B                     __pbssCOMMON:
  1690     007B                     _eusartRxTail:
  1691     007B                     	ds	1
  1692     007C                     _eusartRxHead:
  1693     007C                     	ds	1
  1694                           
  1695                           	psect	bssBANK0
  1696     0020                     __pbssBANK0:
  1697     0020                     _eusartRxStatusBuffer:
  1698     0020                     	ds	8
  1699     0028                     _eusartTxBuffer:
  1700     0028                     	ds	8
  1701     0030                     _TMR0_InterruptHandler:
  1702     0030                     	ds	2
  1703     0032                     _EUSART_ErrorHandler:
  1704     0032                     	ds	2
  1705     0034                     _EUSART_OverrunErrorHandler:
  1706     0034                     	ds	2
  1707     0036                     _EUSART_FramingErrorHandler:
  1708     0036                     	ds	2
  1709     0038                     _EUSART_RxDefaultInterruptHandler:
  1710     0038                     	ds	2
  1711     003A                     _EUSART_TxDefaultInterruptHandler:
  1712     003A                     	ds	2
  1713     003C                     _LIN_rxCommand:
  1714     003C                     	ds	2
  1715     003E                     _LIN_processData:
  1716     003E                     	ds	2
  1717     0040                     _timer0ReloadVal:
  1718     0040                     	ds	1
  1719     0041                     _eusartRxLastError:
  1720     0041                     	ds	1
  1721     0042                     _eusartRxCount:
  1722     0042                     	ds	1
  1723     0043                     _eusartTxBufferRemaining:
  1724     0043                     	ds	1
  1725     0044                     _eusartTxTail:
  1726     0044                     	ds	1
  1727     0045                     _eusartTxHead:
  1728     0045                     	ds	1
  1729     0046                     LIN_handler@rxDataIndex:
  1730     0046                     	ds	1
  1731     0047                     LIN_handler@LIN_rxState:
  1732     0047                     	ds	1
  1733     0048                     _CountCallBack:
  1734     0048                     	ds	1
  1735     0049                     _LIN_timerRunning:
  1736     0049                     	ds	1
  1737     004A                     _LIN_rxCommandLength:
  1738     004A                     	ds	1
  1739     004B                     _LIN_rxInProgress:
  1740     004B                     	ds	1
  1741     004C                     _lampFlags:
  1742     004C                     	ds	1
  1743     004D                     _fLock:
  1744     004D                     	ds	1
  1745     004E                     _lampState:
  1746     004E                     	ds	1
  1747     004F                     _LIN_packet:
  1748     004F                     	ds	13
  1749                           
  1750                           	psect	dataBANK0
  1751     0068                     __pdataBANK0:
  1752     0068                     _LIN_timeout:
  1753     0068                     	ds	1
  1754                           
  1755                           	psect	bssBANK1
  1756     00A0                     __pbssBANK1:
  1757     00A0                     _eusartRxBuffer:
  1758     00A0                     	ds	8
  1759     00A8                     _SW_STATE_Data:
  1760     00A8                     	ds	8
  1761                           
  1762                           	psect	clrtext
  1763     0654                     clear_ram0:	
  1764                           ;	Called with FSR0 containing the base address, and
  1765                           ;	WREG with the size to clear
  1766                           
  1767     0654  0064               	clrwdt	;clear the watchdog before getting into this loop
  1768     0655                     clrloop0:
  1769     0655  0180               	clrf	0	;clear RAM location pointed to by FSR
  1770     0656  3101               	addfsr 0,1
  1771     0657  0B89               	decfsz	9,f	;Have we reached the end of clearing yet?
  1772     0658  2E55               	goto	clrloop0	;have we reached the end yet?
  1773     0659  3400               	retlw	0	;all done for this memory range, return
  1774                           
  1775                           	psect	cstackCOMMON
  1776     0070                     __pcstackCOMMON:
  1777     0070                     ?_SYSTEM_Initialize:
  1778     0070                     ?_LIN_handler:	
  1779                           ; 1 bytes @ 0x0
  1780                           
  1781     0070                     ?_processLIN:	
  1782                           ; 1 bytes @ 0x0
  1783                           
  1784     0070                     ?_LIN_getPacket:	
  1785                           ; 1 bytes @ 0x0
  1786                           
  1787     0070                     ?_LIN_stopTimer:	
  1788                           ; 1 bytes @ 0x0
  1789                           
  1790     0070                     ?_LIN_enableRx:	
  1791                           ; 1 bytes @ 0x0
  1792                           
  1793     0070                     ?_LIN_setTimerHandler:	
  1794                           ; 1 bytes @ 0x0
  1795                           
  1796     0070                     ?_EUSART_is_rx_ready:	
  1797                           ; 1 bytes @ 0x0
  1798                           
  1799     0070                     ?_LIN_startTimer:	
  1800                           ; 1 bytes @ 0x0
  1801                           
  1802     0070                     ?_LIN_breakCheck:	
  1803                           ; 1 bytes @ 0x0
  1804                           
  1805     0070                     ?_EUSART_Read:	
  1806                           ; 1 bytes @ 0x0
  1807                           
  1808     0070                     ?_LIN_checkPID:	
  1809                           ; 1 bytes @ 0x0
  1810                           
  1811     0070                     ?_LIN_disableRx:	
  1812                           ; 1 bytes @ 0x0
  1813                           
  1814     0070                     ?_EUSART_Write:	
  1815                           ; 1 bytes @ 0x0
  1816                           
  1817     0070                     ?_LIN_calcParity:	
  1818                           ; 1 bytes @ 0x0
  1819                           
  1820     0070                     ?_TMR0_WriteTimer:	
  1821                           ; 1 bytes @ 0x0
  1822                           
  1823     0070                     ?_EUSART_get_last_status:	
  1824                           ; 1 bytes @ 0x0
  1825                           
  1826     0070                     ?_EUSART_Receive_ISR:	
  1827                           ; 1 bytes @ 0x0
  1828                           
  1829     0070                     ?_EUSART_Transmit_ISR:	
  1830                           ; 1 bytes @ 0x0
  1831                           
  1832     0070                     ??_EUSART_Transmit_ISR:	
  1833                           ; 1 bytes @ 0x0
  1834                           
  1835     0070                     ?_EUSART_DefaultFramingErrorHandler:	
  1836                           ; 1 bytes @ 0x0
  1837                           
  1838     0070                     ??_EUSART_DefaultFramingErrorHandler:	
  1839                           ; 1 bytes @ 0x0
  1840                           
  1841     0070                     ?_EUSART_DefaultOverrunErrorHandler:	
  1842                           ; 1 bytes @ 0x0
  1843                           
  1844     0070                     ??_EUSART_DefaultOverrunErrorHandler:	
  1845                           ; 1 bytes @ 0x0
  1846                           
  1847     0070                     ?_EUSART_DefaultErrorHandler:	
  1848                           ; 1 bytes @ 0x0
  1849                           
  1850     0070                     ?_EUSART_RxDataHandler:	
  1851                           ; 1 bytes @ 0x0
  1852                           
  1853     0070                     ??_EUSART_RxDataHandler:	
  1854                           ; 1 bytes @ 0x0
  1855                           
  1856     0070                     ?_TMR0_ISR:	
  1857                           ; 1 bytes @ 0x0
  1858                           
  1859     0070                     ?_PIN_MANAGER_Initialize:	
  1860                           ; 1 bytes @ 0x0
  1861                           
  1862     0070                     ?_OSCILLATOR_Initialize:	
  1863                           ; 1 bytes @ 0x0
  1864                           
  1865     0070                     ?_WDT_Initialize:	
  1866                           ; 1 bytes @ 0x0
  1867                           
  1868     0070                     ?_TMR0_Initialize:	
  1869                           ; 1 bytes @ 0x0
  1870                           
  1871     0070                     ?_TMR0_DefaultInterruptHandler:	
  1872                           ; 1 bytes @ 0x0
  1873                           
  1874     0070                     ??_TMR0_DefaultInterruptHandler:	
  1875                           ; 1 bytes @ 0x0
  1876                           
  1877     0070                     ?_AutoBaud_Detect_ON:	
  1878                           ; 1 bytes @ 0x0
  1879                           
  1880     0070                     ?_AutoBaud_Detect:	
  1881                           ; 1 bytes @ 0x0
  1882                           
  1883     0070                     ?_main:	
  1884                           ; 1 bytes @ 0x0
  1885                           
  1886     0070                     ?_POS_ON:	
  1887                           ; 1 bytes @ 0x0
  1888                           
  1889     0070                     ?_POS_OFF:	
  1890                           ; 1 bytes @ 0x0
  1891                           
  1892     0070                     ?_DRL_ON:	
  1893                           ; 1 bytes @ 0x0
  1894                           
  1895     0070                     ?_DRL_OFF:	
  1896                           ; 1 bytes @ 0x0
  1897                           
  1898     0070                     ?_LOBEAM_ON:	
  1899                           ; 1 bytes @ 0x0
  1900                           
  1901     0070                     ?_LOBEAM_OFF:	
  1902                           ; 1 bytes @ 0x0
  1903                           
  1904     0070                     ?_HIBEAM_ON:	
  1905                           ; 1 bytes @ 0x0
  1906                           
  1907     0070                     ?_HIBEAM_OFF:	
  1908                           ; 1 bytes @ 0x0
  1909                           
  1910     0070                     ?_LEFT_ON:	
  1911                           ; 1 bytes @ 0x0
  1912                           
  1913     0070                     ?_LEFT_OFF:	
  1914                           ; 1 bytes @ 0x0
  1915                           
  1916     0070                     ?_RIGHT_ON:	
  1917                           ; 1 bytes @ 0x0
  1918                           
  1919     0070                     ?_RIGHT_OFF:	
  1920                           ; 1 bytes @ 0x0
  1921                           
  1922     0070                     ?_LIN_Slave_Initialize:	
  1923                           ; 1 bytes @ 0x0
  1924                           
  1925     0070                     ?_LIN_queuePacket:	
  1926                           ; 1 bytes @ 0x0
  1927                           
  1928     0070                     ?_LIN_timerHandler:	
  1929                           ; 1 bytes @ 0x0
  1930                           
  1931     0070                     ??_LIN_timerHandler:	
  1932                           ; 1 bytes @ 0x0
  1933                           
  1934     0070                     ?_EUSART_Initialize:	
  1935                           ; 1 bytes @ 0x0
  1936                           
  1937     0070                     ?_INTERRUPT_InterruptManager:	
  1938                           ; 1 bytes @ 0x0
  1939                           
  1940     0070                     ?i1_LIN_stopTimer:	
  1941                           ; 1 bytes @ 0x0
  1942                           
  1943     0070                     ??i1_LIN_stopTimer:	
  1944                           ; 1 bytes @ 0x0
  1945                           
  1946                           
  1947                           ; 1 bytes @ 0x0
  1948     0070                     	ds	1
  1949     0071                     ??_LIN_stopTimer:
  1950     0071                     ??_LIN_enableRx:	
  1951                           ; 1 bytes @ 0x1
  1952                           
  1953     0071                     ?_memcpy:	
  1954                           ; 1 bytes @ 0x1
  1955                           
  1956     0071                     ?_LIN_getChecksum:	
  1957                           ; 1 bytes @ 0x1
  1958                           
  1959     0071                     ??_EUSART_is_rx_ready:	
  1960                           ; 1 bytes @ 0x1
  1961                           
  1962     0071                     ??_EUSART_Read:	
  1963                           ; 1 bytes @ 0x1
  1964                           
  1965     0071                     ?_LIN_getFromTable:	
  1966                           ; 1 bytes @ 0x1
  1967                           
  1968     0071                     ??_LIN_disableRx:	
  1969                           ; 1 bytes @ 0x1
  1970                           
  1971     0071                     ?_memset:	
  1972                           ; 1 bytes @ 0x1
  1973                           
  1974     0071                     ??_EUSART_Write:	
  1975                           ; 1 bytes @ 0x1
  1976                           
  1977     0071                     ??_LIN_calcParity:	
  1978                           ; 1 bytes @ 0x1
  1979                           
  1980     0071                     ??_TMR0_WriteTimer:	
  1981                           ; 1 bytes @ 0x1
  1982                           
  1983     0071                     ?_TMR0_SetInterruptHandler:	
  1984                           ; 1 bytes @ 0x1
  1985                           
  1986     0071                     ??_EUSART_get_last_status:	
  1987                           ; 1 bytes @ 0x1
  1988                           
  1989     0071                     ?_EUSART_SetRxInterruptHandler:	
  1990                           ; 1 bytes @ 0x1
  1991                           
  1992     0071                     ??_EUSART_Receive_ISR:	
  1993                           ; 1 bytes @ 0x1
  1994                           
  1995     0071                     ?_EUSART_SetTxInterruptHandler:	
  1996                           ; 1 bytes @ 0x1
  1997                           
  1998     0071                     ?_EUSART_SetFramingErrorHandler:	
  1999                           ; 1 bytes @ 0x1
  2000                           
  2001     0071                     ?_EUSART_SetOverrunErrorHandler:	
  2002                           ; 1 bytes @ 0x1
  2003                           
  2004     0071                     ?_EUSART_SetErrorHandler:	
  2005                           ; 1 bytes @ 0x1
  2006                           
  2007     0071                     ??_EUSART_DefaultErrorHandler:	
  2008                           ; 1 bytes @ 0x1
  2009                           
  2010     0071                     ??_TMR0_ISR:	
  2011                           ; 1 bytes @ 0x1
  2012                           
  2013     0071                     ??_PIN_MANAGER_Initialize:	
  2014                           ; 1 bytes @ 0x1
  2015                           
  2016     0071                     ??_OSCILLATOR_Initialize:	
  2017                           ; 1 bytes @ 0x1
  2018                           
  2019     0071                     ??_WDT_Initialize:	
  2020                           ; 1 bytes @ 0x1
  2021                           
  2022     0071                     ??_AutoBaud_Detect_ON:	
  2023                           ; 1 bytes @ 0x1
  2024                           
  2025     0071                     ??_AutoBaud_Detect:	
  2026                           ; 1 bytes @ 0x1
  2027                           
  2028     0071                     ??_POS_ON:	
  2029                           ; 1 bytes @ 0x1
  2030                           
  2031     0071                     ??_POS_OFF:	
  2032                           ; 1 bytes @ 0x1
  2033                           
  2034     0071                     ??_DRL_ON:	
  2035                           ; 1 bytes @ 0x1
  2036                           
  2037     0071                     ??_DRL_OFF:	
  2038                           ; 1 bytes @ 0x1
  2039                           
  2040     0071                     ??_LOBEAM_ON:	
  2041                           ; 1 bytes @ 0x1
  2042                           
  2043     0071                     ??_LOBEAM_OFF:	
  2044                           ; 1 bytes @ 0x1
  2045                           
  2046     0071                     ??_HIBEAM_ON:	
  2047                           ; 1 bytes @ 0x1
  2048                           
  2049     0071                     ??_HIBEAM_OFF:	
  2050                           ; 1 bytes @ 0x1
  2051                           
  2052     0071                     ??_LEFT_ON:	
  2053                           ; 1 bytes @ 0x1
  2054                           
  2055     0071                     ??_LEFT_OFF:	
  2056                           ; 1 bytes @ 0x1
  2057                           
  2058     0071                     ??_RIGHT_ON:	
  2059                           ; 1 bytes @ 0x1
  2060                           
  2061     0071                     ??_RIGHT_OFF:	
  2062                           ; 1 bytes @ 0x1
  2063                           
  2064     0071                     ??_INTERRUPT_InterruptManager:	
  2065                           ; 1 bytes @ 0x1
  2066                           
  2067     0071                     LIN_getFromTable@param:	
  2068                           ; 1 bytes @ 0x1
  2069                           
  2070     0071                     LIN_getChecksum@pid:	
  2071                           ; 1 bytes @ 0x1
  2072                           
  2073     0071                     TMR0_WriteTimer@timerVal:	
  2074                           ; 1 bytes @ 0x1
  2075                           
  2076     0071                     memcpy@s1:	
  2077                           ; 1 bytes @ 0x1
  2078                           
  2079     0071                     EUSART_SetFramingErrorHandler@interruptHandler:	
  2080                           ; 1 bytes @ 0x1
  2081                           
  2082     0071                     EUSART_SetOverrunErrorHandler@interruptHandler:	
  2083                           ; 2 bytes @ 0x1
  2084                           
  2085     0071                     EUSART_SetErrorHandler@interruptHandler:	
  2086                           ; 2 bytes @ 0x1
  2087                           
  2088     0071                     EUSART_SetTxInterruptHandler@interruptHandler:	
  2089                           ; 2 bytes @ 0x1
  2090                           
  2091     0071                     EUSART_SetRxInterruptHandler@interruptHandler:	
  2092                           ; 2 bytes @ 0x1
  2093                           
  2094     0071                     TMR0_SetInterruptHandler@InterruptHandler:	
  2095                           ; 2 bytes @ 0x1
  2096                           
  2097     0071                     memset@c:	
  2098                           ; 2 bytes @ 0x1
  2099                           
  2100                           
  2101                           ; 2 bytes @ 0x1
  2102     0071                     	ds	1
  2103     0072                     ??_LIN_startTimer:
  2104     0072                     ??_LIN_getFromTable:	
  2105                           ; 1 bytes @ 0x2
  2106                           
  2107     0072                     LIN_calcParity@CMD:	
  2108                           ; 1 bytes @ 0x2
  2109                           
  2110     0072                     LIN_getChecksum@data:	
  2111                           ; 1 bytes @ 0x2
  2112                           
  2113     0072                     LIN_startTimer@timeout:	
  2114                           ; 1 bytes @ 0x2
  2115                           
  2116     0072                     EUSART_Read@readValue:	
  2117                           ; 1 bytes @ 0x2
  2118                           
  2119     0072                     EUSART_Write@txData:	
  2120                           ; 1 bytes @ 0x2
  2121                           
  2122     0072                     memcpy@n:	
  2123                           ; 1 bytes @ 0x2
  2124                           
  2125                           
  2126                           ; 2 bytes @ 0x2
  2127     0072                     	ds	1
  2128     0073                     ?_LIN_init:
  2129     0073                     ??_LIN_setTimerHandler:	
  2130                           ; 1 bytes @ 0x3
  2131                           
  2132     0073                     ??_LIN_getChecksum:	
  2133                           ; 1 bytes @ 0x3
  2134                           
  2135     0073                     ??_LIN_breakCheck:	
  2136                           ; 1 bytes @ 0x3
  2137                           
  2138     0073                     ??_TMR0_SetInterruptHandler:	
  2139                           ; 1 bytes @ 0x3
  2140                           
  2141     0073                     ??_EUSART_SetRxInterruptHandler:	
  2142                           ; 1 bytes @ 0x3
  2143                           
  2144     0073                     ??_EUSART_SetTxInterruptHandler:	
  2145                           ; 1 bytes @ 0x3
  2146                           
  2147     0073                     ??_EUSART_SetFramingErrorHandler:	
  2148                           ; 1 bytes @ 0x3
  2149                           
  2150     0073                     ??_EUSART_SetOverrunErrorHandler:	
  2151                           ; 1 bytes @ 0x3
  2152                           
  2153     0073                     ??_EUSART_SetErrorHandler:	
  2154                           ; 1 bytes @ 0x3
  2155                           
  2156     0073                     ??_TMR0_Initialize:	
  2157                           ; 1 bytes @ 0x3
  2158                           
  2159     0073                     ??_EUSART_Initialize:	
  2160                           ; 1 bytes @ 0x3
  2161                           
  2162     0073                     LIN_calcParity@PID:	
  2163                           ; 1 bytes @ 0x3
  2164                           
  2165     0073                     LIN_init@command:	
  2166                           ; 1 bytes @ 0x3
  2167                           
  2168     0073                     memset@n:	
  2169                           ; 2 bytes @ 0x3
  2170                           
  2171                           
  2172                           ; 2 bytes @ 0x3
  2173     0073                     	ds	1
  2174     0074                     ??_memcpy:
  2175     0074                     LIN_getFromTable@cmd:	
  2176                           ; 1 bytes @ 0x4
  2177                           
  2178                           
  2179                           ; 1 bytes @ 0x4
  2180     0074                     	ds	1
  2181     0075                     ??_memset:
  2182     0075                     LIN_getFromTable@length:	
  2183                           ; 1 bytes @ 0x5
  2184                           
  2185     0075                     LIN_getChecksum@length:	
  2186                           ; 1 bytes @ 0x5
  2187                           
  2188     0075                     memcpy@tmp:	
  2189                           ; 1 bytes @ 0x5
  2190                           
  2191     0075                     LIN_init@processData:	
  2192                           ; 1 bytes @ 0x5
  2193                           
  2194                           
  2195                           ; 2 bytes @ 0x5
  2196     0075                     	ds	1
  2197     0076                     LIN_getChecksum@i:
  2198     0076                     memcpy@d:	
  2199                           ; 1 bytes @ 0x6
  2200                           
  2201     0076                     memset@p:	
  2202                           ; 1 bytes @ 0x6
  2203                           
  2204     0076                     LIN_getFromTable@rxCommand:	
  2205                           ; 1 bytes @ 0x6
  2206                           
  2207                           
  2208                           ; 2 bytes @ 0x6
  2209     0076                     	ds	1
  2210     0077                     ??_LIN_init:
  2211     0077                     LIN_init@tableLength:	
  2212                           ; 1 bytes @ 0x7
  2213                           
  2214     0077                     memcpy@s:	
  2215                           ; 1 bytes @ 0x7
  2216                           
  2217     0077                     memset@dest:	
  2218                           ; 1 bytes @ 0x7
  2219                           
  2220     0077                     LIN_getChecksum@checksum:	
  2221                           ; 1 bytes @ 0x7
  2222                           
  2223                           
  2224                           ; 2 bytes @ 0x7
  2225     0077                     	ds	1
  2226     0078                     ??_SYSTEM_Initialize:
  2227     0078                     ??_LIN_checkPID:	
  2228                           ; 1 bytes @ 0x8
  2229                           
  2230     0078                     ??_LIN_Slave_Initialize:	
  2231                           ; 1 bytes @ 0x8
  2232                           
  2233     0078                     LIN_checkPID@pid:	
  2234                           ; 1 bytes @ 0x8
  2235                           
  2236     0078                     memcpy@d1:	
  2237                           ; 1 bytes @ 0x8
  2238                           
  2239                           
  2240                           ; 1 bytes @ 0x8
  2241     0078                     	ds	1
  2242     0079                     ??_LIN_getPacket:
  2243     0079                     ?_LIN_sendPacket:	
  2244                           ; 1 bytes @ 0x9
  2245                           
  2246     0079                     LIN_sendPacket@pid:	
  2247                           ; 1 bytes @ 0x9
  2248                           
  2249     0079                     LIN_getPacket@cmd:	
  2250                           ; 1 bytes @ 0x9
  2251                           
  2252                           
  2253                           ; 1 bytes @ 0x9
  2254     0079                     	ds	1
  2255     007A                     LIN_sendPacket@data:
  2256     007A                     LIN_getPacket@data:	
  2257                           ; 1 bytes @ 0xA
  2258                           
  2259                           
  2260                           ; 1 bytes @ 0xA
  2261     007A                     	ds	1
  2262     007B                     ??_processLIN:
  2263     007B                     ??_main:	
  2264                           ; 1 bytes @ 0xB
  2265                           
  2266                           
  2267                           	psect	cstackBANK0
  2268     005C                     __pcstackBANK0:	
  2269                           ; 1 bytes @ 0xB
  2270                           
  2271     005C                     ??_LIN_sendPacket:
  2272     005C                     processLIN@cmd:	
  2273                           ; 1 bytes @ 0x0
  2274                           
  2275                           
  2276                           ; 1 bytes @ 0x0
  2277     005C                     	ds	1
  2278     005D                     LIN_sendPacket@length:
  2279     005D                     processLIN@tempRxData:	
  2280                           ; 1 bytes @ 0x1
  2281                           
  2282                           
  2283                           ; 8 bytes @ 0x1
  2284     005D                     	ds	1
  2285     005E                     LIN_sendPacket@i:
  2286                           
  2287                           ; 1 bytes @ 0x2
  2288     005E                     	ds	1
  2289     005F                     ??_LIN_queuePacket:
  2290                           
  2291                           ; 1 bytes @ 0x3
  2292     005F                     	ds	2
  2293     0061                     LIN_queuePacket@cmd:
  2294                           
  2295                           ; 1 bytes @ 0x5
  2296     0061                     	ds	1
  2297     0062                     LIN_queuePacket@i:
  2298                           
  2299                           ; 1 bytes @ 0x6
  2300     0062                     	ds	1
  2301     0063                     LIN_queuePacket@tempSchedule:
  2302                           
  2303                           ; 2 bytes @ 0x7
  2304     0063                     	ds	2
  2305     0065                     ??_LIN_handler:
  2306                           
  2307                           ; 1 bytes @ 0x9
  2308     0065                     	ds	3
  2309                           
  2310                           	psect	maintext
  2311     060F                     __pmaintext:	
  2312 ;;
  2313 ;;Main: autosize = 0, tempsize = 0, incstack = 0, save=0
  2314 ;;
  2315 ;; *************** function _main *****************
  2316 ;; Defined at:
  2317 ;;		line 153 in file "D:\yiming\00work\FR743_B101L_RX01.X\main.c"
  2318 ;; Parameters:    Size  Location     Type
  2319 ;;		None
  2320 ;; Auto vars:     Size  Location     Type
  2321 ;;		None
  2322 ;; Return value:  Size  Location     Type
  2323 ;;                  1    wreg      void 
  2324 ;; Registers used:
  2325 ;;		wreg, fsr0l, fsr0h, fsr1l, fsr1h, status,2, status,0, pclath, cstack
  2326 ;; Tracked objects:
  2327 ;;		On entry : B1F/0
  2328 ;;		On exit  : 0/0
  2329 ;;		Unchanged: 0/0
  2330 ;; Data sizes:     COMMON   BANK0   BANK1   BANK2   BANK3   BANK4   BANK5   BANK6
  2331 ;;      Params:         0       0       0       0       0       0       0       0
  2332 ;;      Locals:         0       0       0       0       0       0       0       0
  2333 ;;      Temps:          0       0       0       0       0       0       0       0
  2334 ;;      Totals:         0       0       0       0       0       0       0       0
  2335 ;;Total ram usage:        0 bytes
  2336 ;; Hardware stack levels required when called: 9
  2337 ;; This function calls:
  2338 ;;		_AutoBaud_Detect
  2339 ;;		_LIN_handler
  2340 ;;		_SYSTEM_Initialize
  2341 ;; This function is called by:
  2342 ;;		Startup code after reset
  2343 ;; This function uses a non-reentrant model
  2344 ;;
  2345                           
  2346     060F                     _main:	
  2347                           ;psect for function _main
  2348                           
  2349     060F                     l2692:	
  2350                           ;incstack = 0
  2351                           ; Regs used in _main: [wreg-fsr1h+status,2+status,0+pclath+cstack]
  2352                           
  2353                           
  2354                           ;D:\yiming\00work\FR743_B101L_RX01.X\main.c: 156:   SYSTEM_Initialize();
  2355     060F  3185  25B7  3186   	fcall	_SYSTEM_Initialize
  2356     0612                     l2694:
  2357                           
  2358                           ;D:\yiming\00work\FR743_B101L_RX01.X\main.c: 157:   AutoBaud_Detect();
  2359     0612  3185  25DD  3186   	fcall	_AutoBaud_Detect
  2360     0615                     l2696:
  2361                           
  2362                           ;D:\yiming\00work\FR743_B101L_RX01.X\main.c: 163:   (INTCONbits.GIE = 1);
  2363     0615  178B               	bsf	11,7	;volatile
  2364     0616                     l2698:
  2365                           
  2366                           ;D:\yiming\00work\FR743_B101L_RX01.X\main.c: 166:   (INTCONbits.PEIE = 1);
  2367     0616  170B               	bsf	11,6	;volatile
  2368     0617                     l2700:
  2369                           
  2370                           ;D:\yiming\00work\FR743_B101L_RX01.X\main.c: 176:     LIN_handler();
  2371     0617  3180  2054  3186   	fcall	_LIN_handler
  2372     061A  2E17               	goto	l2700
  2373     061B  3180  2838         	ljmp	start
  2374     061D                     __end_of_main:
  2375                           
  2376                           	psect	text1
  2377     05B7                     __ptext1:	
  2378 ;; *************** function _SYSTEM_Initialize *****************
  2379 ;; Defined at:
  2380 ;;		line 50 in file "D:\yiming\00work\FR743_B101L_RX01.X\mcc_generated_files\mcc.c"
  2381 ;; Parameters:    Size  Location     Type
  2382 ;;		None
  2383 ;; Auto vars:     Size  Location     Type
  2384 ;;		None
  2385 ;; Return value:  Size  Location     Type
  2386 ;;                  1    wreg      void 
  2387 ;; Registers used:
  2388 ;;		wreg, status,2, status,0, pclath, cstack
  2389 ;; Tracked objects:
  2390 ;;		On entry : 0/0
  2391 ;;		On exit  : 0/0
  2392 ;;		Unchanged: 0/0
  2393 ;; Data sizes:     COMMON   BANK0   BANK1   BANK2   BANK3   BANK4   BANK5   BANK6
  2394 ;;      Params:         0       0       0       0       0       0       0       0
  2395 ;;      Locals:         0       0       0       0       0       0       0       0
  2396 ;;      Temps:          0       0       0       0       0       0       0       0
  2397 ;;      Totals:         0       0       0       0       0       0       0       0
  2398 ;;Total ram usage:        0 bytes
  2399 ;; Hardware stack levels used: 1
  2400 ;; Hardware stack levels required when called: 8
  2401 ;; This function calls:
  2402 ;;		_EUSART_Initialize
  2403 ;;		_LIN_Slave_Initialize
  2404 ;;		_OSCILLATOR_Initialize
  2405 ;;		_PIN_MANAGER_Initialize
  2406 ;;		_TMR0_Initialize
  2407 ;;		_WDT_Initialize
  2408 ;; This function is called by:
  2409 ;;		_main
  2410 ;; This function uses a non-reentrant model
  2411 ;;
  2412                           
  2413     05B7                     _SYSTEM_Initialize:	
  2414                           ;psect for function _SYSTEM_Initialize
  2415                           
  2416     05B7                     l2324:	
  2417                           ;incstack = 0
  2418                           ; Regs used in _SYSTEM_Initialize: [wreg+status,2+status,0+pclath+cstack]
  2419                           
  2420                           
  2421                           ;D:\yiming\00work\FR743_B101L_RX01.X\mcc_generated_files\mcc.c: 53:     PIN_MANAGER_Init
      +                          ialize();
  2422     05B7  3185  2527  3185   	fcall	_PIN_MANAGER_Initialize
  2423                           
  2424                           ;D:\yiming\00work\FR743_B101L_RX01.X\mcc_generated_files\mcc.c: 54:     OSCILLATOR_Initi
      +                          alize();
  2425     05BA  3186  2637  3185   	fcall	_OSCILLATOR_Initialize
  2426                           
  2427                           ;D:\yiming\00work\FR743_B101L_RX01.X\mcc_generated_files\mcc.c: 55:     WDT_Initialize()
      +                          ;
  2428     05BD  3186  26A0  3185   	fcall	_WDT_Initialize
  2429                           
  2430                           ;D:\yiming\00work\FR743_B101L_RX01.X\mcc_generated_files\mcc.c: 56:     TMR0_Initialize(
      +                          );
  2431     05C0  3185  25A3  3185   	fcall	_TMR0_Initialize
  2432                           
  2433                           ;D:\yiming\00work\FR743_B101L_RX01.X\mcc_generated_files\mcc.c: 57:     EUSART_Initializ
      +                          e();
  2434     05C3  3183  23A7  3185   	fcall	_EUSART_Initialize
  2435                           
  2436                           ;D:\yiming\00work\FR743_B101L_RX01.X\mcc_generated_files\mcc.c: 58:     LIN_Slave_Initia
      +                          lize();
  2437     05C6  3186  261D  3185   	fcall	_LIN_Slave_Initialize
  2438     05C9                     l531:
  2439     05C9  0008               	return
  2440     05CA                     __end_of_SYSTEM_Initialize:
  2441                           
  2442                           	psect	text2
  2443     06A0                     __ptext2:	
  2444 ;; *************** function _WDT_Initialize *****************
  2445 ;; Defined at:
  2446 ;;		line 75 in file "D:\yiming\00work\FR743_B101L_RX01.X\mcc_generated_files\mcc.c"
  2447 ;; Parameters:    Size  Location     Type
  2448 ;;		None
  2449 ;; Auto vars:     Size  Location     Type
  2450 ;;		None
  2451 ;; Return value:  Size  Location     Type
  2452 ;;                  1    wreg      void 
  2453 ;; Registers used:
  2454 ;;		wreg
  2455 ;; Tracked objects:
  2456 ;;		On entry : 0/0
  2457 ;;		On exit  : 0/0
  2458 ;;		Unchanged: 0/0
  2459 ;; Data sizes:     COMMON   BANK0   BANK1   BANK2   BANK3   BANK4   BANK5   BANK6
  2460 ;;      Params:         0       0       0       0       0       0       0       0
  2461 ;;      Locals:         0       0       0       0       0       0       0       0
  2462 ;;      Temps:          0       0       0       0       0       0       0       0
  2463 ;;      Totals:         0       0       0       0       0       0       0       0
  2464 ;;Total ram usage:        0 bytes
  2465 ;; Hardware stack levels used: 1
  2466 ;; Hardware stack levels required when called: 4
  2467 ;; This function calls:
  2468 ;;		Nothing
  2469 ;; This function is called by:
  2470 ;;		_SYSTEM_Initialize
  2471 ;; This function uses a non-reentrant model
  2472 ;;
  2473                           
  2474     06A0                     _WDT_Initialize:	
  2475                           ;psect for function _WDT_Initialize
  2476                           
  2477     06A0                     l1662:	
  2478                           ;incstack = 0
  2479                           ; Regs used in _WDT_Initialize: [wreg]
  2480                           
  2481                           
  2482                           ;D:\yiming\00work\FR743_B101L_RX01.X\mcc_generated_files\mcc.c: 78:     WDTCON = 0x16;
  2483     06A0  3016               	movlw	22
  2484     06A1  0021               	movlb	1	; select bank1
  2485     06A2  0097               	movwf	23	;volatile
  2486     06A3                     l540:
  2487     06A3  0008               	return
  2488     06A4                     __end_of_WDT_Initialize:
  2489                           
  2490                           	psect	text3
  2491     05A3                     __ptext3:	
  2492 ;; *************** function _TMR0_Initialize *****************
  2493 ;; Defined at:
  2494 ;;		line 64 in file "D:\yiming\00work\FR743_B101L_RX01.X\mcc_generated_files\tmr0.c"
  2495 ;; Parameters:    Size  Location     Type
  2496 ;;		None
  2497 ;; Auto vars:     Size  Location     Type
  2498 ;;		None
  2499 ;; Return value:  Size  Location     Type
  2500 ;;                  1    wreg      void 
  2501 ;; Registers used:
  2502 ;;		wreg, status,2, status,0, pclath, cstack
  2503 ;; Tracked objects:
  2504 ;;		On entry : 0/0
  2505 ;;		On exit  : 0/0
  2506 ;;		Unchanged: 0/0
  2507 ;; Data sizes:     COMMON   BANK0   BANK1   BANK2   BANK3   BANK4   BANK5   BANK6
  2508 ;;      Params:         0       0       0       0       0       0       0       0
  2509 ;;      Locals:         0       0       0       0       0       0       0       0
  2510 ;;      Temps:          0       0       0       0       0       0       0       0
  2511 ;;      Totals:         0       0       0       0       0       0       0       0
  2512 ;;Total ram usage:        0 bytes
  2513 ;; Hardware stack levels used: 1
  2514 ;; Hardware stack levels required when called: 5
  2515 ;; This function calls:
  2516 ;;		_TMR0_SetInterruptHandler
  2517 ;; This function is called by:
  2518 ;;		_SYSTEM_Initialize
  2519 ;; This function uses a non-reentrant model
  2520 ;;
  2521                           
  2522     05A3                     _TMR0_Initialize:	
  2523                           ;psect for function _TMR0_Initialize
  2524                           
  2525     05A3                     l2312:	
  2526                           ;incstack = 0
  2527                           ; Regs used in _TMR0_Initialize: [wreg+status,2+status,0+pclath+cstack]
  2528                           
  2529                           
  2530                           ;D:\yiming\00work\FR743_B101L_RX01.X\mcc_generated_files\tmr0.c: 69:     OPTION_REG = (u
      +                          int8_t)((OPTION_REG & 0xC0) | (0xD4 & 0x3F));
  2531     05A3  0021               	movlb	1	; select bank1
  2532     05A4  0815               	movf	21,w	;volatile
  2533     05A5  39C0               	andlw	192
  2534     05A6  3814               	iorlw	20
  2535     05A7  0095               	movwf	21	;volatile
  2536     05A8                     l2314:
  2537                           
  2538                           ;D:\yiming\00work\FR743_B101L_RX01.X\mcc_generated_files\tmr0.c: 72:     TMR0 = 0x06;
  2539     05A8  3006               	movlw	6
  2540     05A9  0020               	movlb	0	; select bank0
  2541     05AA  0095               	movwf	21	;volatile
  2542     05AB                     l2316:
  2543                           
  2544                           ;D:\yiming\00work\FR743_B101L_RX01.X\mcc_generated_files\tmr0.c: 75:     timer0ReloadVal
      +                          = 6;
  2545     05AB  3006               	movlw	6
  2546     05AC  00C0               	movwf	_timer0ReloadVal	;volatile
  2547     05AD                     l2318:
  2548                           
  2549                           ;D:\yiming\00work\FR743_B101L_RX01.X\mcc_generated_files\tmr0.c: 78:     INTCONbits.TMR0
      +                          IF = 0;
  2550     05AD  110B               	bcf	11,2	;volatile
  2551     05AE                     l2320:
  2552                           
  2553                           ;D:\yiming\00work\FR743_B101L_RX01.X\mcc_generated_files\tmr0.c: 81:     INTCONbits.TMR0
      +                          IE = 1;
  2554     05AE  168B               	bsf	11,5	;volatile
  2555     05AF                     l2322:
  2556                           
  2557                           ;D:\yiming\00work\FR743_B101L_RX01.X\mcc_generated_files\tmr0.c: 84:     TMR0_SetInterru
      +                          ptHandler(TMR0_DefaultInterruptHandler);
  2558     05AF  30D4               	movlw	low _TMR0_DefaultInterruptHandler
  2559     05B0  00F1               	movwf	TMR0_SetInterruptHandler@InterruptHandler
  2560     05B1  3006               	movlw	high _TMR0_DefaultInterruptHandler
  2561     05B2  00F2               	movwf	TMR0_SetInterruptHandler@InterruptHandler+1
  2562     05B3  3186  265A  3185   	fcall	_TMR0_SetInterruptHandler
  2563     05B6                     l591:
  2564     05B6  0008               	return
  2565     05B7                     __end_of_TMR0_Initialize:
  2566                           
  2567                           	psect	text4
  2568     0527                     __ptext4:	
  2569 ;; *************** function _PIN_MANAGER_Initialize *****************
  2570 ;; Defined at:
  2571 ;;		line 55 in file "D:\yiming\00work\FR743_B101L_RX01.X\mcc_generated_files\pin_manager.c"
  2572 ;; Parameters:    Size  Location     Type
  2573 ;;		None
  2574 ;; Auto vars:     Size  Location     Type
  2575 ;;		None
  2576 ;; Return value:  Size  Location     Type
  2577 ;;                  1    wreg      void 
  2578 ;; Registers used:
  2579 ;;		wreg, status,2
  2580 ;; Tracked objects:
  2581 ;;		On entry : 0/0
  2582 ;;		On exit  : 0/0
  2583 ;;		Unchanged: 0/0
  2584 ;; Data sizes:     COMMON   BANK0   BANK1   BANK2   BANK3   BANK4   BANK5   BANK6
  2585 ;;      Params:         0       0       0       0       0       0       0       0
  2586 ;;      Locals:         0       0       0       0       0       0       0       0
  2587 ;;      Temps:          0       0       0       0       0       0       0       0
  2588 ;;      Totals:         0       0       0       0       0       0       0       0
  2589 ;;Total ram usage:        0 bytes
  2590 ;; Hardware stack levels used: 1
  2591 ;; Hardware stack levels required when called: 4
  2592 ;; This function calls:
  2593 ;;		Nothing
  2594 ;; This function is called by:
  2595 ;;		_SYSTEM_Initialize
  2596 ;; This function uses a non-reentrant model
  2597 ;;
  2598                           
  2599     0527                     _PIN_MANAGER_Initialize:	
  2600                           ;psect for function _PIN_MANAGER_Initialize
  2601                           
  2602     0527                     l1636:	
  2603                           ;incstack = 0
  2604                           ; Regs used in _PIN_MANAGER_Initialize: [wreg+status,2]
  2605                           
  2606                           
  2607                           ;D:\yiming\00work\FR743_B101L_RX01.X\mcc_generated_files\pin_manager.c: 60:     LATE = 0
      +                          x00;
  2608     0527  0022               	movlb	2	; select bank2
  2609     0528  0190               	clrf	16	;volatile
  2610                           
  2611                           ;D:\yiming\00work\FR743_B101L_RX01.X\mcc_generated_files\pin_manager.c: 61:     LATA = 0
      +                          x00;
  2612     0529  018C               	clrf	12	;volatile
  2613                           
  2614                           ;D:\yiming\00work\FR743_B101L_RX01.X\mcc_generated_files\pin_manager.c: 62:     LATB = 0
      +                          x00;
  2615     052A  018D               	clrf	13	;volatile
  2616                           
  2617                           ;D:\yiming\00work\FR743_B101L_RX01.X\mcc_generated_files\pin_manager.c: 63:     LATC = 0
      +                          x00;
  2618     052B  018E               	clrf	14	;volatile
  2619     052C                     l1638:
  2620                           
  2621                           ;D:\yiming\00work\FR743_B101L_RX01.X\mcc_generated_files\pin_manager.c: 68:     TRISE = 
      +                          0x08;
  2622     052C  3008               	movlw	8
  2623     052D  0021               	movlb	1	; select bank1
  2624     052E  0090               	movwf	16	;volatile
  2625     052F                     l1640:
  2626                           
  2627                           ;D:\yiming\00work\FR743_B101L_RX01.X\mcc_generated_files\pin_manager.c: 69:     TRISA = 
      +                          0xFF;
  2628     052F  30FF               	movlw	255
  2629     0530  008C               	movwf	12	;volatile
  2630     0531                     l1642:
  2631                           
  2632                           ;D:\yiming\00work\FR743_B101L_RX01.X\mcc_generated_files\pin_manager.c: 70:     TRISB = 
      +                          0xC0;
  2633     0531  30C0               	movlw	192
  2634     0532  008D               	movwf	13	;volatile
  2635     0533                     l1644:
  2636                           
  2637                           ;D:\yiming\00work\FR743_B101L_RX01.X\mcc_generated_files\pin_manager.c: 71:     TRISC = 
      +                          0xAF;
  2638     0533  30AF               	movlw	175
  2639     0534  008E               	movwf	14	;volatile
  2640                           
  2641                           ;D:\yiming\00work\FR743_B101L_RX01.X\mcc_generated_files\pin_manager.c: 76:     ANSELB =
      +                           0x00;
  2642     0535  0023               	movlb	3	; select bank3
  2643     0536  018D               	clrf	13	;volatile
  2644     0537                     l1646:
  2645                           
  2646                           ;D:\yiming\00work\FR743_B101L_RX01.X\mcc_generated_files\pin_manager.c: 77:     ANSELA =
      +                           0x3F;
  2647     0537  303F               	movlw	63
  2648     0538  008C               	movwf	12	;volatile
  2649     0539                     l1648:
  2650                           
  2651                           ;D:\yiming\00work\FR743_B101L_RX01.X\mcc_generated_files\pin_manager.c: 82:     WPUE = 0
      +                          x00;
  2652     0539  0024               	movlb	4	; select bank4
  2653     053A  0190               	clrf	16	;volatile
  2654     053B                     l1650:
  2655                           
  2656                           ;D:\yiming\00work\FR743_B101L_RX01.X\mcc_generated_files\pin_manager.c: 83:     WPUB = 0
      +                          x00;
  2657     053B  018D               	clrf	13	;volatile
  2658     053C                     l1652:
  2659                           
  2660                           ;D:\yiming\00work\FR743_B101L_RX01.X\mcc_generated_files\pin_manager.c: 84:     OPTION_R
      +                          EGbits.nWPUEN = 1;
  2661     053C  0021               	movlb	1	; select bank1
  2662     053D  1795               	bsf	21,7	;volatile
  2663     053E                     l1654:
  2664                           
  2665                           ;D:\yiming\00work\FR743_B101L_RX01.X\mcc_generated_files\pin_manager.c: 90:     APFCON =
      +                           0x00;
  2666     053E  0022               	movlb	2	; select bank2
  2667     053F  019D               	clrf	29	;volatile
  2668     0540                     l571:
  2669     0540  0008               	return
  2670     0541                     __end_of_PIN_MANAGER_Initialize:
  2671                           
  2672                           	psect	text5
  2673     0637                     __ptext5:	
  2674 ;; *************** function _OSCILLATOR_Initialize *****************
  2675 ;; Defined at:
  2676 ;;		line 61 in file "D:\yiming\00work\FR743_B101L_RX01.X\mcc_generated_files\mcc.c"
  2677 ;; Parameters:    Size  Location     Type
  2678 ;;		None
  2679 ;; Auto vars:     Size  Location     Type
  2680 ;;		None
  2681 ;; Return value:  Size  Location     Type
  2682 ;;                  1    wreg      void 
  2683 ;; Registers used:
  2684 ;;		wreg, status,2
  2685 ;; Tracked objects:
  2686 ;;		On entry : 0/0
  2687 ;;		On exit  : 0/0
  2688 ;;		Unchanged: 0/0
  2689 ;; Data sizes:     COMMON   BANK0   BANK1   BANK2   BANK3   BANK4   BANK5   BANK6
  2690 ;;      Params:         0       0       0       0       0       0       0       0
  2691 ;;      Locals:         0       0       0       0       0       0       0       0
  2692 ;;      Temps:          0       0       0       0       0       0       0       0
  2693 ;;      Totals:         0       0       0       0       0       0       0       0
  2694 ;;Total ram usage:        0 bytes
  2695 ;; Hardware stack levels used: 1
  2696 ;; Hardware stack levels required when called: 4
  2697 ;; This function calls:
  2698 ;;		Nothing
  2699 ;; This function is called by:
  2700 ;;		_SYSTEM_Initialize
  2701 ;; This function uses a non-reentrant model
  2702 ;;
  2703                           
  2704     0637                     _OSCILLATOR_Initialize:	
  2705                           ;psect for function _OSCILLATOR_Initialize
  2706                           
  2707     0637                     l1656:	
  2708                           ;incstack = 0
  2709                           ; Regs used in _OSCILLATOR_Initialize: [wreg+status,2]
  2710                           
  2711                           
  2712                           ;D:\yiming\00work\FR743_B101L_RX01.X\mcc_generated_files\mcc.c: 64:     OSCCON = 0x70;
  2713     0637  3070               	movlw	112
  2714     0638  0021               	movlb	1	; select bank1
  2715     0639  0099               	movwf	25	;volatile
  2716     063A                     l1658:
  2717                           
  2718                           ;D:\yiming\00work\FR743_B101L_RX01.X\mcc_generated_files\mcc.c: 66:     OSCTUNE = 0x00;
  2719     063A  0198               	clrf	24	;volatile
  2720     063B                     l1660:
  2721                           
  2722                           ;D:\yiming\00work\FR743_B101L_RX01.X\mcc_generated_files\mcc.c: 68:     BORCON = 0x00;
  2723     063B  0022               	movlb	2	; select bank2
  2724     063C  0196               	clrf	22	;volatile
  2725     063D                     l534:	
  2726                           ;D:\yiming\00work\FR743_B101L_RX01.X\mcc_generated_files\mcc.c: 71:     {;D:\yiming\00wo
      +                          rk\FR743_B101L_RX01.X\mcc_generated_files\mcc.c: 72:     }
  2727                           
  2728                           
  2729                           ;D:\yiming\00work\FR743_B101L_RX01.X\mcc_generated_files\mcc.c: 70:     while(PLLR == 0)
  2730     063D  0021               	movlb	1	; select bank1
  2731     063E  1F1A               	btfss	26,6	;volatile
  2732     063F  2E41               	goto	u711
  2733     0640  2E42               	goto	u710
  2734     0641                     u711:
  2735     0641  2E3D               	goto	l534
  2736     0642                     u710:
  2737     0642                     l537:
  2738     0642  0008               	return
  2739     0643                     __end_of_OSCILLATOR_Initialize:
  2740                           
  2741                           	psect	text6
  2742     061D                     __ptext6:	
  2743 ;; *************** function _LIN_Slave_Initialize *****************
  2744 ;; Defined at:
  2745 ;;		line 147 in file "D:\yiming\00work\FR743_B101L_RX01.X\mcc_generated_files\LINDrivers\lin_app.c"
  2746 ;; Parameters:    Size  Location     Type
  2747 ;;		None
  2748 ;; Auto vars:     Size  Location     Type
  2749 ;;		None
  2750 ;; Return value:  Size  Location     Type
  2751 ;;                  1    wreg      void 
  2752 ;; Registers used:
  2753 ;;		wreg, status,2, status,0, pclath, cstack
  2754 ;; Tracked objects:
  2755 ;;		On entry : 0/0
  2756 ;;		On exit  : 0/0
  2757 ;;		Unchanged: 0/0
  2758 ;; Data sizes:     COMMON   BANK0   BANK1   BANK2   BANK3   BANK4   BANK5   BANK6
  2759 ;;      Params:         0       0       0       0       0       0       0       0
  2760 ;;      Locals:         0       0       0       0       0       0       0       0
  2761 ;;      Temps:          0       0       0       0       0       0       0       0
  2762 ;;      Totals:         0       0       0       0       0       0       0       0
  2763 ;;Total ram usage:        0 bytes
  2764 ;; Hardware stack levels used: 1
  2765 ;; Hardware stack levels required when called: 7
  2766 ;; This function calls:
  2767 ;;		_LIN_init
  2768 ;; This function is called by:
  2769 ;;		_SYSTEM_Initialize
  2770 ;; This function uses a non-reentrant model
  2771 ;;
  2772                           
  2773     061D                     _LIN_Slave_Initialize:	
  2774                           ;psect for function _LIN_Slave_Initialize
  2775                           
  2776     061D                     l2104:	
  2777                           ;incstack = 0
  2778                           ; Regs used in _LIN_Slave_Initialize: [wreg+status,2+status,0+pclath+cstack]
  2779                           
  2780                           
  2781                           ;D:\yiming\00work\FR743_B101L_RX01.X\mcc_generated_files\LINDrivers\lin_app.c: 149:   LI
      +                          N_init((sizeof(scheduleTable)/sizeof(lin_rx_cmd_t)), scheduleTable, processLIN);
  2782     061D  309C               	movlw	low (_scheduleTable| (0+32768))
  2783     061E  00F3               	movwf	LIN_init@command
  2784     061F  3086               	movlw	high (_scheduleTable| (0+32768))
  2785     0620  00F4               	movwf	LIN_init@command+1
  2786     0621  307F               	movlw	low _processLIN
  2787     0622  00F5               	movwf	LIN_init@processData
  2788     0623  3001               	movlw	high _processLIN
  2789     0624  00F6               	movwf	LIN_init@processData+1
  2790     0625  3001               	movlw	1
  2791     0626  3185  258D  3186   	fcall	_LIN_init
  2792     0629                     l115:
  2793     0629  0008               	return
  2794     062A                     __end_of_LIN_Slave_Initialize:
  2795                           
  2796                           	psect	text7
  2797     058D                     __ptext7:	
  2798 ;; *************** function _LIN_init *****************
  2799 ;; Defined at:
  2800 ;;		line 60 in file "D:\yiming\00work\FR743_B101L_RX01.X\mcc_generated_files\LINDrivers\lin_slave.c"
  2801 ;; Parameters:    Size  Location     Type
  2802 ;;  tableLength     1    wreg     unsigned char 
  2803 ;;  command         2    3[COMMON] const PTR const struct .
  2804 ;;		 -> scheduleTable(4), 
  2805 ;;  processData     2    5[COMMON] PTR FTN()void 
  2806 ;;		 -> processLIN(1), 
  2807 ;; Auto vars:     Size  Location     Type
  2808 ;;  tableLength     1    7[COMMON] unsigned char 
  2809 ;; Return value:  Size  Location     Type
  2810 ;;                  1    wreg      void 
  2811 ;; Registers used:
  2812 ;;		wreg, status,2, status,0, pclath, cstack
  2813 ;; Tracked objects:
  2814 ;;		On entry : 0/0
  2815 ;;		On exit  : 0/0
  2816 ;;		Unchanged: 0/0
  2817 ;; Data sizes:     COMMON   BANK0   BANK1   BANK2   BANK3   BANK4   BANK5   BANK6
  2818 ;;      Params:         4       0       0       0       0       0       0       0
  2819 ;;      Locals:         1       0       0       0       0       0       0       0
  2820 ;;      Temps:          0       0       0       0       0       0       0       0
  2821 ;;      Totals:         5       0       0       0       0       0       0       0
  2822 ;;Total ram usage:        5 bytes
  2823 ;; Hardware stack levels used: 1
  2824 ;; Hardware stack levels required when called: 6
  2825 ;; This function calls:
  2826 ;;		_LIN_enableRx
  2827 ;;		_LIN_setTimerHandler
  2828 ;;		_LIN_stopTimer
  2829 ;; This function is called by:
  2830 ;;		_LIN_Slave_Initialize
  2831 ;; This function uses a non-reentrant model
  2832 ;;
  2833                           
  2834     058D                     _LIN_init:	
  2835                           ;psect for function _LIN_init
  2836                           
  2837                           
  2838                           ;incstack = 0
  2839                           ; Regs used in _LIN_init: [wreg+status,2+status,0+pclath+cstack]
  2840                           ;LIN_init@tableLength stored from wreg
  2841     058D  00F7               	movwf	LIN_init@tableLength
  2842     058E                     l1968:
  2843                           
  2844                           ;D:\yiming\00work\FR743_B101L_RX01.X\mcc_generated_files\LINDrivers\lin_slave.c: 61:    
      +                           LIN_rxCommand = command;
  2845     058E  0874               	movf	LIN_init@command+1,w
  2846     058F  0020               	movlb	0	; select bank0
  2847     0590  00BD               	movwf	_LIN_rxCommand+1
  2848     0591  0873               	movf	LIN_init@command,w
  2849     0592  00BC               	movwf	_LIN_rxCommand
  2850                           
  2851                           ;D:\yiming\00work\FR743_B101L_RX01.X\mcc_generated_files\LINDrivers\lin_slave.c: 62:    
      +                           LIN_rxCommandLength = tableLength;
  2852     0593  0877               	movf	LIN_init@tableLength,w
  2853     0594  00CA               	movwf	_LIN_rxCommandLength
  2854                           
  2855                           ;D:\yiming\00work\FR743_B101L_RX01.X\mcc_generated_files\LINDrivers\lin_slave.c: 63:    
      +                           LIN_processData = processData;
  2856     0595  0876               	movf	LIN_init@processData+1,w
  2857     0596  00BF               	movwf	_LIN_processData+1
  2858     0597  0875               	movf	LIN_init@processData,w
  2859     0598  00BE               	movwf	_LIN_processData
  2860     0599                     l1970:
  2861                           
  2862                           ;D:\yiming\00work\FR743_B101L_RX01.X\mcc_generated_files\LINDrivers\lin_slave.c: 64:    
      +                           LIN_stopTimer();
  2863     0599  3186  267E  3185   	fcall	_LIN_stopTimer
  2864     059C                     l1972:
  2865                           
  2866                           ;D:\yiming\00work\FR743_B101L_RX01.X\mcc_generated_files\LINDrivers\lin_slave.c: 65:    
      +                           LIN_enableRx();
  2867     059C  3186  2688  3185   	fcall	_LIN_enableRx
  2868     059F                     l1974:
  2869                           
  2870                           ;D:\yiming\00work\FR743_B101L_RX01.X\mcc_generated_files\LINDrivers\lin_slave.c: 66:    
      +                           LIN_setTimerHandler();
  2871     059F  3186  264C  3185   	fcall	_LIN_setTimerHandler
  2872     05A2                     l222:
  2873     05A2  0008               	return
  2874     05A3                     __end_of_LIN_init:
  2875                           
  2876                           	psect	text8
  2877     064C                     __ptext8:	
  2878 ;; *************** function _LIN_setTimerHandler *****************
  2879 ;; Defined at:
  2880 ;;		line 314 in file "D:\yiming\00work\FR743_B101L_RX01.X\mcc_generated_files\LINDrivers\lin_slave.c"
  2881 ;; Parameters:    Size  Location     Type
  2882 ;;		None
  2883 ;; Auto vars:     Size  Location     Type
  2884 ;;		None
  2885 ;; Return value:  Size  Location     Type
  2886 ;;                  1    wreg      void 
  2887 ;; Registers used:
  2888 ;;		wreg, status,2, status,0, pclath, cstack
  2889 ;; Tracked objects:
  2890 ;;		On entry : 0/0
  2891 ;;		On exit  : 0/0
  2892 ;;		Unchanged: 0/0
  2893 ;; Data sizes:     COMMON   BANK0   BANK1   BANK2   BANK3   BANK4   BANK5   BANK6
  2894 ;;      Params:         0       0       0       0       0       0       0       0
  2895 ;;      Locals:         0       0       0       0       0       0       0       0
  2896 ;;      Temps:          0       0       0       0       0       0       0       0
  2897 ;;      Totals:         0       0       0       0       0       0       0       0
  2898 ;;Total ram usage:        0 bytes
  2899 ;; Hardware stack levels used: 1
  2900 ;; Hardware stack levels required when called: 5
  2901 ;; This function calls:
  2902 ;;		_TMR0_SetInterruptHandler
  2903 ;; This function is called by:
  2904 ;;		_LIN_init
  2905 ;; This function uses a non-reentrant model
  2906 ;;
  2907                           
  2908     064C                     _LIN_setTimerHandler:	
  2909                           ;psect for function _LIN_setTimerHandler
  2910                           
  2911     064C                     l1912:	
  2912                           ;incstack = 0
  2913                           ; Regs used in _LIN_setTimerHandler: [wreg+status,2+status,0+pclath+cstack]
  2914                           
  2915                           
  2916                           ;D:\yiming\00work\FR743_B101L_RX01.X\mcc_generated_files\LINDrivers\lin_slave.c: 315:   
      +                            TMR0_SetInterruptHandler(LIN_timerHandler);
  2917     064C  3000               	movlw	low _LIN_timerHandler
  2918     064D  00F1               	movwf	TMR0_SetInterruptHandler@InterruptHandler
  2919     064E  3006               	movlw	high _LIN_timerHandler
  2920     064F  00F2               	movwf	TMR0_SetInterruptHandler@InterruptHandler+1
  2921     0650  3186  265A  3186   	fcall	_TMR0_SetInterruptHandler
  2922     0653                     l316:
  2923     0653  0008               	return
  2924     0654                     __end_of_LIN_setTimerHandler:
  2925                           
  2926                           	psect	text9
  2927     065A                     __ptext9:	
  2928 ;; *************** function _TMR0_SetInterruptHandler *****************
  2929 ;; Defined at:
  2930 ;;		line 125 in file "D:\yiming\00work\FR743_B101L_RX01.X\mcc_generated_files\tmr0.c"
  2931 ;; Parameters:    Size  Location     Type
  2932 ;;  InterruptHan    2    1[COMMON] PTR FTN()void 
  2933 ;;		 -> TMR0_DefaultInterruptHandler(1), LIN_timerHandler(1), 
  2934 ;; Auto vars:     Size  Location     Type
  2935 ;;		None
  2936 ;; Return value:  Size  Location     Type
  2937 ;;                  1    wreg      void 
  2938 ;; Registers used:
  2939 ;;		wreg
  2940 ;; Tracked objects:
  2941 ;;		On entry : 0/0
  2942 ;;		On exit  : 0/0
  2943 ;;		Unchanged: 0/0
  2944 ;; Data sizes:     COMMON   BANK0   BANK1   BANK2   BANK3   BANK4   BANK5   BANK6
  2945 ;;      Params:         2       0       0       0       0       0       0       0
  2946 ;;      Locals:         0       0       0       0       0       0       0       0
  2947 ;;      Temps:          0       0       0       0       0       0       0       0
  2948 ;;      Totals:         2       0       0       0       0       0       0       0
  2949 ;;Total ram usage:        2 bytes
  2950 ;; Hardware stack levels used: 1
  2951 ;; Hardware stack levels required when called: 4
  2952 ;; This function calls:
  2953 ;;		Nothing
  2954 ;; This function is called by:
  2955 ;;		_LIN_setTimerHandler
  2956 ;;		_TMR0_Initialize
  2957 ;; This function uses a non-reentrant model
  2958 ;;
  2959                           
  2960     065A                     _TMR0_SetInterruptHandler:	
  2961                           ;psect for function _TMR0_SetInterruptHandler
  2962                           
  2963     065A                     l1904:	
  2964                           ;incstack = 0
  2965                           ; Regs used in _TMR0_SetInterruptHandler: [wreg]
  2966                           
  2967                           
  2968                           ;D:\yiming\00work\FR743_B101L_RX01.X\mcc_generated_files\tmr0.c: 126:     TMR0_Interrupt
      +                          Handler = InterruptHandler;
  2969     065A  0872               	movf	TMR0_SetInterruptHandler@InterruptHandler+1,w
  2970     065B  0020               	movlb	0	; select bank0
  2971     065C  00B1               	movwf	_TMR0_InterruptHandler+1
  2972     065D  0871               	movf	TMR0_SetInterruptHandler@InterruptHandler,w
  2973     065E  00B0               	movwf	_TMR0_InterruptHandler
  2974     065F                     l607:
  2975     065F  0008               	return
  2976     0660                     __end_of_TMR0_SetInterruptHandler:
  2977                           
  2978                           	psect	text10
  2979     03A7                     __ptext10:	
  2980 ;; *************** function _EUSART_Initialize *****************
  2981 ;; Defined at:
  2982 ;;		line 88 in file "D:\yiming\00work\FR743_B101L_RX01.X\mcc_generated_files\eusart.c"
  2983 ;; Parameters:    Size  Location     Type
  2984 ;;		None
  2985 ;; Auto vars:     Size  Location     Type
  2986 ;;		None
  2987 ;; Return value:  Size  Location     Type
  2988 ;;                  1    wreg      void 
  2989 ;; Registers used:
  2990 ;;		wreg, status,2, status,0, pclath, cstack
  2991 ;; Tracked objects:
  2992 ;;		On entry : 0/0
  2993 ;;		On exit  : 0/0
  2994 ;;		Unchanged: 0/0
  2995 ;; Data sizes:     COMMON   BANK0   BANK1   BANK2   BANK3   BANK4   BANK5   BANK6
  2996 ;;      Params:         0       0       0       0       0       0       0       0
  2997 ;;      Locals:         0       0       0       0       0       0       0       0
  2998 ;;      Temps:          0       0       0       0       0       0       0       0
  2999 ;;      Totals:         0       0       0       0       0       0       0       0
  3000 ;;Total ram usage:        0 bytes
  3001 ;; Hardware stack levels used: 1
  3002 ;; Hardware stack levels required when called: 5
  3003 ;; This function calls:
  3004 ;;		_EUSART_SetErrorHandler
  3005 ;;		_EUSART_SetFramingErrorHandler
  3006 ;;		_EUSART_SetOverrunErrorHandler
  3007 ;;		_EUSART_SetRxInterruptHandler
  3008 ;;		_EUSART_SetTxInterruptHandler
  3009 ;; This function is called by:
  3010 ;;		_SYSTEM_Initialize
  3011 ;; This function uses a non-reentrant model
  3012 ;;
  3013                           
  3014     03A7                     _EUSART_Initialize:	
  3015                           ;psect for function _EUSART_Initialize
  3016                           
  3017     03A7                     l2276:	
  3018                           ;incstack = 0
  3019                           ; Regs used in _EUSART_Initialize: [wreg+status,2+status,0+pclath+cstack]
  3020                           
  3021                           
  3022                           ;D:\yiming\00work\FR743_B101L_RX01.X\mcc_generated_files\eusart.c: 91:     PIE1bits.RCIE
      +                           = 0;
  3023     03A7  0021               	movlb	1	; select bank1
  3024     03A8  1291               	bcf	17,5	;volatile
  3025     03A9                     l2278:
  3026                           
  3027                           ;D:\yiming\00work\FR743_B101L_RX01.X\mcc_generated_files\eusart.c: 92:     EUSART_SetRxI
      +                          nterruptHandler(EUSART_Receive_ISR);
  3028     03A9  30E5               	movlw	low _EUSART_Receive_ISR
  3029     03AA  00F1               	movwf	EUSART_SetRxInterruptHandler@interruptHandler
  3030     03AB  3003               	movlw	high _EUSART_Receive_ISR
  3031     03AC  00F2               	movwf	EUSART_SetRxInterruptHandler@interruptHandler+1
  3032     03AD  3186  2666  3183   	fcall	_EUSART_SetRxInterruptHandler
  3033     03B0                     l2280:
  3034                           
  3035                           ;D:\yiming\00work\FR743_B101L_RX01.X\mcc_generated_files\eusart.c: 93:     PIE1bits.TXIE
      +                           = 0;
  3036     03B0  0021               	movlb	1	; select bank1
  3037     03B1  1211               	bcf	17,4	;volatile
  3038                           
  3039                           ;D:\yiming\00work\FR743_B101L_RX01.X\mcc_generated_files\eusart.c: 94:     EUSART_SetTxI
      +                          nterruptHandler(EUSART_Transmit_ISR);
  3040     03B2  30E9               	movlw	low _EUSART_Transmit_ISR
  3041     03B3  00F1               	movwf	EUSART_SetTxInterruptHandler@interruptHandler
  3042     03B4  3004               	movlw	high _EUSART_Transmit_ISR
  3043     03B5  00F2               	movwf	EUSART_SetTxInterruptHandler@interruptHandler+1
  3044     03B6  3186  2660  3183   	fcall	_EUSART_SetTxInterruptHandler
  3045     03B9                     l2282:
  3046                           
  3047                           ;D:\yiming\00work\FR743_B101L_RX01.X\mcc_generated_files\eusart.c: 98:     BAUDCON = 0x1
      +                          9;
  3048     03B9  3019               	movlw	25
  3049     03BA  0023               	movlb	3	; select bank3
  3050     03BB  009F               	movwf	31	;volatile
  3051     03BC                     l2284:
  3052                           
  3053                           ;D:\yiming\00work\FR743_B101L_RX01.X\mcc_generated_files\eusart.c: 101:     RCSTA = 0x90
      +                          ;
  3054     03BC  3090               	movlw	144
  3055     03BD  009D               	movwf	29	;volatile
  3056     03BE                     l2286:
  3057                           
  3058                           ;D:\yiming\00work\FR743_B101L_RX01.X\mcc_generated_files\eusart.c: 104:     TXSTA = 0x24
      +                          ;
  3059     03BE  3024               	movlw	36
  3060     03BF  009E               	movwf	30	;volatile
  3061     03C0                     l2288:
  3062                           
  3063                           ;D:\yiming\00work\FR743_B101L_RX01.X\mcc_generated_files\eusart.c: 107:     SPBRGL = 0xF
      +                          F;
  3064     03C0  30FF               	movlw	255
  3065     03C1  009B               	movwf	27	;volatile
  3066     03C2                     l2290:
  3067                           
  3068                           ;D:\yiming\00work\FR743_B101L_RX01.X\mcc_generated_files\eusart.c: 110:     SPBRGH = 0x0
      +                          2;
  3069     03C2  3002               	movlw	2
  3070     03C3  009C               	movwf	28	;volatile
  3071     03C4                     l2292:
  3072                           
  3073                           ;D:\yiming\00work\FR743_B101L_RX01.X\mcc_generated_files\eusart.c: 113:     EUSART_SetFr
      +                          amingErrorHandler(EUSART_DefaultFramingErrorHandler);
  3074     03C4  30D5               	movlw	low _EUSART_DefaultFramingErrorHandler
  3075     03C5  00F1               	movwf	EUSART_SetFramingErrorHandler@interruptHandler
  3076     03C6  3006               	movlw	high _EUSART_DefaultFramingErrorHandler
  3077     03C7  00F2               	movwf	EUSART_SetFramingErrorHandler@interruptHandler+1
  3078     03C8  3186  2672  3183   	fcall	_EUSART_SetFramingErrorHandler
  3079     03CB                     l2294:
  3080                           
  3081                           ;D:\yiming\00work\FR743_B101L_RX01.X\mcc_generated_files\eusart.c: 114:     EUSART_SetOv
      +                          errunErrorHandler(EUSART_DefaultOverrunErrorHandler);
  3082     03CB  30A4               	movlw	low _EUSART_DefaultOverrunErrorHandler
  3083     03CC  00F1               	movwf	EUSART_SetOverrunErrorHandler@interruptHandler
  3084     03CD  3006               	movlw	high _EUSART_DefaultOverrunErrorHandler
  3085     03CE  00F2               	movwf	EUSART_SetOverrunErrorHandler@interruptHandler+1
  3086     03CF  3186  266C  3183   	fcall	_EUSART_SetOverrunErrorHandler
  3087     03D2                     l2296:
  3088                           
  3089                           ;D:\yiming\00work\FR743_B101L_RX01.X\mcc_generated_files\eusart.c: 115:     EUSART_SetEr
      +                          rorHandler(EUSART_DefaultErrorHandler);
  3090     03D2  30A8               	movlw	low _EUSART_DefaultErrorHandler
  3091     03D3  00F1               	movwf	EUSART_SetErrorHandler@interruptHandler
  3092     03D4  3006               	movlw	high _EUSART_DefaultErrorHandler
  3093     03D5  00F2               	movwf	EUSART_SetErrorHandler@interruptHandler+1
  3094     03D6  3186  2678  3183   	fcall	_EUSART_SetErrorHandler
  3095     03D9                     l2298:
  3096                           
  3097                           ;D:\yiming\00work\FR743_B101L_RX01.X\mcc_generated_files\eusart.c: 117:     eusartRxLast
      +                          Error.status = 0;
  3098     03D9  0020               	movlb	0	; select bank0
  3099     03DA  01C1               	clrf	_eusartRxLastError	;volatile
  3100     03DB                     l2300:
  3101                           
  3102                           ;D:\yiming\00work\FR743_B101L_RX01.X\mcc_generated_files\eusart.c: 120:     eusartTxHead
      +                           = 0;
  3103     03DB  01C5               	clrf	_eusartTxHead	;volatile
  3104     03DC                     l2302:
  3105                           
  3106                           ;D:\yiming\00work\FR743_B101L_RX01.X\mcc_generated_files\eusart.c: 121:     eusartTxTail
      +                           = 0;
  3107     03DC  01C4               	clrf	_eusartTxTail	;volatile
  3108     03DD                     l2304:
  3109                           
  3110                           ;D:\yiming\00work\FR743_B101L_RX01.X\mcc_generated_files\eusart.c: 122:     eusartTxBuff
      +                          erRemaining = sizeof(eusartTxBuffer);
  3111     03DD  3008               	movlw	8
  3112     03DE  00C3               	movwf	_eusartTxBufferRemaining	;volatile
  3113                           
  3114                           ;D:\yiming\00work\FR743_B101L_RX01.X\mcc_generated_files\eusart.c: 124:     eusartRxHead
      +                           = 0;
  3115     03DF  01FC               	clrf	_eusartRxHead	;volatile
  3116                           
  3117                           ;D:\yiming\00work\FR743_B101L_RX01.X\mcc_generated_files\eusart.c: 125:     eusartRxTail
      +                           = 0;
  3118     03E0  01FB               	clrf	_eusartRxTail	;volatile
  3119                           
  3120                           ;D:\yiming\00work\FR743_B101L_RX01.X\mcc_generated_files\eusart.c: 126:     eusartRxCoun
      +                          t = 0;
  3121     03E1  01C2               	clrf	_eusartRxCount	;volatile
  3122     03E2                     l2306:
  3123                           
  3124                           ;D:\yiming\00work\FR743_B101L_RX01.X\mcc_generated_files\eusart.c: 129:     PIE1bits.RCI
      +                          E = 1;
  3125     03E2  0021               	movlb	1	; select bank1
  3126     03E3  1691               	bsf	17,5	;volatile
  3127     03E4                     l404:
  3128     03E4  0008               	return
  3129     03E5                     __end_of_EUSART_Initialize:
  3130                           
  3131                           	psect	text11
  3132     0660                     __ptext11:	
  3133 ;; *************** function _EUSART_SetTxInterruptHandler *****************
  3134 ;; Defined at:
  3135 ;;		line 276 in file "D:\yiming\00work\FR743_B101L_RX01.X\mcc_generated_files\eusart.c"
  3136 ;; Parameters:    Size  Location     Type
  3137 ;;  interruptHan    2    1[COMMON] PTR FTN()void 
  3138 ;;		 -> EUSART_Transmit_ISR(1), 
  3139 ;; Auto vars:     Size  Location     Type
  3140 ;;		None
  3141 ;; Return value:  Size  Location     Type
  3142 ;;                  1    wreg      void 
  3143 ;; Registers used:
  3144 ;;		wreg
  3145 ;; Tracked objects:
  3146 ;;		On entry : 0/0
  3147 ;;		On exit  : 0/0
  3148 ;;		Unchanged: 0/0
  3149 ;; Data sizes:     COMMON   BANK0   BANK1   BANK2   BANK3   BANK4   BANK5   BANK6
  3150 ;;      Params:         2       0       0       0       0       0       0       0
  3151 ;;      Locals:         0       0       0       0       0       0       0       0
  3152 ;;      Temps:          0       0       0       0       0       0       0       0
  3153 ;;      Totals:         2       0       0       0       0       0       0       0
  3154 ;;Total ram usage:        2 bytes
  3155 ;; Hardware stack levels used: 1
  3156 ;; Hardware stack levels required when called: 4
  3157 ;; This function calls:
  3158 ;;		Nothing
  3159 ;; This function is called by:
  3160 ;;		_EUSART_Initialize
  3161 ;; This function uses a non-reentrant model
  3162 ;;
  3163                           
  3164     0660                     _EUSART_SetTxInterruptHandler:	
  3165                           ;psect for function _EUSART_SetTxInterruptHandler
  3166                           
  3167     0660                     l2082:	
  3168                           ;incstack = 0
  3169                           ; Regs used in _EUSART_SetTxInterruptHandler: [wreg]
  3170                           
  3171                           
  3172                           ;D:\yiming\00work\FR743_B101L_RX01.X\mcc_generated_files\eusart.c: 277:     EUSART_TxDef
      +                          aultInterruptHandler = interruptHandler;
  3173     0660  0872               	movf	EUSART_SetTxInterruptHandler@interruptHandler+1,w
  3174     0661  0020               	movlb	0	; select bank0
  3175     0662  00BB               	movwf	_EUSART_TxDefaultInterruptHandler+1
  3176     0663  0871               	movf	EUSART_SetTxInterruptHandler@interruptHandler,w
  3177     0664  00BA               	movwf	_EUSART_TxDefaultInterruptHandler
  3178     0665                     l470:
  3179     0665  0008               	return
  3180     0666                     __end_of_EUSART_SetTxInterruptHandler:
  3181                           
  3182                           	psect	text12
  3183     0666                     __ptext12:	
  3184 ;; *************** function _EUSART_SetRxInterruptHandler *****************
  3185 ;; Defined at:
  3186 ;;		line 280 in file "D:\yiming\00work\FR743_B101L_RX01.X\mcc_generated_files\eusart.c"
  3187 ;; Parameters:    Size  Location     Type
  3188 ;;  interruptHan    2    1[COMMON] PTR FTN()void 
  3189 ;;		 -> EUSART_Receive_ISR(1), 
  3190 ;; Auto vars:     Size  Location     Type
  3191 ;;		None
  3192 ;; Return value:  Size  Location     Type
  3193 ;;                  1    wreg      void 
  3194 ;; Registers used:
  3195 ;;		wreg
  3196 ;; Tracked objects:
  3197 ;;		On entry : 0/0
  3198 ;;		On exit  : 0/0
  3199 ;;		Unchanged: 0/0
  3200 ;; Data sizes:     COMMON   BANK0   BANK1   BANK2   BANK3   BANK4   BANK5   BANK6
  3201 ;;      Params:         2       0       0       0       0       0       0       0
  3202 ;;      Locals:         0       0       0       0       0       0       0       0
  3203 ;;      Temps:          0       0       0       0       0       0       0       0
  3204 ;;      Totals:         2       0       0       0       0       0       0       0
  3205 ;;Total ram usage:        2 bytes
  3206 ;; Hardware stack levels used: 1
  3207 ;; Hardware stack levels required when called: 4
  3208 ;; This function calls:
  3209 ;;		Nothing
  3210 ;; This function is called by:
  3211 ;;		_EUSART_Initialize
  3212 ;; This function uses a non-reentrant model
  3213 ;;
  3214                           
  3215     0666                     _EUSART_SetRxInterruptHandler:	
  3216                           ;psect for function _EUSART_SetRxInterruptHandler
  3217                           
  3218     0666                     l2080:	
  3219                           ;incstack = 0
  3220                           ; Regs used in _EUSART_SetRxInterruptHandler: [wreg]
  3221                           
  3222                           
  3223                           ;D:\yiming\00work\FR743_B101L_RX01.X\mcc_generated_files\eusart.c: 281:     EUSART_RxDef
      +                          aultInterruptHandler = interruptHandler;
  3224     0666  0872               	movf	EUSART_SetRxInterruptHandler@interruptHandler+1,w
  3225     0667  0020               	movlb	0	; select bank0
  3226     0668  00B9               	movwf	_EUSART_RxDefaultInterruptHandler+1
  3227     0669  0871               	movf	EUSART_SetRxInterruptHandler@interruptHandler,w
  3228     066A  00B8               	movwf	_EUSART_RxDefaultInterruptHandler
  3229     066B                     l473:
  3230     066B  0008               	return
  3231     066C                     __end_of_EUSART_SetRxInterruptHandler:
  3232                           
  3233                           	psect	text13
  3234     066C                     __ptext13:	
  3235 ;; *************** function _EUSART_SetOverrunErrorHandler *****************
  3236 ;; Defined at:
  3237 ;;		line 268 in file "D:\yiming\00work\FR743_B101L_RX01.X\mcc_generated_files\eusart.c"
  3238 ;; Parameters:    Size  Location     Type
  3239 ;;  interruptHan    2    1[COMMON] PTR FTN()void 
  3240 ;;		 -> EUSART_DefaultOverrunErrorHandler(1), 
  3241 ;; Auto vars:     Size  Location     Type
  3242 ;;		None
  3243 ;; Return value:  Size  Location     Type
  3244 ;;                  1    wreg      void 
  3245 ;; Registers used:
  3246 ;;		wreg
  3247 ;; Tracked objects:
  3248 ;;		On entry : 0/0
  3249 ;;		On exit  : 0/0
  3250 ;;		Unchanged: 0/0
  3251 ;; Data sizes:     COMMON   BANK0   BANK1   BANK2   BANK3   BANK4   BANK5   BANK6
  3252 ;;      Params:         2       0       0       0       0       0       0       0
  3253 ;;      Locals:         0       0       0       0       0       0       0       0
  3254 ;;      Temps:          0       0       0       0       0       0       0       0
  3255 ;;      Totals:         2       0       0       0       0       0       0       0
  3256 ;;Total ram usage:        2 bytes
  3257 ;; Hardware stack levels used: 1
  3258 ;; Hardware stack levels required when called: 4
  3259 ;; This function calls:
  3260 ;;		Nothing
  3261 ;; This function is called by:
  3262 ;;		_EUSART_Initialize
  3263 ;; This function uses a non-reentrant model
  3264 ;;
  3265                           
  3266     066C                     _EUSART_SetOverrunErrorHandler:	
  3267                           ;psect for function _EUSART_SetOverrunErrorHandler
  3268                           
  3269     066C                     l2086:	
  3270                           ;incstack = 0
  3271                           ; Regs used in _EUSART_SetOverrunErrorHandler: [wreg]
  3272                           
  3273                           
  3274                           ;D:\yiming\00work\FR743_B101L_RX01.X\mcc_generated_files\eusart.c: 269:     EUSART_Overr
      +                          unErrorHandler = interruptHandler;
  3275     066C  0872               	movf	EUSART_SetOverrunErrorHandler@interruptHandler+1,w
  3276     066D  0020               	movlb	0	; select bank0
  3277     066E  00B5               	movwf	_EUSART_OverrunErrorHandler+1
  3278     066F  0871               	movf	EUSART_SetOverrunErrorHandler@interruptHandler,w
  3279     0670  00B4               	movwf	_EUSART_OverrunErrorHandler
  3280     0671                     l464:
  3281     0671  0008               	return
  3282     0672                     __end_of_EUSART_SetOverrunErrorHandler:
  3283                           
  3284                           	psect	text14
  3285     0672                     __ptext14:	
  3286 ;; *************** function _EUSART_SetFramingErrorHandler *****************
  3287 ;; Defined at:
  3288 ;;		line 264 in file "D:\yiming\00work\FR743_B101L_RX01.X\mcc_generated_files\eusart.c"
  3289 ;; Parameters:    Size  Location     Type
  3290 ;;  interruptHan    2    1[COMMON] PTR FTN()void 
  3291 ;;		 -> EUSART_DefaultFramingErrorHandler(1), 
  3292 ;; Auto vars:     Size  Location     Type
  3293 ;;		None
  3294 ;; Return value:  Size  Location     Type
  3295 ;;                  1    wreg      void 
  3296 ;; Registers used:
  3297 ;;		wreg
  3298 ;; Tracked objects:
  3299 ;;		On entry : 0/0
  3300 ;;		On exit  : 0/0
  3301 ;;		Unchanged: 0/0
  3302 ;; Data sizes:     COMMON   BANK0   BANK1   BANK2   BANK3   BANK4   BANK5   BANK6
  3303 ;;      Params:         2       0       0       0       0       0       0       0
  3304 ;;      Locals:         0       0       0       0       0       0       0       0
  3305 ;;      Temps:          0       0       0       0       0       0       0       0
  3306 ;;      Totals:         2       0       0       0       0       0       0       0
  3307 ;;Total ram usage:        2 bytes
  3308 ;; Hardware stack levels used: 1
  3309 ;; Hardware stack levels required when called: 4
  3310 ;; This function calls:
  3311 ;;		Nothing
  3312 ;; This function is called by:
  3313 ;;		_EUSART_Initialize
  3314 ;; This function uses a non-reentrant model
  3315 ;;
  3316                           
  3317     0672                     _EUSART_SetFramingErrorHandler:	
  3318                           ;psect for function _EUSART_SetFramingErrorHandler
  3319                           
  3320     0672                     l2084:	
  3321                           ;incstack = 0
  3322                           ; Regs used in _EUSART_SetFramingErrorHandler: [wreg]
  3323                           
  3324                           
  3325                           ;D:\yiming\00work\FR743_B101L_RX01.X\mcc_generated_files\eusart.c: 265:     EUSART_Frami
      +                          ngErrorHandler = interruptHandler;
  3326     0672  0872               	movf	EUSART_SetFramingErrorHandler@interruptHandler+1,w
  3327     0673  0020               	movlb	0	; select bank0
  3328     0674  00B7               	movwf	_EUSART_FramingErrorHandler+1
  3329     0675  0871               	movf	EUSART_SetFramingErrorHandler@interruptHandler,w
  3330     0676  00B6               	movwf	_EUSART_FramingErrorHandler
  3331     0677                     l461:
  3332     0677  0008               	return
  3333     0678                     __end_of_EUSART_SetFramingErrorHandler:
  3334                           
  3335                           	psect	text15
  3336     0678                     __ptext15:	
  3337 ;; *************** function _EUSART_SetErrorHandler *****************
  3338 ;; Defined at:
  3339 ;;		line 272 in file "D:\yiming\00work\FR743_B101L_RX01.X\mcc_generated_files\eusart.c"
  3340 ;; Parameters:    Size  Location     Type
  3341 ;;  interruptHan    2    1[COMMON] PTR FTN()void 
  3342 ;;		 -> EUSART_DefaultErrorHandler(1), 
  3343 ;; Auto vars:     Size  Location     Type
  3344 ;;		None
  3345 ;; Return value:  Size  Location     Type
  3346 ;;                  1    wreg      void 
  3347 ;; Registers used:
  3348 ;;		wreg
  3349 ;; Tracked objects:
  3350 ;;		On entry : 0/0
  3351 ;;		On exit  : 0/0
  3352 ;;		Unchanged: 0/0
  3353 ;; Data sizes:     COMMON   BANK0   BANK1   BANK2   BANK3   BANK4   BANK5   BANK6
  3354 ;;      Params:         2       0       0       0       0       0       0       0
  3355 ;;      Locals:         0       0       0       0       0       0       0       0
  3356 ;;      Temps:          0       0       0       0       0       0       0       0
  3357 ;;      Totals:         2       0       0       0       0       0       0       0
  3358 ;;Total ram usage:        2 bytes
  3359 ;; Hardware stack levels used: 1
  3360 ;; Hardware stack levels required when called: 4
  3361 ;; This function calls:
  3362 ;;		Nothing
  3363 ;; This function is called by:
  3364 ;;		_EUSART_Initialize
  3365 ;; This function uses a non-reentrant model
  3366 ;;
  3367                           
  3368     0678                     _EUSART_SetErrorHandler:	
  3369                           ;psect for function _EUSART_SetErrorHandler
  3370                           
  3371     0678                     l2088:	
  3372                           ;incstack = 0
  3373                           ; Regs used in _EUSART_SetErrorHandler: [wreg]
  3374                           
  3375                           
  3376                           ;D:\yiming\00work\FR743_B101L_RX01.X\mcc_generated_files\eusart.c: 273:     EUSART_Error
      +                          Handler = interruptHandler;
  3377     0678  0872               	movf	EUSART_SetErrorHandler@interruptHandler+1,w
  3378     0679  0020               	movlb	0	; select bank0
  3379     067A  00B3               	movwf	_EUSART_ErrorHandler+1
  3380     067B  0871               	movf	EUSART_SetErrorHandler@interruptHandler,w
  3381     067C  00B2               	movwf	_EUSART_ErrorHandler
  3382     067D                     l467:
  3383     067D  0008               	return
  3384     067E                     __end_of_EUSART_SetErrorHandler:
  3385                           
  3386                           	psect	text16
  3387     0054                     __ptext16:	
  3388 ;; *************** function _LIN_handler *****************
  3389 ;; Defined at:
  3390 ;;		line 94 in file "D:\yiming\00work\FR743_B101L_RX01.X\mcc_generated_files\LINDrivers\lin_slave.c"
  3391 ;; Parameters:    Size  Location     Type
  3392 ;;		None
  3393 ;; Auto vars:     Size  Location     Type
  3394 ;;		None
  3395 ;; Return value:  Size  Location     Type
  3396 ;;                  1    wreg      enum E204
  3397 ;; Registers used:
  3398 ;;		wreg, fsr0l, fsr0h, fsr1l, fsr1h, status,2, status,0, pclath, cstack
  3399 ;; Tracked objects:
  3400 ;;		On entry : 0/0
  3401 ;;		On exit  : 0/0
  3402 ;;		Unchanged: 0/0
  3403 ;; Data sizes:     COMMON   BANK0   BANK1   BANK2   BANK3   BANK4   BANK5   BANK6
  3404 ;;      Params:         0       0       0       0       0       0       0       0
  3405 ;;      Locals:         0       0       0       0       0       0       0       0
  3406 ;;      Temps:          0       3       0       0       0       0       0       0
  3407 ;;      Totals:         0       3       0       0       0       0       0       0
  3408 ;;Total ram usage:        3 bytes
  3409 ;; Hardware stack levels used: 1
  3410 ;; Hardware stack levels required when called: 7
  3411 ;; This function calls:
  3412 ;;		NULL
  3413 ;;		_EUSART_Read
  3414 ;;		_EUSART_is_rx_ready
  3415 ;;		_LIN_breakCheck
  3416 ;;		_LIN_checkPID
  3417 ;;		_LIN_disableRx
  3418 ;;		_LIN_enableRx
  3419 ;;		_LIN_getChecksum
  3420 ;;		_LIN_getFromTable
  3421 ;;		_LIN_queuePacket
  3422 ;;		_LIN_startTimer
  3423 ;;		_LIN_stopTimer
  3424 ;;		_memset
  3425 ;;		_processLIN
  3426 ;; This function is called by:
  3427 ;;		_main
  3428 ;; This function uses a non-reentrant model
  3429 ;;
  3430                           
  3431     0054                     _LIN_handler:	
  3432                           ;psect for function _LIN_handler
  3433                           
  3434     0054                     l2590:	
  3435                           ;incstack = 0
  3436                           ; Regs used in _LIN_handler: [wreg-fsr1h+status,2+status,0+pclath+cstack]
  3437                           
  3438                           
  3439                           ;D:\yiming\00work\FR743_B101L_RX01.X\mcc_generated_files\LINDrivers\lin_slave.c: 95:    
      +                           static lin_rx_state_t LIN_rxState = LIN_RX_IDLE;;D:\yiming\00work\FR743_B101L_RX01.X\mc
      +                          c_generated_files\LINDrivers\lin_slave.c: 96:     static uint8_t rxDataIndex = 0;;D:\yim
      +                          ing\00work\FR743_B101L_RX01.X\mcc_generated_files\LINDrivers\lin_slave.c: 99:     if(LIN
      +                          _rxInProgress == 1){
  3440     0054  0020               	movlb	0	; select bank0
  3441     0055  034B               	decf	_LIN_rxInProgress,w
  3442     0056  1D03               	btfss	3,2
  3443     0057  2859               	goto	u2041
  3444     0058  285A               	goto	u2040
  3445     0059                     u2041:
  3446     0059  2956               	goto	l2686
  3447     005A                     u2040:
  3448     005A                     l2592:
  3449                           
  3450                           ;D:\yiming\00work\FR743_B101L_RX01.X\mcc_generated_files\LINDrivers\lin_slave.c: 100:   
      +                                if(LIN_timerRunning == 0){
  3451     005A  0849               	movf	_LIN_timerRunning,w
  3452     005B  1D03               	btfss	3,2
  3453     005C  285E               	goto	u2051
  3454     005D  285F               	goto	u2050
  3455     005E                     u2051:
  3456     005E  2956               	goto	l2686
  3457     005F                     u2050:
  3458     005F                     l2594:
  3459                           
  3460                           ;D:\yiming\00work\FR743_B101L_RX01.X\mcc_generated_files\LINDrivers\lin_slave.c: 102:   
      +                                    LIN_rxState = LIN_RX_ERROR;
  3461     005F  3008               	movlw	8
  3462     0060  00C7               	movwf	LIN_handler@LIN_rxState
  3463     0061  2956               	goto	l2686
  3464     0062                     l2596:
  3465                           
  3466                           ;D:\yiming\00work\FR743_B101L_RX01.X\mcc_generated_files\LINDrivers\lin_slave.c: 109:   
      +                                    if(EUSART_is_rx_ready() > 0){
  3467     0062  3186  2643  3180   	fcall	_EUSART_is_rx_ready
  3468     0065  3A00               	xorlw	0
  3469     0066  1903               	skipnz
  3470     0067  2869               	goto	u2061
  3471     0068  286A               	goto	u2060
  3472     0069                     u2061:
  3473     0069  297E               	goto	l268
  3474     006A                     u2060:
  3475     006A                     l2598:
  3476                           
  3477                           ;D:\yiming\00work\FR743_B101L_RX01.X\mcc_generated_files\LINDrivers\lin_slave.c: 111:   
      +                                        LIN_startTimer(15);
  3478     006A  300F               	movlw	15
  3479     006B  3186  262A  3180   	fcall	_LIN_startTimer
  3480     006E                     l2600:
  3481                           
  3482                           ;D:\yiming\00work\FR743_B101L_RX01.X\mcc_generated_files\LINDrivers\lin_slave.c: 112:   
      +                                        LIN_rxInProgress = 1;
  3483     006E  0020               	movlb	0	; select bank0
  3484     006F  01CB               	clrf	_LIN_rxInProgress
  3485     0070  0ACB               	incf	_LIN_rxInProgress,f
  3486     0071                     l2602:
  3487                           
  3488                           ;D:\yiming\00work\FR743_B101L_RX01.X\mcc_generated_files\LINDrivers\lin_slave.c: 113:   
      +                                        LIN_rxState = LIN_RX_BREAK;
  3489     0071  01C7               	clrf	LIN_handler@LIN_rxState
  3490     0072  0AC7               	incf	LIN_handler@LIN_rxState,f
  3491     0073                     l2604:
  3492                           
  3493                           ;D:\yiming\00work\FR743_B101L_RX01.X\mcc_generated_files\LINDrivers\lin_slave.c: 114:   
      +                                        LATCbits.LATC4=1;
  3494     0073  0022               	movlb	2	; select bank2
  3495     0074  160E               	bsf	14,4	;volatile
  3496     0075  297E               	goto	l268
  3497     0076                     l2606:
  3498                           
  3499                           ;D:\yiming\00work\FR743_B101L_RX01.X\mcc_generated_files\LINDrivers\lin_slave.c: 119:   
      +                                    if(EUSART_is_rx_ready() > 0){
  3500     0076  3186  2643  3180   	fcall	_EUSART_is_rx_ready
  3501     0079  3A00               	xorlw	0
  3502     007A  1903               	skipnz
  3503     007B  287D               	goto	u2071
  3504     007C  287E               	goto	u2070
  3505     007D                     u2071:
  3506     007D  297E               	goto	l268
  3507     007E                     u2070:
  3508     007E                     l2608:
  3509                           
  3510                           ;D:\yiming\00work\FR743_B101L_RX01.X\mcc_generated_files\LINDrivers\lin_slave.c: 120:   
      +                                        if(LIN_breakCheck() == 1){
  3511     007E  3185  25CA  3180   	fcall	_LIN_breakCheck
  3512     0081  3A01               	xorlw	1
  3513     0082  1D03               	skipz
  3514     0083  2885               	goto	u2081
  3515     0084  2886               	goto	u2080
  3516     0085                     u2081:
  3517     0085  288A               	goto	l2612
  3518     0086                     u2080:
  3519     0086                     l2610:
  3520                           
  3521                           ;D:\yiming\00work\FR743_B101L_RX01.X\mcc_generated_files\LINDrivers\lin_slave.c: 121:   
      +                                            LIN_rxState = LIN_RX_SYNC;
  3522     0086  3002               	movlw	2
  3523     0087  0020               	movlb	0	; select bank0
  3524     0088  00C7               	movwf	LIN_handler@LIN_rxState
  3525                           
  3526                           ;D:\yiming\00work\FR743_B101L_RX01.X\mcc_generated_files\LINDrivers\lin_slave.c: 122:   
      +                                        } else {
  3527     0089  288D               	goto	l2614
  3528     008A                     l2612:
  3529                           
  3530                           ;D:\yiming\00work\FR743_B101L_RX01.X\mcc_generated_files\LINDrivers\lin_slave.c: 123:   
      +                                            LIN_rxState = LIN_RX_ERROR;
  3531     008A  3008               	movlw	8
  3532     008B  0020               	movlb	0	; select bank0
  3533     008C  00C7               	movwf	LIN_handler@LIN_rxState
  3534     008D                     l2614:
  3535                           
  3536                           ;D:\yiming\00work\FR743_B101L_RX01.X\mcc_generated_files\LINDrivers\lin_slave.c: 125:   
      +                                        LATCbits.LATC4=0;
  3537     008D  0022               	movlb	2	; select bank2
  3538     008E  120E               	bcf	14,4	;volatile
  3539     008F  297E               	goto	l268
  3540     0090                     l2616:
  3541                           
  3542                           ;D:\yiming\00work\FR743_B101L_RX01.X\mcc_generated_files\LINDrivers\lin_slave.c: 130:   
      +                                    if(EUSART_is_rx_ready() > 0){
  3543     0090  3186  2643  3180   	fcall	_EUSART_is_rx_ready
  3544     0093  3A00               	xorlw	0
  3545     0094  1903               	skipnz
  3546     0095  2897               	goto	u2091
  3547     0096  2898               	goto	u2090
  3548     0097                     u2091:
  3549     0097  297E               	goto	l268
  3550     0098                     u2090:
  3551     0098                     l2618:
  3552                           
  3553                           ;D:\yiming\00work\FR743_B101L_RX01.X\mcc_generated_files\LINDrivers\lin_slave.c: 131:   
      +                                        if(EUSART_Read() == 0x55){
  3554     0098  3184  2479  3180   	fcall	_EUSART_Read
  3555     009B  3A55               	xorlw	85
  3556     009C  1D03               	skipz
  3557     009D  289F               	goto	u2101
  3558     009E  28A0               	goto	u2100
  3559     009F                     u2101:
  3560     009F  28A4               	goto	l2622
  3561     00A0                     u2100:
  3562     00A0                     l2620:
  3563                           
  3564                           ;D:\yiming\00work\FR743_B101L_RX01.X\mcc_generated_files\LINDrivers\lin_slave.c: 132:   
      +                                            LIN_rxState = LIN_RX_PID;
  3565     00A0  3003               	movlw	3
  3566     00A1  0020               	movlb	0	; select bank0
  3567     00A2  00C7               	movwf	LIN_handler@LIN_rxState
  3568                           
  3569                           ;D:\yiming\00work\FR743_B101L_RX01.X\mcc_generated_files\LINDrivers\lin_slave.c: 134:   
      +                                        } else {
  3570     00A3  297E               	goto	l268
  3571     00A4                     l2622:
  3572                           
  3573                           ;D:\yiming\00work\FR743_B101L_RX01.X\mcc_generated_files\LINDrivers\lin_slave.c: 135:   
      +                                            LIN_rxState = LIN_RX_ERROR;
  3574     00A4  3008               	movlw	8
  3575     00A5  0020               	movlb	0	; select bank0
  3576     00A6  00C7               	movwf	LIN_handler@LIN_rxState
  3577     00A7  297E               	goto	l268
  3578     00A8                     l2624:
  3579                           
  3580                           ;D:\yiming\00work\FR743_B101L_RX01.X\mcc_generated_files\LINDrivers\lin_slave.c: 141:   
      +                                    if(EUSART_is_rx_ready() > 0){
  3581     00A8  3186  2643  3180   	fcall	_EUSART_is_rx_ready
  3582     00AB  3A00               	xorlw	0
  3583     00AC  1903               	skipnz
  3584     00AD  28AF               	goto	u2111
  3585     00AE  28B0               	goto	u2110
  3586     00AF                     u2111:
  3587     00AF  297E               	goto	l268
  3588     00B0                     u2110:
  3589     00B0                     l2626:
  3590                           
  3591                           ;D:\yiming\00work\FR743_B101L_RX01.X\mcc_generated_files\LINDrivers\lin_slave.c: 142:   
      +                                        LIN_packet.PID = EUSART_Read();
  3592     00B0  3184  2479  3180   	fcall	_EUSART_Read
  3593     00B3  0020               	movlb	0	; select bank0
  3594     00B4  00CF               	movwf	_LIN_packet
  3595     00B5                     l2628:
  3596                           
  3597                           ;D:\yiming\00work\FR743_B101L_RX01.X\mcc_generated_files\LINDrivers\lin_slave.c: 145:   
      +                                        if(LIN_checkPID(LIN_packet.PID) == 0){
  3598     00B5  084F               	movf	_LIN_packet,w
  3599     00B6  3185  255B  3180   	fcall	_LIN_checkPID
  3600     00B9  3A00               	xorlw	0
  3601     00BA  1D03               	skipz
  3602     00BB  28BD               	goto	u2121
  3603     00BC  28BE               	goto	u2120
  3604     00BD                     u2121:
  3605     00BD  28BF               	goto	l2632
  3606     00BE                     u2120:
  3607     00BE  28A4               	goto	l2622
  3608     00BF                     l2632:
  3609                           
  3610                           ;D:\yiming\00work\FR743_B101L_RX01.X\mcc_generated_files\LINDrivers\lin_slave.c: 149:   
      +                                        LIN_packet.type = LIN_getFromTable(LIN_packet.PID, TYPE);
  3611     00BF  01F1               	clrf	LIN_getFromTable@param
  3612     00C0  0AF1               	incf	LIN_getFromTable@param,f
  3613     00C1  0020               	movlb	0	; select bank0
  3614     00C2  084F               	movf	_LIN_packet,w
  3615     00C3  3182  22D4  3180   	fcall	_LIN_getFromTable
  3616     00C6  0020               	movlb	0	; select bank0
  3617     00C7  00D9               	movwf	_LIN_packet+10
  3618     00C8                     l2634:
  3619                           
  3620                           ;D:\yiming\00work\FR743_B101L_RX01.X\mcc_generated_files\LINDrivers\lin_slave.c: 150:   
      +                                        if(LIN_packet.type == RECEIVE){
  3621     00C8  0359               	decf	_LIN_packet+10,w
  3622     00C9  1D03               	btfss	3,2
  3623     00CA  28CC               	goto	u2131
  3624     00CB  28CD               	goto	u2130
  3625     00CC                     u2131:
  3626     00CC  28D8               	goto	l2640
  3627     00CD                     u2130:
  3628     00CD                     l2636:
  3629                           
  3630                           ;D:\yiming\00work\FR743_B101L_RX01.X\mcc_generated_files\LINDrivers\lin_slave.c: 151:   
      +                                            LIN_packet.length = LIN_getFromTable(LIN_packet.PID, LENGTH);
  3631     00CD  3002               	movlw	2
  3632     00CE  00F1               	movwf	LIN_getFromTable@param
  3633     00CF  084F               	movf	_LIN_packet,w
  3634     00D0  3182  22D4  3180   	fcall	_LIN_getFromTable
  3635     00D3  0020               	movlb	0	; select bank0
  3636     00D4  00DA               	movwf	_LIN_packet+11
  3637     00D5                     l2638:
  3638                           
  3639                           ;D:\yiming\00work\FR743_B101L_RX01.X\mcc_generated_files\LINDrivers\lin_slave.c: 152:   
      +                                            LIN_rxState = LIN_RX_DATA;
  3640     00D5  3004               	movlw	4
  3641     00D6  00C7               	movwf	LIN_handler@LIN_rxState
  3642                           
  3643                           ;D:\yiming\00work\FR743_B101L_RX01.X\mcc_generated_files\LINDrivers\lin_slave.c: 153:   
      +                                        }
  3644     00D7  297E               	goto	l268
  3645     00D8                     l2640:
  3646                           
  3647                           ;D:\yiming\00work\FR743_B101L_RX01.X\mcc_generated_files\LINDrivers\lin_slave.c: 155:   
      +                                            LIN_disableRx();
  3648     00D8  3186  268D  3180   	fcall	_LIN_disableRx
  3649     00DB                     l2642:
  3650                           
  3651                           ;D:\yiming\00work\FR743_B101L_RX01.X\mcc_generated_files\LINDrivers\lin_slave.c: 156:   
      +                                            LIN_rxState = LIN_RX_TX_DATA;
  3652     00DB  3006               	movlw	6
  3653     00DC  0020               	movlb	0	; select bank0
  3654     00DD  00C7               	movwf	LIN_handler@LIN_rxState
  3655     00DE  297E               	goto	l268
  3656     00DF                     l2644:
  3657                           
  3658                           ;D:\yiming\00work\FR743_B101L_RX01.X\mcc_generated_files\LINDrivers\lin_slave.c: 161:   
      +                                    if(EUSART_is_rx_ready() > 0){
  3659     00DF  3186  2643  3180   	fcall	_EUSART_is_rx_ready
  3660     00E2  3A00               	xorlw	0
  3661     00E3  1903               	skipnz
  3662     00E4  28E6               	goto	u2141
  3663     00E5  28E7               	goto	u2140
  3664     00E6                     u2141:
  3665     00E6  297E               	goto	l268
  3666     00E7                     u2140:
  3667     00E7                     l2646:
  3668                           
  3669                           ;D:\yiming\00work\FR743_B101L_RX01.X\mcc_generated_files\LINDrivers\lin_slave.c: 162:   
      +                                        LIN_packet.data[rxDataIndex] = EUSART_Read();
  3670     00E7  3184  2479  3180   	fcall	_EUSART_Read
  3671     00EA  0020               	movlb	0	; select bank0
  3672     00EB  00E5               	movwf	??_LIN_handler
  3673     00EC  0846               	movf	LIN_handler@rxDataIndex,w
  3674     00ED  3E50               	addlw	(low ((_LIN_packet| 0+1)))& (0+255)
  3675     00EE  0086               	movwf	6
  3676     00EF  0187               	clrf	7
  3677     00F0  0865               	movf	??_LIN_handler,w
  3678     00F1  0081               	movwf	1
  3679     00F2                     l2648:
  3680                           
  3681                           ;D:\yiming\00work\FR743_B101L_RX01.X\mcc_generated_files\LINDrivers\lin_slave.c: 163:   
      +                                        if(++rxDataIndex >= LIN_packet.length){
  3682     00F2  085A               	movf	_LIN_packet+11,w
  3683     00F3  00E5               	movwf	??_LIN_handler
  3684     00F4  01E6               	clrf	??_LIN_handler+1
  3685     00F5  1BE5               	btfsc	??_LIN_handler,7
  3686     00F6  03E6               	decf	??_LIN_handler+1,f
  3687     00F7  3001               	movlw	1
  3688     00F8  00E7               	movwf	??_LIN_handler+2
  3689     00F9  0867               	movf	??_LIN_handler+2,w
  3690     00FA  07C6               	addwf	LIN_handler@rxDataIndex,f
  3691     00FB  0866               	movf	??_LIN_handler+1,w
  3692     00FC  3A80               	xorlw	128
  3693     00FD  3C80               	sublw	128
  3694     00FE  1D03               	skipz
  3695     00FF  2902               	goto	u2155
  3696     0100  0865               	movf	??_LIN_handler,w
  3697     0101  0246               	subwf	LIN_handler@rxDataIndex,w
  3698     0102                     u2155:
  3699     0102  1C03               	skipc
  3700     0103  2905               	goto	u2151
  3701     0104  2906               	goto	u2150
  3702     0105                     u2151:
  3703     0105  297E               	goto	l268
  3704     0106                     u2150:
  3705     0106                     l2650:
  3706                           
  3707                           ;D:\yiming\00work\FR743_B101L_RX01.X\mcc_generated_files\LINDrivers\lin_slave.c: 165:   
      +                                            rxDataIndex = 0;
  3708     0106  0020               	movlb	0	; select bank0
  3709     0107  01C6               	clrf	LIN_handler@rxDataIndex
  3710     0108                     l2652:
  3711                           
  3712                           ;D:\yiming\00work\FR743_B101L_RX01.X\mcc_generated_files\LINDrivers\lin_slave.c: 166:   
      +                                            LIN_rxState = LIN_RX_CHECKSUM;
  3713     0108  3005               	movlw	5
  3714     0109  00C7               	movwf	LIN_handler@LIN_rxState
  3715     010A  297E               	goto	l268
  3716     010B                     l2654:
  3717                           
  3718                           ;D:\yiming\00work\FR743_B101L_RX01.X\mcc_generated_files\LINDrivers\lin_slave.c: 171:   
      +                                    if(EUSART_is_rx_ready() > 0){
  3719     010B  3186  2643  3180   	fcall	_EUSART_is_rx_ready
  3720     010E  3A00               	xorlw	0
  3721     010F  1903               	skipnz
  3722     0110  2912               	goto	u2161
  3723     0111  2913               	goto	u2160
  3724     0112                     u2161:
  3725     0112  297E               	goto	l268
  3726     0113                     u2160:
  3727     0113                     l2656:
  3728                           
  3729                           ;D:\yiming\00work\FR743_B101L_RX01.X\mcc_generated_files\LINDrivers\lin_slave.c: 172:   
      +                                        LIN_packet.checksum = EUSART_Read();
  3730     0113  3184  2479  3180   	fcall	_EUSART_Read
  3731     0116  0020               	movlb	0	; select bank0
  3732     0117  00D8               	movwf	_LIN_packet+9
  3733                           
  3734                           ;D:\yiming\00work\FR743_B101L_RX01.X\mcc_generated_files\LINDrivers\lin_slave.c: 173:   
      +                                        if(LIN_packet.checksum != LIN_getChecksum(LIN_packet.length, LIN_packet.PI
      +                          D, LIN_packet.data)) {
  3735     0118  084F               	movf	_LIN_packet,w
  3736     0119  00F1               	movwf	LIN_getChecksum@pid
  3737     011A  3050               	movlw	(low ((_LIN_packet| 0+1)))& (0+255)
  3738     011B  00F2               	movwf	LIN_getChecksum@data
  3739     011C  085A               	movf	_LIN_packet+11,w
  3740     011D  3184  241E  3180   	fcall	_LIN_getChecksum
  3741     0120  0020               	movlb	0	; select bank0
  3742     0121  0658               	xorwf	_LIN_packet+9,w
  3743     0122  1903               	skipnz
  3744     0123  2925               	goto	u2171
  3745     0124  2926               	goto	u2170
  3746     0125                     u2171:
  3747     0125  2927               	goto	l2660
  3748     0126                     u2170:
  3749     0126  28A4               	goto	l2622
  3750     0127                     l2660:
  3751                           
  3752                           ;D:\yiming\00work\FR743_B101L_RX01.X\mcc_generated_files\LINDrivers\lin_slave.c: 177:   
      +                                            LIN_rxState = LIN_RX_RDY;
  3753     0127  3007               	movlw	7
  3754     0128  00C7               	movwf	LIN_handler@LIN_rxState
  3755     0129  297E               	goto	l268
  3756     012A                     l2662:
  3757                           
  3758                           ;D:\yiming\00work\FR743_B101L_RX01.X\mcc_generated_files\LINDrivers\lin_slave.c: 183:   
      +                                    LIN_queuePacket(LIN_packet.PID);
  3759     012A  084F               	movf	_LIN_packet,w
  3760     012B  3183  233E  3180   	fcall	_LIN_queuePacket
  3761     012E                     l2664:
  3762                           
  3763                           ;D:\yiming\00work\FR743_B101L_RX01.X\mcc_generated_files\LINDrivers\lin_slave.c: 184:   
      +                                    LIN_rxState = LIN_RX_RDY;
  3764     012E  3007               	movlw	7
  3765     012F  0020               	movlb	0	; select bank0
  3766     0130  00C7               	movwf	LIN_handler@LIN_rxState
  3767     0131                     l2666:
  3768                           
  3769                           ;D:\yiming\00work\FR743_B101L_RX01.X\mcc_generated_files\LINDrivers\lin_slave.c: 186:   
      +                                    LIN_processData();
  3770     0131  083F               	movf	_LIN_processData+1,w
  3771     0132  008A               	movwf	10
  3772     0133  083E               	movf	_LIN_processData,w
  3773     0134  000A               	callw
  3774     0135  3180               	pagesel	$
  3775     0136                     l2668:
  3776                           
  3777                           ;D:\yiming\00work\FR743_B101L_RX01.X\mcc_generated_files\LINDrivers\lin_slave.c: 189:   
      +                                    LIN_stopTimer();
  3778     0136  3186  267E  3180   	fcall	_LIN_stopTimer
  3779     0139                     l2670:
  3780                           
  3781                           ;D:\yiming\00work\FR743_B101L_RX01.X\mcc_generated_files\LINDrivers\lin_slave.c: 190:   
      +                                    rxDataIndex = 0;
  3782     0139  0020               	movlb	0	; select bank0
  3783     013A  01C6               	clrf	LIN_handler@rxDataIndex
  3784     013B                     l2672:
  3785                           
  3786                           ;D:\yiming\00work\FR743_B101L_RX01.X\mcc_generated_files\LINDrivers\lin_slave.c: 191:   
      +                                    LIN_rxInProgress = 0;
  3787     013B  01CB               	clrf	_LIN_rxInProgress
  3788     013C                     l2674:
  3789                           
  3790                           ;D:\yiming\00work\FR743_B101L_RX01.X\mcc_generated_files\LINDrivers\lin_slave.c: 192:   
      +                                    memset(LIN_packet.rawPacket, 0, sizeof(LIN_packet.rawPacket));
  3791     013C  3000               	movlw	0
  3792     013D  00F1               	movwf	memset@c
  3793     013E  00F2               	movwf	memset@c+1
  3794     013F  300D               	movlw	13
  3795     0140  00F3               	movwf	memset@n
  3796     0141  3000               	movlw	0
  3797     0142  00F4               	movwf	memset@n+1
  3798     0143  304F               	movlw	(low (_LIN_packet| 0))& (0+255)
  3799     0144  3185  2541  3180   	fcall	_memset
  3800     0147                     l2676:
  3801                           
  3802                           ;D:\yiming\00work\FR743_B101L_RX01.X\mcc_generated_files\LINDrivers\lin_slave.c: 194:   
      +                                    if(TXSTAbits.TRMT){
  3803     0147  0023               	movlb	3	; select bank3
  3804     0148  1C9E               	btfss	30,1	;volatile
  3805     0149  294B               	goto	u2181
  3806     014A  294C               	goto	u2180
  3807     014B                     u2181:
  3808     014B  2952               	goto	l2682
  3809     014C                     u2180:
  3810     014C                     l2678:
  3811                           
  3812                           ;D:\yiming\00work\FR743_B101L_RX01.X\mcc_generated_files\LINDrivers\lin_slave.c: 195:   
      +                                        LIN_enableRx();
  3813     014C  3186  2688  3180   	fcall	_LIN_enableRx
  3814     014F                     l2680:
  3815                           
  3816                           ;D:\yiming\00work\FR743_B101L_RX01.X\mcc_generated_files\LINDrivers\lin_slave.c: 196:   
      +                                        LIN_rxState = LIN_RX_IDLE;
  3817     014F  0020               	movlb	0	; select bank0
  3818     0150  01C7               	clrf	LIN_handler@LIN_rxState
  3819                           
  3820                           ;D:\yiming\00work\FR743_B101L_RX01.X\mcc_generated_files\LINDrivers\lin_slave.c: 197:   
      +                                    } else {
  3821     0151  297E               	goto	l268
  3822     0152                     l2682:
  3823                           
  3824                           ;D:\yiming\00work\FR743_B101L_RX01.X\mcc_generated_files\LINDrivers\lin_slave.c: 198:   
      +                                        LIN_rxState = LIN_RX_WAIT;
  3825     0152  3009               	movlw	9
  3826     0153  0020               	movlb	0	; select bank0
  3827     0154  00C7               	movwf	LIN_handler@LIN_rxState
  3828     0155  297E               	goto	l268
  3829     0156                     l2686:
  3830     0156  0847               	movf	LIN_handler@LIN_rxState,w
  3831     0157  00E5               	movwf	??_LIN_handler
  3832     0158  01E6               	clrf	??_LIN_handler+1
  3833                           
  3834                           ; Switch on 2 bytes has been partitioned into a top level switch of size 1, and 1 sub-sw
      +                          itches
  3835                           ; Switch size 1, requested type "simple"
  3836                           ; Number of cases is 1, Range of values is 0 to 0
  3837                           ; switch strategies available:
  3838                           ; Name         Instructions Cycles
  3839                           ; simple_byte            4     3 (average)
  3840                           ; direct_byte            8     6 (fixed)
  3841                           ; jumptable            260     6 (fixed)
  3842                           ;	Chosen strategy is simple_byte
  3843     0159  0866               	movf	??_LIN_handler+1,w
  3844     015A  3A00               	xorlw	0	; case 0
  3845     015B  1903               	skipnz
  3846     015C  295E               	goto	l2762
  3847     015D  297E               	goto	l268
  3848     015E                     l2762:
  3849                           
  3850                           ; Switch size 1, requested type "simple"
  3851                           ; Number of cases is 10, Range of values is 0 to 9
  3852                           ; switch strategies available:
  3853                           ; Name         Instructions Cycles
  3854                           ; direct_byte           26     6 (fixed)
  3855                           ; simple_byte           31    16 (average)
  3856                           ; jumptable            260     6 (fixed)
  3857                           ;	Chosen strategy is simple_byte
  3858     015E  0865               	movf	??_LIN_handler,w
  3859     015F  3A00               	xorlw	0	; case 0
  3860     0160  1903               	skipnz
  3861     0161  2862               	goto	l2596
  3862     0162  3A01               	xorlw	1	; case 1
  3863     0163  1903               	skipnz
  3864     0164  2876               	goto	l2606
  3865     0165  3A03               	xorlw	3	; case 2
  3866     0166  1903               	skipnz
  3867     0167  2890               	goto	l2616
  3868     0168  3A01               	xorlw	1	; case 3
  3869     0169  1903               	skipnz
  3870     016A  28A8               	goto	l2624
  3871     016B  3A07               	xorlw	7	; case 4
  3872     016C  1903               	skipnz
  3873     016D  28DF               	goto	l2644
  3874     016E  3A01               	xorlw	1	; case 5
  3875     016F  1903               	skipnz
  3876     0170  290B               	goto	l2654
  3877     0171  3A03               	xorlw	3	; case 6
  3878     0172  1903               	skipnz
  3879     0173  292A               	goto	l2662
  3880     0174  3A01               	xorlw	1	; case 7
  3881     0175  1903               	skipnz
  3882     0176  2931               	goto	l2666
  3883     0177  3A0F               	xorlw	15	; case 8
  3884     0178  1903               	skipnz
  3885     0179  2936               	goto	l2668
  3886     017A  3A01               	xorlw	1	; case 9
  3887     017B  1903               	skipnz
  3888     017C  2947               	goto	l2676
  3889     017D  297E               	goto	l268
  3890     017E                     l268:
  3891     017E  0008               	return
  3892     017F                     __end_of_LIN_handler:
  3893                           
  3894                           	psect	text17
  3895     017F                     __ptext17:	
  3896 ;; *************** function _processLIN *****************
  3897 ;; Defined at:
  3898 ;;		line 152 in file "D:\yiming\00work\FR743_B101L_RX01.X\mcc_generated_files\LINDrivers\lin_app.c"
  3899 ;; Parameters:    Size  Location     Type
  3900 ;;		None
  3901 ;; Auto vars:     Size  Location     Type
  3902 ;;  tempRxData      8    1[BANK0 ] unsigned char [8]
  3903 ;;  cmd             1    0[BANK0 ] unsigned char 
  3904 ;; Return value:  Size  Location     Type
  3905 ;;                  1    wreg      void 
  3906 ;; Registers used:
  3907 ;;		wreg, fsr0l, fsr0h, fsr1l, fsr1h, status,2, status,0, pclath, cstack
  3908 ;; Tracked objects:
  3909 ;;		On entry : 0/0
  3910 ;;		On exit  : 0/0
  3911 ;;		Unchanged: 0/0
  3912 ;; Data sizes:     COMMON   BANK0   BANK1   BANK2   BANK3   BANK4   BANK5   BANK6
  3913 ;;      Params:         0       0       0       0       0       0       0       0
  3914 ;;      Locals:         0       9       0       0       0       0       0       0
  3915 ;;      Temps:          0       0       0       0       0       0       0       0
  3916 ;;      Totals:         0       9       0       0       0       0       0       0
  3917 ;;Total ram usage:        9 bytes
  3918 ;; Hardware stack levels used: 1
  3919 ;; Hardware stack levels required when called: 6
  3920 ;; This function calls:
  3921 ;;		_DRL_OFF
  3922 ;;		_DRL_ON
  3923 ;;		_HIBEAM_OFF
  3924 ;;		_HIBEAM_ON
  3925 ;;		_LEFT_OFF
  3926 ;;		_LEFT_ON
  3927 ;;		_LIN_getPacket
  3928 ;;		_LOBEAM_OFF
  3929 ;;		_LOBEAM_ON
  3930 ;;		_POS_OFF
  3931 ;;		_POS_ON
  3932 ;;		_RIGHT_OFF
  3933 ;;		_RIGHT_ON
  3934 ;; This function is called by:
  3935 ;;		_LIN_Slave_Initialize
  3936 ;;		_LIN_handler
  3937 ;; This function uses a non-reentrant model
  3938 ;;
  3939                           
  3940     017F                     _processLIN:	
  3941                           ;psect for function _processLIN
  3942                           
  3943     017F                     l2106:	
  3944                           ;incstack = 0
  3945                           ; Regs used in _processLIN: [wreg-fsr1h+status,2+status,0+pclath+cstack]
  3946                           
  3947                           
  3948                           ;D:\yiming\00work\FR743_B101L_RX01.X\mcc_generated_files\LINDrivers\lin_app.c: 153:   ui
      +                          nt8_t tempRxData[8];;D:\yiming\00work\FR743_B101L_RX01.X\mcc_generated_files\LINDrivers\
      +                          lin_app.c: 154:   uint8_t cmd;;D:\yiming\00work\FR743_B101L_RX01.X\mcc_generated_files\L
      +                          INDrivers\lin_app.c: 156:   lampState.Byte = 0;
  3949     017F  0020               	movlb	0	; select bank0
  3950     0180  01CE               	clrf	_lampState
  3951                           
  3952                           ;D:\yiming\00work\FR743_B101L_RX01.X\mcc_generated_files\LINDrivers\lin_app.c: 157:   la
      +                          mpFlags.Byte = 0;
  3953     0181  01CC               	clrf	_lampFlags
  3954     0182                     l2108:
  3955                           
  3956                           ;D:\yiming\00work\FR743_B101L_RX01.X\mcc_generated_files\LINDrivers\lin_app.c: 160:   cm
      +                          d = LIN_getPacket(tempRxData);
  3957     0182  305D               	movlw	(low (processLIN@tempRxData| 0))& (0+255)
  3958     0183  3185  250B  3181   	fcall	_LIN_getPacket
  3959     0186  0020               	movlb	0	; select bank0
  3960     0187  00DC               	movwf	processLIN@cmd
  3961                           
  3962                           ;D:\yiming\00work\FR743_B101L_RX01.X\mcc_generated_files\LINDrivers\lin_app.c: 163:   sw
      +                          itch (cmd) {
  3963     0188  2A01               	goto	l2170
  3964     0189                     l2110:
  3965                           
  3966                           ;D:\yiming\00work\FR743_B101L_RX01.X\mcc_generated_files\LINDrivers\lin_app.c: 168:     
      +                          if ((tempRxData[2] == 0x49) || (tempRxData[2] == 0x51)) {
  3967     0189  3049               	movlw	73
  3968     018A  065F               	xorwf	processLIN@tempRxData+2,w
  3969     018B  1903               	btfsc	3,2
  3970     018C  298E               	goto	u1431
  3971     018D  298F               	goto	u1430
  3972     018E                     u1431:
  3973     018E  2995               	goto	l2114
  3974     018F                     u1430:
  3975     018F                     l2112:
  3976     018F  3051               	movlw	81
  3977     0190  065F               	xorwf	processLIN@tempRxData+2,w
  3978     0191  1D03               	btfss	3,2
  3979     0192  2994               	goto	u1441
  3980     0193  2995               	goto	u1440
  3981     0194                     u1441:
  3982     0194  2999               	goto	l2118
  3983     0195                     u1440:
  3984     0195                     l2114:
  3985                           
  3986                           ;D:\yiming\00work\FR743_B101L_RX01.X\mcc_generated_files\LINDrivers\lin_app.c: 169:     
      +                            lampState.mode = eOFF_DRL;
  3987     0195  30F8               	movlw	-8
  3988     0196  05CE               	andwf	_lampState,f
  3989     0197                     l2116:
  3990                           
  3991                           ;D:\yiming\00work\FR743_B101L_RX01.X\mcc_generated_files\LINDrivers\lin_app.c: 170:     
      +                            lampFlags.fDRL = 1;
  3992     0197  144C               	bsf	_lampFlags,0
  3993                           
  3994                           ;D:\yiming\00work\FR743_B101L_RX01.X\mcc_generated_files\LINDrivers\lin_app.c: 171:     
      +                          } else if ((tempRxData[2] == 0x0A) || (tempRxData[2] == 0x14) ||
  3995     0198  29E5               	goto	l2156
  3996     0199                     l2118:
  3997     0199  300A               	movlw	10
  3998     019A  065F               	xorwf	processLIN@tempRxData+2,w
  3999     019B  1903               	btfsc	3,2
  4000     019C  299E               	goto	u1451
  4001     019D  299F               	goto	u1450
  4002     019E                     u1451:
  4003     019E  29AB               	goto	l2124
  4004     019F                     u1450:
  4005     019F                     l2120:
  4006     019F  3014               	movlw	20
  4007     01A0  065F               	xorwf	processLIN@tempRxData+2,w
  4008     01A1  1903               	btfsc	3,2
  4009     01A2  29A4               	goto	u1461
  4010     01A3  29A5               	goto	u1460
  4011     01A4                     u1461:
  4012     01A4  29AB               	goto	l2124
  4013     01A5                     u1460:
  4014     01A5                     l2122:
  4015     01A5  3012               	movlw	18
  4016     01A6  065F               	xorwf	processLIN@tempRxData+2,w
  4017     01A7  1D03               	btfss	3,2
  4018     01A8  29AA               	goto	u1471
  4019     01A9  29AB               	goto	u1470
  4020     01AA                     u1471:
  4021     01AA  29B1               	goto	l2128
  4022     01AB                     u1470:
  4023     01AB                     l2124:
  4024                           
  4025                           ;D:\yiming\00work\FR743_B101L_RX01.X\mcc_generated_files\LINDrivers\lin_app.c: 172:     
      +                                     (tempRxData[2] == 0x12)) {;D:\yiming\00work\FR743_B101L_RX01.X\mcc_generated_
      +                          files\LINDrivers\lin_app.c: 173:       lampState.mode = ePOS;
  4026     01AB  084E               	movf	_lampState,w
  4027     01AC  39F8               	andlw	-8
  4028     01AD  3801               	iorlw	1
  4029     01AE  00CE               	movwf	_lampState
  4030     01AF                     l2126:
  4031                           
  4032                           ;D:\yiming\00work\FR743_B101L_RX01.X\mcc_generated_files\LINDrivers\lin_app.c: 174:     
      +                            lampFlags.fPOS = 1;
  4033     01AF  14CC               	bsf	_lampFlags,1
  4034                           
  4035                           ;D:\yiming\00work\FR743_B101L_RX01.X\mcc_generated_files\LINDrivers\lin_app.c: 175:     
      +                          } else if ((tempRxData[2] == 0x8C) ||
  4036     01B0  29E5               	goto	l2156
  4037     01B1                     l2128:
  4038     01B1  308C               	movlw	140
  4039     01B2  065F               	xorwf	processLIN@tempRxData+2,w
  4040     01B3  1903               	btfsc	3,2
  4041     01B4  29B6               	goto	u1481
  4042     01B5  29B7               	goto	u1480
  4043     01B6                     u1481:
  4044     01B6  29C3               	goto	l2134
  4045     01B7                     u1480:
  4046     01B7                     l2130:
  4047     01B7  3094               	movlw	148
  4048     01B8  065F               	xorwf	processLIN@tempRxData+2,w
  4049     01B9  1903               	btfsc	3,2
  4050     01BA  29BC               	goto	u1491
  4051     01BB  29BD               	goto	u1490
  4052     01BC                     u1491:
  4053     01BC  29C3               	goto	l2134
  4054     01BD                     u1490:
  4055     01BD                     l2132:
  4056     01BD  30AC               	movlw	172
  4057     01BE  065F               	xorwf	processLIN@tempRxData+2,w
  4058     01BF  1D03               	btfss	3,2
  4059     01C0  29C2               	goto	u1501
  4060     01C1  29C3               	goto	u1500
  4061     01C2                     u1501:
  4062     01C2  29C9               	goto	l2140
  4063     01C3                     u1500:
  4064     01C3                     l2134:
  4065                           
  4066                           ;D:\yiming\00work\FR743_B101L_RX01.X\mcc_generated_files\LINDrivers\lin_app.c: 177:     
      +                                     (tempRxData[2] == 0xAC)) {;D:\yiming\00work\FR743_B101L_RX01.X\mcc_generated_
      +                          files\LINDrivers\lin_app.c: 178:       lampState.mode = eAUTO_LOBEAM_POS;
  4067     01C3  084E               	movf	_lampState,w
  4068     01C4  39F8               	andlw	-8
  4069     01C5  3803               	iorlw	3
  4070     01C6  00CE               	movwf	_lampState
  4071     01C7                     l2136:
  4072                           
  4073                           ;D:\yiming\00work\FR743_B101L_RX01.X\mcc_generated_files\LINDrivers\lin_app.c: 179:     
      +                            lampFlags.fLOBEAM = 1;
  4074     01C7  154C               	bsf	_lampFlags,2
  4075     01C8  29AF               	goto	l2126
  4076     01C9                     l2140:
  4077     01C9  304C               	movlw	76
  4078     01CA  065F               	xorwf	processLIN@tempRxData+2,w
  4079     01CB  1D03               	btfss	3,2
  4080     01CC  29CE               	goto	u1511
  4081     01CD  29CF               	goto	u1510
  4082     01CE                     u1511:
  4083     01CE  29D4               	goto	l2146
  4084     01CF                     u1510:
  4085     01CF                     l2142:
  4086                           
  4087                           ;D:\yiming\00work\FR743_B101L_RX01.X\mcc_generated_files\LINDrivers\lin_app.c: 182:     
      +                            lampState.mode = eAUTO_DRL;
  4088     01CF  084E               	movf	_lampState,w
  4089     01D0  39F8               	andlw	-8
  4090     01D1  3802               	iorlw	2
  4091     01D2  00CE               	movwf	_lampState
  4092     01D3  2997               	goto	l2116
  4093     01D4                     l2146:
  4094     01D4  300B               	movlw	11
  4095     01D5  065F               	xorwf	processLIN@tempRxData+2,w
  4096     01D6  1903               	btfsc	3,2
  4097     01D7  29D9               	goto	u1521
  4098     01D8  29DA               	goto	u1520
  4099     01D9                     u1521:
  4100     01D9  29E0               	goto	l2150
  4101     01DA                     u1520:
  4102     01DA                     l2148:
  4103     01DA  3013               	movlw	19
  4104     01DB  065F               	xorwf	processLIN@tempRxData+2,w
  4105     01DC  1D03               	btfss	3,2
  4106     01DD  29DF               	goto	u1531
  4107     01DE  29E0               	goto	u1530
  4108     01DF                     u1531:
  4109     01DF  29E5               	goto	l127
  4110     01E0                     u1530:
  4111     01E0                     l2150:
  4112                           
  4113                           ;D:\yiming\00work\FR743_B101L_RX01.X\mcc_generated_files\LINDrivers\lin_app.c: 185:     
      +                                     (tempRxData[2] == 0x13)) {;D:\yiming\00work\FR743_B101L_RX01.X\mcc_generated_
      +                          files\LINDrivers\lin_app.c: 186:       lampState.mode = eLOBEAM;
  4114     01E0  084E               	movf	_lampState,w
  4115     01E1  39F8               	andlw	-8
  4116     01E2  3804               	iorlw	4
  4117     01E3  00CE               	movwf	_lampState
  4118     01E4  29C7               	goto	l2136
  4119     01E5                     l127:
  4120     01E5                     l2156:
  4121                           
  4122                           ;D:\yiming\00work\FR743_B101L_RX01.X\mcc_generated_files\LINDrivers\lin_app.c: 192:     
      +                          if ((tempRxData[1] & 0B10000000) == 0B10000000) {
  4123     01E5  1FDE               	btfss	processLIN@tempRxData+1,7
  4124     01E6  29E8               	goto	u1541
  4125     01E7  29E9               	goto	u1540
  4126     01E8                     u1541:
  4127     01E8  29EB               	goto	l137
  4128     01E9                     u1540:
  4129     01E9                     l2158:
  4130                           
  4131                           ;D:\yiming\00work\FR743_B101L_RX01.X\mcc_generated_files\LINDrivers\lin_app.c: 193:     
      +                            lampState.OverTaking = 1;
  4132     01E9  15CE               	bsf	_lampState,3
  4133                           
  4134                           ;D:\yiming\00work\FR743_B101L_RX01.X\mcc_generated_files\LINDrivers\lin_app.c: 194:     
      +                            lampFlags.fHIBEAM = 1;
  4135     01EA  15CC               	bsf	_lampFlags,3
  4136     01EB                     l137:	
  4137                           ;D:\yiming\00work\FR743_B101L_RX01.X\mcc_generated_files\LINDrivers\lin_app.c: 195:     
      +                          }
  4138                           
  4139                           
  4140                           ;D:\yiming\00work\FR743_B101L_RX01.X\mcc_generated_files\LINDrivers\lin_app.c: 198:     
      +                          if ((tempRxData[1] & 0B01000000) == 0B01000000) {
  4141     01EB  1F5E               	btfss	processLIN@tempRxData+1,6
  4142     01EC  29EE               	goto	u1551
  4143     01ED  29EF               	goto	u1550
  4144     01EE                     u1551:
  4145     01EE  29F1               	goto	l138
  4146     01EF                     u1550:
  4147     01EF                     l2160:
  4148                           
  4149                           ;D:\yiming\00work\FR743_B101L_RX01.X\mcc_generated_files\LINDrivers\lin_app.c: 199:     
      +                            lampState.HighBeam = 1;
  4150     01EF  174E               	bsf	_lampState,6
  4151                           
  4152                           ;D:\yiming\00work\FR743_B101L_RX01.X\mcc_generated_files\LINDrivers\lin_app.c: 200:     
      +                            lampFlags.fHIBEAM = 1;
  4153     01F0  15CC               	bsf	_lampFlags,3
  4154     01F1                     l138:	
  4155                           ;D:\yiming\00work\FR743_B101L_RX01.X\mcc_generated_files\LINDrivers\lin_app.c: 201:     
      +                          }
  4156                           
  4157                           
  4158                           ;D:\yiming\00work\FR743_B101L_RX01.X\mcc_generated_files\LINDrivers\lin_app.c: 204:     
      +                          if ((tempRxData[1] & 0B00010000) == 0B00010000) {
  4159     01F1  1E5E               	btfss	processLIN@tempRxData+1,4
  4160     01F2  29F4               	goto	u1561
  4161     01F3  29F5               	goto	u1560
  4162     01F4                     u1561:
  4163     01F4  29F7               	goto	l139
  4164     01F5                     u1560:
  4165     01F5                     l2162:
  4166                           
  4167                           ;D:\yiming\00work\FR743_B101L_RX01.X\mcc_generated_files\LINDrivers\lin_app.c: 205:     
      +                            lampState.TurnLeft = 1;
  4168     01F5  164E               	bsf	_lampState,4
  4169                           
  4170                           ;D:\yiming\00work\FR743_B101L_RX01.X\mcc_generated_files\LINDrivers\lin_app.c: 206:     
      +                            lampFlags.fLEFT = 1;
  4171     01F6  16CC               	bsf	_lampFlags,5
  4172     01F7                     l139:	
  4173                           ;D:\yiming\00work\FR743_B101L_RX01.X\mcc_generated_files\LINDrivers\lin_app.c: 207:     
      +                          }
  4174                           
  4175                           
  4176                           ;D:\yiming\00work\FR743_B101L_RX01.X\mcc_generated_files\LINDrivers\lin_app.c: 210:     
      +                          if ((tempRxData[1] & 0B00100000) == 0B00100000) {
  4177     01F7  1EDE               	btfss	processLIN@tempRxData+1,5
  4178     01F8  29FA               	goto	u1571
  4179     01F9  29FB               	goto	u1570
  4180     01FA                     u1571:
  4181     01FA  2A06               	goto	l141
  4182     01FB                     u1570:
  4183     01FB                     l2164:
  4184                           
  4185                           ;D:\yiming\00work\FR743_B101L_RX01.X\mcc_generated_files\LINDrivers\lin_app.c: 211:     
      +                            lampState.TurnRight = 1;
  4186     01FB  16CE               	bsf	_lampState,5
  4187                           
  4188                           ;D:\yiming\00work\FR743_B101L_RX01.X\mcc_generated_files\LINDrivers\lin_app.c: 212:     
      +                            lampFlags.fRIGHT = 1;
  4189     01FC  174C               	bsf	_lampFlags,6
  4190     01FD  2A06               	goto	l141
  4191     01FE                     l2166:
  4192                           
  4193                           ;D:\yiming\00work\FR743_B101L_RX01.X\mcc_generated_files\LINDrivers\lin_app.c: 233:     
      +                          lampState.Byte = 0;
  4194     01FE  01CE               	clrf	_lampState
  4195                           
  4196                           ;D:\yiming\00work\FR743_B101L_RX01.X\mcc_generated_files\LINDrivers\lin_app.c: 234:     
      +                          lampFlags.Byte = 0;
  4197     01FF  01CC               	clrf	_lampFlags
  4198                           
  4199                           ;D:\yiming\00work\FR743_B101L_RX01.X\mcc_generated_files\LINDrivers\lin_app.c: 235:     
      +                          break;
  4200     0200  2A06               	goto	l141
  4201     0201                     l2170:
  4202     0201  085C               	movf	processLIN@cmd,w
  4203                           
  4204                           ; Switch size 1, requested type "simple"
  4205                           ; Number of cases is 1, Range of values is 1 to 1
  4206                           ; switch strategies available:
  4207                           ; Name         Instructions Cycles
  4208                           ; simple_byte            4     3 (average)
  4209                           ; direct_byte           11     9 (fixed)
  4210                           ; jumptable            263     9 (fixed)
  4211                           ;	Chosen strategy is simple_byte
  4212     0202  3A01               	xorlw	1	; case 1
  4213     0203  1903               	skipnz
  4214     0204  2989               	goto	l2110
  4215     0205  29FE               	goto	l2166
  4216     0206                     l141:
  4217                           
  4218                           ;D:\yiming\00work\FR743_B101L_RX01.X\mcc_generated_files\LINDrivers\lin_app.c: 240:   if
      +                           (lampFlags.fDRL) {
  4219     0206  1C4C               	btfss	_lampFlags,0
  4220     0207  2A09               	goto	u1581
  4221     0208  2A0A               	goto	u1580
  4222     0209                     u1581:
  4223     0209  2A0E               	goto	l2174
  4224     020A                     u1580:
  4225     020A                     l2172:
  4226                           
  4227                           ;D:\yiming\00work\FR743_B101L_RX01.X\mcc_generated_files\LINDrivers\lin_app.c: 241:     
      +                          DRL_ON();
  4228     020A  3186  26CA  3181   	fcall	_DRL_ON
  4229                           
  4230                           ;D:\yiming\00work\FR743_B101L_RX01.X\mcc_generated_files\LINDrivers\lin_app.c: 242:   } 
      +                          else {
  4231     020D  2A11               	goto	l2176
  4232     020E                     l2174:
  4233                           
  4234                           ;D:\yiming\00work\FR743_B101L_RX01.X\mcc_generated_files\LINDrivers\lin_app.c: 243:     
      +                          DRL_OFF();
  4235     020E  3186  26CD  3181   	fcall	_DRL_OFF
  4236     0211                     l2176:
  4237                           
  4238                           ;D:\yiming\00work\FR743_B101L_RX01.X\mcc_generated_files\LINDrivers\lin_app.c: 246:   if
      +                           (lampFlags.fPOS) {
  4239     0211  0020               	movlb	0	; select bank0
  4240     0212  1CCC               	btfss	_lampFlags,1
  4241     0213  2A15               	goto	u1591
  4242     0214  2A16               	goto	u1590
  4243     0215                     u1591:
  4244     0215  2A1A               	goto	l2180
  4245     0216                     u1590:
  4246     0216                     l2178:
  4247                           
  4248                           ;D:\yiming\00work\FR743_B101L_RX01.X\mcc_generated_files\LINDrivers\lin_app.c: 247:     
      +                          POS_ON();
  4249     0216  3186  26B2  3181   	fcall	_POS_ON
  4250                           
  4251                           ;D:\yiming\00work\FR743_B101L_RX01.X\mcc_generated_files\LINDrivers\lin_app.c: 248:   } 
      +                          else {
  4252     0219  2A1D               	goto	l2182
  4253     021A                     l2180:
  4254                           
  4255                           ;D:\yiming\00work\FR743_B101L_RX01.X\mcc_generated_files\LINDrivers\lin_app.c: 249:     
      +                          POS_OFF();
  4256     021A  3186  26B5  3181   	fcall	_POS_OFF
  4257     021D                     l2182:
  4258                           
  4259                           ;D:\yiming\00work\FR743_B101L_RX01.X\mcc_generated_files\LINDrivers\lin_app.c: 252:   if
      +                           (lampFlags.fLOBEAM) {
  4260     021D  0020               	movlb	0	; select bank0
  4261     021E  1D4C               	btfss	_lampFlags,2
  4262     021F  2A21               	goto	u1601
  4263     0220  2A22               	goto	u1600
  4264     0221                     u1601:
  4265     0221  2A26               	goto	l2186
  4266     0222                     u1600:
  4267     0222                     l2184:
  4268                           
  4269                           ;D:\yiming\00work\FR743_B101L_RX01.X\mcc_generated_files\LINDrivers\lin_app.c: 253:     
      +                          LOBEAM_ON();
  4270     0222  3186  26B8  3181   	fcall	_LOBEAM_ON
  4271                           
  4272                           ;D:\yiming\00work\FR743_B101L_RX01.X\mcc_generated_files\LINDrivers\lin_app.c: 254:   } 
      +                          else {
  4273     0225  2A29               	goto	l2188
  4274     0226                     l2186:
  4275                           
  4276                           ;D:\yiming\00work\FR743_B101L_RX01.X\mcc_generated_files\LINDrivers\lin_app.c: 255:     
      +                          LOBEAM_OFF();
  4277     0226  3186  26BB  3181   	fcall	_LOBEAM_OFF
  4278     0229                     l2188:
  4279                           
  4280                           ;D:\yiming\00work\FR743_B101L_RX01.X\mcc_generated_files\LINDrivers\lin_app.c: 258:   if
      +                           (lampFlags.fHIBEAM) {
  4281     0229  0020               	movlb	0	; select bank0
  4282     022A  1DCC               	btfss	_lampFlags,3
  4283     022B  2A2D               	goto	u1611
  4284     022C  2A2E               	goto	u1610
  4285     022D                     u1611:
  4286     022D  2A32               	goto	l2192
  4287     022E                     u1610:
  4288     022E                     l2190:
  4289                           
  4290                           ;D:\yiming\00work\FR743_B101L_RX01.X\mcc_generated_files\LINDrivers\lin_app.c: 259:     
      +                          HIBEAM_ON();
  4291     022E  3186  26C4  3181   	fcall	_HIBEAM_ON
  4292                           
  4293                           ;D:\yiming\00work\FR743_B101L_RX01.X\mcc_generated_files\LINDrivers\lin_app.c: 260:   } 
      +                          else {
  4294     0231  2A35               	goto	l2194
  4295     0232                     l2192:
  4296                           
  4297                           ;D:\yiming\00work\FR743_B101L_RX01.X\mcc_generated_files\LINDrivers\lin_app.c: 261:     
      +                          HIBEAM_OFF();
  4298     0232  3186  26C7  3181   	fcall	_HIBEAM_OFF
  4299     0235                     l2194:
  4300                           
  4301                           ;D:\yiming\00work\FR743_B101L_RX01.X\mcc_generated_files\LINDrivers\lin_app.c: 264:   if
      +                           (lampFlags.fLEFT) {
  4302     0235  0020               	movlb	0	; select bank0
  4303     0236  1ECC               	btfss	_lampFlags,5
  4304     0237  2A39               	goto	u1621
  4305     0238  2A3A               	goto	u1620
  4306     0239                     u1621:
  4307     0239  2A3E               	goto	l2198
  4308     023A                     u1620:
  4309     023A                     l2196:
  4310                           
  4311                           ;D:\yiming\00work\FR743_B101L_RX01.X\mcc_generated_files\LINDrivers\lin_app.c: 265:     
      +                          LEFT_ON();
  4312     023A  3186  26BE  3181   	fcall	_LEFT_ON
  4313                           
  4314                           ;D:\yiming\00work\FR743_B101L_RX01.X\mcc_generated_files\LINDrivers\lin_app.c: 266:   } 
      +                          else {
  4315     023D  2A41               	goto	l2200
  4316     023E                     l2198:
  4317                           
  4318                           ;D:\yiming\00work\FR743_B101L_RX01.X\mcc_generated_files\LINDrivers\lin_app.c: 267:     
      +                          LEFT_OFF();
  4319     023E  3186  26C1  3181   	fcall	_LEFT_OFF
  4320     0241                     l2200:
  4321                           
  4322                           ;D:\yiming\00work\FR743_B101L_RX01.X\mcc_generated_files\LINDrivers\lin_app.c: 270:   if
      +                           (lampFlags.fRIGHT) {
  4323     0241  0020               	movlb	0	; select bank0
  4324     0242  1F4C               	btfss	_lampFlags,6
  4325     0243  2A45               	goto	u1631
  4326     0244  2A46               	goto	u1630
  4327     0245                     u1631:
  4328     0245  2A4A               	goto	l2204
  4329     0246                     u1630:
  4330     0246                     l2202:
  4331                           
  4332                           ;D:\yiming\00work\FR743_B101L_RX01.X\mcc_generated_files\LINDrivers\lin_app.c: 271:     
      +                          RIGHT_ON();
  4333     0246  3186  26AC  3181   	fcall	_RIGHT_ON
  4334                           
  4335                           ;D:\yiming\00work\FR743_B101L_RX01.X\mcc_generated_files\LINDrivers\lin_app.c: 272:   } 
      +                          else {
  4336     0249  2A4D               	goto	l155
  4337     024A                     l2204:
  4338                           
  4339                           ;D:\yiming\00work\FR743_B101L_RX01.X\mcc_generated_files\LINDrivers\lin_app.c: 273:     
      +                          RIGHT_OFF();
  4340     024A  3186  26AF  3181   	fcall	_RIGHT_OFF
  4341     024D                     l155:
  4342     024D  0008               	return
  4343     024E                     __end_of_processLIN:
  4344                           
  4345                           	psect	text18
  4346     06AC                     __ptext18:	
  4347 ;; *************** function _RIGHT_ON *****************
  4348 ;; Defined at:
  4349 ;;		line 140 in file "D:\yiming\00work\FR743_B101L_RX01.X\mcc_generated_files\LINDrivers\lin_app.c"
  4350 ;; Parameters:    Size  Location     Type
  4351 ;;		None
  4352 ;; Auto vars:     Size  Location     Type
  4353 ;;		None
  4354 ;; Return value:  Size  Location     Type
  4355 ;;                  1    wreg      void 
  4356 ;; Registers used:
  4357 ;;		None
  4358 ;; Tracked objects:
  4359 ;;		On entry : 0/0
  4360 ;;		On exit  : 0/0
  4361 ;;		Unchanged: 0/0
  4362 ;; Data sizes:     COMMON   BANK0   BANK1   BANK2   BANK3   BANK4   BANK5   BANK6
  4363 ;;      Params:         0       0       0       0       0       0       0       0
  4364 ;;      Locals:         0       0       0       0       0       0       0       0
  4365 ;;      Temps:          0       0       0       0       0       0       0       0
  4366 ;;      Totals:         0       0       0       0       0       0       0       0
  4367 ;;Total ram usage:        0 bytes
  4368 ;; Hardware stack levels used: 1
  4369 ;; Hardware stack levels required when called: 4
  4370 ;; This function calls:
  4371 ;;		Nothing
  4372 ;; This function is called by:
  4373 ;;		_processLIN
  4374 ;; This function uses a non-reentrant model
  4375 ;;
  4376                           
  4377     06AC                     _RIGHT_ON:	
  4378                           ;psect for function _RIGHT_ON
  4379                           
  4380     06AC                     l99:	
  4381                           ;incstack = 0
  4382                           ; Regs used in _RIGHT_ON: []
  4383                           
  4384     06AC  0022               	movlb	2	; select bank2
  4385     06AD  140D               	bsf	13,0	;volatile
  4386     06AE                     l101:
  4387     06AE  0008               	return
  4388     06AF                     __end_of_RIGHT_ON:
  4389                           
  4390                           	psect	text19
  4391     06AF                     __ptext19:	
  4392 ;; *************** function _RIGHT_OFF *****************
  4393 ;; Defined at:
  4394 ;;		line 141 in file "D:\yiming\00work\FR743_B101L_RX01.X\mcc_generated_files\LINDrivers\lin_app.c"
  4395 ;; Parameters:    Size  Location     Type
  4396 ;;		None
  4397 ;; Auto vars:     Size  Location     Type
  4398 ;;		None
  4399 ;; Return value:  Size  Location     Type
  4400 ;;                  1    wreg      void 
  4401 ;; Registers used:
  4402 ;;		None
  4403 ;; Tracked objects:
  4404 ;;		On entry : 0/0
  4405 ;;		On exit  : 0/0
  4406 ;;		Unchanged: 0/0
  4407 ;; Data sizes:     COMMON   BANK0   BANK1   BANK2   BANK3   BANK4   BANK5   BANK6
  4408 ;;      Params:         0       0       0       0       0       0       0       0
  4409 ;;      Locals:         0       0       0       0       0       0       0       0
  4410 ;;      Temps:          0       0       0       0       0       0       0       0
  4411 ;;      Totals:         0       0       0       0       0       0       0       0
  4412 ;;Total ram usage:        0 bytes
  4413 ;; Hardware stack levels used: 1
  4414 ;; Hardware stack levels required when called: 4
  4415 ;; This function calls:
  4416 ;;		Nothing
  4417 ;; This function is called by:
  4418 ;;		_processLIN
  4419 ;; This function uses a non-reentrant model
  4420 ;;
  4421                           
  4422     06AF                     _RIGHT_OFF:	
  4423                           ;psect for function _RIGHT_OFF
  4424                           
  4425     06AF                     l104:	
  4426                           ;incstack = 0
  4427                           ; Regs used in _RIGHT_OFF: []
  4428                           
  4429     06AF  0022               	movlb	2	; select bank2
  4430     06B0  100D               	bcf	13,0	;volatile
  4431     06B1                     l106:
  4432     06B1  0008               	return
  4433     06B2                     __end_of_RIGHT_OFF:
  4434                           
  4435                           	psect	text20
  4436     06B2                     __ptext20:	
  4437 ;; *************** function _POS_ON *****************
  4438 ;; Defined at:
  4439 ;;		line 130 in file "D:\yiming\00work\FR743_B101L_RX01.X\mcc_generated_files\LINDrivers\lin_app.c"
  4440 ;; Parameters:    Size  Location     Type
  4441 ;;		None
  4442 ;; Auto vars:     Size  Location     Type
  4443 ;;		None
  4444 ;; Return value:  Size  Location     Type
  4445 ;;                  1    wreg      void 
  4446 ;; Registers used:
  4447 ;;		None
  4448 ;; Tracked objects:
  4449 ;;		On entry : 0/0
  4450 ;;		On exit  : 0/0
  4451 ;;		Unchanged: 0/0
  4452 ;; Data sizes:     COMMON   BANK0   BANK1   BANK2   BANK3   BANK4   BANK5   BANK6
  4453 ;;      Params:         0       0       0       0       0       0       0       0
  4454 ;;      Locals:         0       0       0       0       0       0       0       0
  4455 ;;      Temps:          0       0       0       0       0       0       0       0
  4456 ;;      Totals:         0       0       0       0       0       0       0       0
  4457 ;;Total ram usage:        0 bytes
  4458 ;; Hardware stack levels used: 1
  4459 ;; Hardware stack levels required when called: 4
  4460 ;; This function calls:
  4461 ;;		Nothing
  4462 ;; This function is called by:
  4463 ;;		_processLIN
  4464 ;; This function uses a non-reentrant model
  4465 ;;
  4466                           
  4467     06B2                     _POS_ON:	
  4468                           ;psect for function _POS_ON
  4469                           
  4470     06B2                     l49:	
  4471                           ;incstack = 0
  4472                           ; Regs used in _POS_ON: []
  4473                           
  4474     06B2  0022               	movlb	2	; select bank2
  4475     06B3  168D               	bsf	13,5	;volatile
  4476     06B4                     l51:
  4477     06B4  0008               	return
  4478     06B5                     __end_of_POS_ON:
  4479                           
  4480                           	psect	text21
  4481     06B5                     __ptext21:	
  4482 ;; *************** function _POS_OFF *****************
  4483 ;; Defined at:
  4484 ;;		line 131 in file "D:\yiming\00work\FR743_B101L_RX01.X\mcc_generated_files\LINDrivers\lin_app.c"
  4485 ;; Parameters:    Size  Location     Type
  4486 ;;		None
  4487 ;; Auto vars:     Size  Location     Type
  4488 ;;		None
  4489 ;; Return value:  Size  Location     Type
  4490 ;;                  1    wreg      void 
  4491 ;; Registers used:
  4492 ;;		None
  4493 ;; Tracked objects:
  4494 ;;		On entry : 0/0
  4495 ;;		On exit  : 0/0
  4496 ;;		Unchanged: 0/0
  4497 ;; Data sizes:     COMMON   BANK0   BANK1   BANK2   BANK3   BANK4   BANK5   BANK6
  4498 ;;      Params:         0       0       0       0       0       0       0       0
  4499 ;;      Locals:         0       0       0       0       0       0       0       0
  4500 ;;      Temps:          0       0       0       0       0       0       0       0
  4501 ;;      Totals:         0       0       0       0       0       0       0       0
  4502 ;;Total ram usage:        0 bytes
  4503 ;; Hardware stack levels used: 1
  4504 ;; Hardware stack levels required when called: 4
  4505 ;; This function calls:
  4506 ;;		Nothing
  4507 ;; This function is called by:
  4508 ;;		_processLIN
  4509 ;; This function uses a non-reentrant model
  4510 ;;
  4511                           
  4512     06B5                     _POS_OFF:	
  4513                           ;psect for function _POS_OFF
  4514                           
  4515     06B5                     l54:	
  4516                           ;incstack = 0
  4517                           ; Regs used in _POS_OFF: []
  4518                           
  4519     06B5  0022               	movlb	2	; select bank2
  4520     06B6  128D               	bcf	13,5	;volatile
  4521     06B7                     l56:
  4522     06B7  0008               	return
  4523     06B8                     __end_of_POS_OFF:
  4524                           
  4525                           	psect	text22
  4526     06B8                     __ptext22:	
  4527 ;; *************** function _LOBEAM_ON *****************
  4528 ;; Defined at:
  4529 ;;		line 134 in file "D:\yiming\00work\FR743_B101L_RX01.X\mcc_generated_files\LINDrivers\lin_app.c"
  4530 ;; Parameters:    Size  Location     Type
  4531 ;;		None
  4532 ;; Auto vars:     Size  Location     Type
  4533 ;;		None
  4534 ;; Return value:  Size  Location     Type
  4535 ;;                  1    wreg      void 
  4536 ;; Registers used:
  4537 ;;		None
  4538 ;; Tracked objects:
  4539 ;;		On entry : 0/0
  4540 ;;		On exit  : 0/0
  4541 ;;		Unchanged: 0/0
  4542 ;; Data sizes:     COMMON   BANK0   BANK1   BANK2   BANK3   BANK4   BANK5   BANK6
  4543 ;;      Params:         0       0       0       0       0       0       0       0
  4544 ;;      Locals:         0       0       0       0       0       0       0       0
  4545 ;;      Temps:          0       0       0       0       0       0       0       0
  4546 ;;      Totals:         0       0       0       0       0       0       0       0
  4547 ;;Total ram usage:        0 bytes
  4548 ;; Hardware stack levels used: 1
  4549 ;; Hardware stack levels required when called: 4
  4550 ;; This function calls:
  4551 ;;		Nothing
  4552 ;; This function is called by:
  4553 ;;		_processLIN
  4554 ;; This function uses a non-reentrant model
  4555 ;;
  4556                           
  4557     06B8                     _LOBEAM_ON:	
  4558                           ;psect for function _LOBEAM_ON
  4559                           
  4560     06B8                     l69:	
  4561                           ;incstack = 0
  4562                           ; Regs used in _LOBEAM_ON: []
  4563                           
  4564     06B8  0022               	movlb	2	; select bank2
  4565     06B9  158D               	bsf	13,3	;volatile
  4566     06BA                     l71:
  4567     06BA  0008               	return
  4568     06BB                     __end_of_LOBEAM_ON:
  4569                           
  4570                           	psect	text23
  4571     06BB                     __ptext23:	
  4572 ;; *************** function _LOBEAM_OFF *****************
  4573 ;; Defined at:
  4574 ;;		line 135 in file "D:\yiming\00work\FR743_B101L_RX01.X\mcc_generated_files\LINDrivers\lin_app.c"
  4575 ;; Parameters:    Size  Location     Type
  4576 ;;		None
  4577 ;; Auto vars:     Size  Location     Type
  4578 ;;		None
  4579 ;; Return value:  Size  Location     Type
  4580 ;;                  1    wreg      void 
  4581 ;; Registers used:
  4582 ;;		None
  4583 ;; Tracked objects:
  4584 ;;		On entry : 0/0
  4585 ;;		On exit  : 0/0
  4586 ;;		Unchanged: 0/0
  4587 ;; Data sizes:     COMMON   BANK0   BANK1   BANK2   BANK3   BANK4   BANK5   BANK6
  4588 ;;      Params:         0       0       0       0       0       0       0       0
  4589 ;;      Locals:         0       0       0       0       0       0       0       0
  4590 ;;      Temps:          0       0       0       0       0       0       0       0
  4591 ;;      Totals:         0       0       0       0       0       0       0       0
  4592 ;;Total ram usage:        0 bytes
  4593 ;; Hardware stack levels used: 1
  4594 ;; Hardware stack levels required when called: 4
  4595 ;; This function calls:
  4596 ;;		Nothing
  4597 ;; This function is called by:
  4598 ;;		_processLIN
  4599 ;; This function uses a non-reentrant model
  4600 ;;
  4601                           
  4602     06BB                     _LOBEAM_OFF:	
  4603                           ;psect for function _LOBEAM_OFF
  4604                           
  4605     06BB                     l74:	
  4606                           ;incstack = 0
  4607                           ; Regs used in _LOBEAM_OFF: []
  4608                           
  4609     06BB  0022               	movlb	2	; select bank2
  4610     06BC  118D               	bcf	13,3	;volatile
  4611     06BD                     l76:
  4612     06BD  0008               	return
  4613     06BE                     __end_of_LOBEAM_OFF:
  4614                           
  4615                           	psect	text24
  4616     050B                     __ptext24:	
  4617 ;; *************** function _LIN_getPacket *****************
  4618 ;; Defined at:
  4619 ;;		line 215 in file "D:\yiming\00work\FR743_B101L_RX01.X\mcc_generated_files\LINDrivers\lin_slave.c"
  4620 ;; Parameters:    Size  Location     Type
  4621 ;;  data            1    wreg     PTR unsigned char 
  4622 ;;		 -> processLIN@tempRxData(8), 
  4623 ;; Auto vars:     Size  Location     Type
  4624 ;;  data            1   10[COMMON] PTR unsigned char 
  4625 ;;		 -> processLIN@tempRxData(8), 
  4626 ;;  cmd             1    9[COMMON] unsigned char 
  4627 ;; Return value:  Size  Location     Type
  4628 ;;                  1    wreg      unsigned char 
  4629 ;; Registers used:
  4630 ;;		wreg, fsr1l, fsr1h, status,2, status,0, pclath, cstack
  4631 ;; Tracked objects:
  4632 ;;		On entry : 0/0
  4633 ;;		On exit  : 0/0
  4634 ;;		Unchanged: 0/0
  4635 ;; Data sizes:     COMMON   BANK0   BANK1   BANK2   BANK3   BANK4   BANK5   BANK6
  4636 ;;      Params:         0       0       0       0       0       0       0       0
  4637 ;;      Locals:         2       0       0       0       0       0       0       0
  4638 ;;      Temps:          0       0       0       0       0       0       0       0
  4639 ;;      Totals:         2       0       0       0       0       0       0       0
  4640 ;;Total ram usage:        2 bytes
  4641 ;; Hardware stack levels used: 1
  4642 ;; Hardware stack levels required when called: 5
  4643 ;; This function calls:
  4644 ;;		_memcpy
  4645 ;;		_memset
  4646 ;; This function is called by:
  4647 ;;		_processLIN
  4648 ;; This function uses a non-reentrant model
  4649 ;;
  4650                           
  4651     050B                     _LIN_getPacket:	
  4652                           ;psect for function _LIN_getPacket
  4653                           
  4654                           
  4655                           ;incstack = 0
  4656                           ; Regs used in _LIN_getPacket: [wreg+fsr1l+fsr1h+status,2+status,0+pclath+cstack]
  4657                           ;LIN_getPacket@data stored from wreg
  4658     050B  00FA               	movwf	LIN_getPacket@data
  4659     050C                     l1976:
  4660                           
  4661                           ;D:\yiming\00work\FR743_B101L_RX01.X\mcc_generated_files\LINDrivers\lin_slave.c: 216:   
      +                            uint8_t cmd = LIN_packet.PID & 0x3F;
  4662     050C  0020               	movlb	0	; select bank0
  4663     050D  084F               	movf	_LIN_packet,w
  4664     050E  393F               	andlw	63
  4665     050F  00F9               	movwf	LIN_getPacket@cmd
  4666     0510                     l1978:
  4667                           
  4668                           ;D:\yiming\00work\FR743_B101L_RX01.X\mcc_generated_files\LINDrivers\lin_slave.c: 218:   
      +                            memcpy(data, LIN_packet.data, sizeof(LIN_packet.data));
  4669     0510  3050               	movlw	(low ((_LIN_packet| 0+1)))& (0+255)
  4670     0511  00F1               	movwf	memcpy@s1
  4671     0512  3008               	movlw	8
  4672     0513  00F2               	movwf	memcpy@n
  4673     0514  3000               	movlw	0
  4674     0515  00F3               	movwf	memcpy@n+1
  4675     0516  087A               	movf	LIN_getPacket@data,w
  4676     0517  3184  249F  3185   	fcall	_memcpy
  4677     051A                     l1980:
  4678                           
  4679                           ;D:\yiming\00work\FR743_B101L_RX01.X\mcc_generated_files\LINDrivers\lin_slave.c: 219:   
      +                            memset(LIN_packet.rawPacket, 0, sizeof(LIN_packet.rawPacket));
  4680     051A  3000               	movlw	0
  4681     051B  00F1               	movwf	memset@c
  4682     051C  00F2               	movwf	memset@c+1
  4683     051D  300D               	movlw	13
  4684     051E  00F3               	movwf	memset@n
  4685     051F  3000               	movlw	0
  4686     0520  00F4               	movwf	memset@n+1
  4687     0521  304F               	movlw	(low (_LIN_packet| 0))& (0+255)
  4688     0522  3185  2541  3185   	fcall	_memset
  4689     0525                     l1982:
  4690                           
  4691                           ;D:\yiming\00work\FR743_B101L_RX01.X\mcc_generated_files\LINDrivers\lin_slave.c: 221:   
      +                            return cmd;
  4692     0525  0879               	movf	LIN_getPacket@cmd,w
  4693     0526                     l277:
  4694     0526  0008               	return
  4695     0527                     __end_of_LIN_getPacket:
  4696                           
  4697                           	psect	text25
  4698     0541                     __ptext25:	
  4699 ;; *************** function _memset *****************
  4700 ;; Defined at:
  4701 ;;		line 3 in file "c:\PROGRA~1\MICROC~1\xc8\v2.46\pic\sources\c99\common\memset.c"
  4702 ;; Parameters:    Size  Location     Type
  4703 ;;  dest            1    wreg     PTR void 
  4704 ;;		 -> LIN_packet(13), 
  4705 ;;  c               2    1[COMMON] int 
  4706 ;;  n               2    3[COMMON] unsigned int 
  4707 ;; Auto vars:     Size  Location     Type
  4708 ;;  dest            1    7[COMMON] PTR void 
  4709 ;;		 -> LIN_packet(13), 
  4710 ;;  p               1    6[COMMON] PTR unsigned char 
  4711 ;;		 -> LIN_packet(13), 
  4712 ;; Return value:  Size  Location     Type
  4713 ;;                  1    wreg      PTR void 
  4714 ;; Registers used:
  4715 ;;		wreg, fsr1l, fsr1h, status,2, status,0
  4716 ;; Tracked objects:
  4717 ;;		On entry : 0/0
  4718 ;;		On exit  : 0/0
  4719 ;;		Unchanged: 0/0
  4720 ;; Data sizes:     COMMON   BANK0   BANK1   BANK2   BANK3   BANK4   BANK5   BANK6
  4721 ;;      Params:         4       0       0       0       0       0       0       0
  4722 ;;      Locals:         2       0       0       0       0       0       0       0
  4723 ;;      Temps:          1       0       0       0       0       0       0       0
  4724 ;;      Totals:         7       0       0       0       0       0       0       0
  4725 ;;Total ram usage:        7 bytes
  4726 ;; Hardware stack levels used: 1
  4727 ;; Hardware stack levels required when called: 4
  4728 ;; This function calls:
  4729 ;;		Nothing
  4730 ;; This function is called by:
  4731 ;;		_LIN_handler
  4732 ;;		_LIN_getPacket
  4733 ;; This function uses a non-reentrant model
  4734 ;;
  4735                           
  4736     0541                     _memset:	
  4737                           ;psect for function _memset
  4738                           
  4739                           
  4740                           ;incstack = 0
  4741                           ; Regs used in _memset: [wreg+fsr1l+fsr1h+status,2+status,0]
  4742                           ;memset@dest stored from wreg
  4743     0541  00F7               	movwf	memset@dest
  4744     0542                     l1942:
  4745     0542  0877               	movf	memset@dest,w
  4746     0543  00F6               	movwf	memset@p
  4747     0544  2D4E               	goto	l1948
  4748     0545                     l1944:
  4749     0545  0876               	movf	memset@p,w
  4750     0546  0086               	movwf	6
  4751     0547  0187               	clrf	7
  4752     0548  0871               	movf	memset@c,w
  4753     0549  0081               	movwf	1
  4754     054A                     l1946:
  4755     054A  3001               	movlw	1
  4756     054B  00F5               	movwf	??_memset
  4757     054C  0875               	movf	??_memset,w
  4758     054D  07F6               	addwf	memset@p,f
  4759     054E                     l1948:
  4760     054E  3001               	movlw	1
  4761     054F  02F3               	subwf	memset@n,f
  4762     0550  3000               	movlw	0
  4763     0551  3BF4               	subwfb	memset@n+1,f
  4764     0552  0A73               	incf	memset@n,w
  4765     0553  1D03               	skipz
  4766     0554  2D59               	goto	u1061
  4767     0555  0A74               	incf	memset@n+1,w
  4768     0556  1D03               	btfss	3,2
  4769     0557  2D59               	goto	u1061
  4770     0558  2D5A               	goto	u1060
  4771     0559                     u1061:
  4772     0559  2D45               	goto	l1944
  4773     055A                     u1060:
  4774     055A                     l1228:
  4775     055A  0008               	return
  4776     055B                     __end_of_memset:
  4777                           
  4778                           	psect	text26
  4779     06BE                     __ptext26:	
  4780 ;; *************** function _LEFT_ON *****************
  4781 ;; Defined at:
  4782 ;;		line 138 in file "D:\yiming\00work\FR743_B101L_RX01.X\mcc_generated_files\LINDrivers\lin_app.c"
  4783 ;; Parameters:    Size  Location     Type
  4784 ;;		None
  4785 ;; Auto vars:     Size  Location     Type
  4786 ;;		None
  4787 ;; Return value:  Size  Location     Type
  4788 ;;                  1    wreg      void 
  4789 ;; Registers used:
  4790 ;;		None
  4791 ;; Tracked objects:
  4792 ;;		On entry : 0/0
  4793 ;;		On exit  : 0/0
  4794 ;;		Unchanged: 0/0
  4795 ;; Data sizes:     COMMON   BANK0   BANK1   BANK2   BANK3   BANK4   BANK5   BANK6
  4796 ;;      Params:         0       0       0       0       0       0       0       0
  4797 ;;      Locals:         0       0       0       0       0       0       0       0
  4798 ;;      Temps:          0       0       0       0       0       0       0       0
  4799 ;;      Totals:         0       0       0       0       0       0       0       0
  4800 ;;Total ram usage:        0 bytes
  4801 ;; Hardware stack levels used: 1
  4802 ;; Hardware stack levels required when called: 4
  4803 ;; This function calls:
  4804 ;;		Nothing
  4805 ;; This function is called by:
  4806 ;;		_processLIN
  4807 ;; This function uses a non-reentrant model
  4808 ;;
  4809                           
  4810     06BE                     _LEFT_ON:	
  4811                           ;psect for function _LEFT_ON
  4812                           
  4813     06BE                     l89:	
  4814                           ;incstack = 0
  4815                           ; Regs used in _LEFT_ON: []
  4816                           
  4817     06BE  0022               	movlb	2	; select bank2
  4818     06BF  148D               	bsf	13,1	;volatile
  4819     06C0                     l91:
  4820     06C0  0008               	return
  4821     06C1                     __end_of_LEFT_ON:
  4822                           
  4823                           	psect	text27
  4824     06C1                     __ptext27:	
  4825 ;; *************** function _LEFT_OFF *****************
  4826 ;; Defined at:
  4827 ;;		line 139 in file "D:\yiming\00work\FR743_B101L_RX01.X\mcc_generated_files\LINDrivers\lin_app.c"
  4828 ;; Parameters:    Size  Location     Type
  4829 ;;		None
  4830 ;; Auto vars:     Size  Location     Type
  4831 ;;		None
  4832 ;; Return value:  Size  Location     Type
  4833 ;;                  1    wreg      void 
  4834 ;; Registers used:
  4835 ;;		None
  4836 ;; Tracked objects:
  4837 ;;		On entry : 0/0
  4838 ;;		On exit  : 0/0
  4839 ;;		Unchanged: 0/0
  4840 ;; Data sizes:     COMMON   BANK0   BANK1   BANK2   BANK3   BANK4   BANK5   BANK6
  4841 ;;      Params:         0       0       0       0       0       0       0       0
  4842 ;;      Locals:         0       0       0       0       0       0       0       0
  4843 ;;      Temps:          0       0       0       0       0       0       0       0
  4844 ;;      Totals:         0       0       0       0       0       0       0       0
  4845 ;;Total ram usage:        0 bytes
  4846 ;; Hardware stack levels used: 1
  4847 ;; Hardware stack levels required when called: 4
  4848 ;; This function calls:
  4849 ;;		Nothing
  4850 ;; This function is called by:
  4851 ;;		_processLIN
  4852 ;; This function uses a non-reentrant model
  4853 ;;
  4854                           
  4855     06C1                     _LEFT_OFF:	
  4856                           ;psect for function _LEFT_OFF
  4857                           
  4858     06C1                     l94:	
  4859                           ;incstack = 0
  4860                           ; Regs used in _LEFT_OFF: []
  4861                           
  4862     06C1  0022               	movlb	2	; select bank2
  4863     06C2  108D               	bcf	13,1	;volatile
  4864     06C3                     l96:
  4865     06C3  0008               	return
  4866     06C4                     __end_of_LEFT_OFF:
  4867                           
  4868                           	psect	text28
  4869     06C4                     __ptext28:	
  4870 ;; *************** function _HIBEAM_ON *****************
  4871 ;; Defined at:
  4872 ;;		line 136 in file "D:\yiming\00work\FR743_B101L_RX01.X\mcc_generated_files\LINDrivers\lin_app.c"
  4873 ;; Parameters:    Size  Location     Type
  4874 ;;		None
  4875 ;; Auto vars:     Size  Location     Type
  4876 ;;		None
  4877 ;; Return value:  Size  Location     Type
  4878 ;;                  1    wreg      void 
  4879 ;; Registers used:
  4880 ;;		None
  4881 ;; Tracked objects:
  4882 ;;		On entry : 0/0
  4883 ;;		On exit  : 0/0
  4884 ;;		Unchanged: 0/0
  4885 ;; Data sizes:     COMMON   BANK0   BANK1   BANK2   BANK3   BANK4   BANK5   BANK6
  4886 ;;      Params:         0       0       0       0       0       0       0       0
  4887 ;;      Locals:         0       0       0       0       0       0       0       0
  4888 ;;      Temps:          0       0       0       0       0       0       0       0
  4889 ;;      Totals:         0       0       0       0       0       0       0       0
  4890 ;;Total ram usage:        0 bytes
  4891 ;; Hardware stack levels used: 1
  4892 ;; Hardware stack levels required when called: 4
  4893 ;; This function calls:
  4894 ;;		Nothing
  4895 ;; This function is called by:
  4896 ;;		_processLIN
  4897 ;; This function uses a non-reentrant model
  4898 ;;
  4899                           
  4900     06C4                     _HIBEAM_ON:	
  4901                           ;psect for function _HIBEAM_ON
  4902                           
  4903     06C4                     l79:	
  4904                           ;incstack = 0
  4905                           ; Regs used in _HIBEAM_ON: []
  4906                           
  4907     06C4  0022               	movlb	2	; select bank2
  4908     06C5  150D               	bsf	13,2	;volatile
  4909     06C6                     l81:
  4910     06C6  0008               	return
  4911     06C7                     __end_of_HIBEAM_ON:
  4912                           
  4913                           	psect	text29
  4914     06C7                     __ptext29:	
  4915 ;; *************** function _HIBEAM_OFF *****************
  4916 ;; Defined at:
  4917 ;;		line 137 in file "D:\yiming\00work\FR743_B101L_RX01.X\mcc_generated_files\LINDrivers\lin_app.c"
  4918 ;; Parameters:    Size  Location     Type
  4919 ;;		None
  4920 ;; Auto vars:     Size  Location     Type
  4921 ;;		None
  4922 ;; Return value:  Size  Location     Type
  4923 ;;                  1    wreg      void 
  4924 ;; Registers used:
  4925 ;;		None
  4926 ;; Tracked objects:
  4927 ;;		On entry : 0/0
  4928 ;;		On exit  : 0/0
  4929 ;;		Unchanged: 0/0
  4930 ;; Data sizes:     COMMON   BANK0   BANK1   BANK2   BANK3   BANK4   BANK5   BANK6
  4931 ;;      Params:         0       0       0       0       0       0       0       0
  4932 ;;      Locals:         0       0       0       0       0       0       0       0
  4933 ;;      Temps:          0       0       0       0       0       0       0       0
  4934 ;;      Totals:         0       0       0       0       0       0       0       0
  4935 ;;Total ram usage:        0 bytes
  4936 ;; Hardware stack levels used: 1
  4937 ;; Hardware stack levels required when called: 4
  4938 ;; This function calls:
  4939 ;;		Nothing
  4940 ;; This function is called by:
  4941 ;;		_processLIN
  4942 ;; This function uses a non-reentrant model
  4943 ;;
  4944                           
  4945     06C7                     _HIBEAM_OFF:	
  4946                           ;psect for function _HIBEAM_OFF
  4947                           
  4948     06C7                     l84:	
  4949                           ;incstack = 0
  4950                           ; Regs used in _HIBEAM_OFF: []
  4951                           
  4952     06C7  0022               	movlb	2	; select bank2
  4953     06C8  110D               	bcf	13,2	;volatile
  4954     06C9                     l86:
  4955     06C9  0008               	return
  4956     06CA                     __end_of_HIBEAM_OFF:
  4957                           
  4958                           	psect	text30
  4959     06CA                     __ptext30:	
  4960 ;; *************** function _DRL_ON *****************
  4961 ;; Defined at:
  4962 ;;		line 132 in file "D:\yiming\00work\FR743_B101L_RX01.X\mcc_generated_files\LINDrivers\lin_app.c"
  4963 ;; Parameters:    Size  Location     Type
  4964 ;;		None
  4965 ;; Auto vars:     Size  Location     Type
  4966 ;;		None
  4967 ;; Return value:  Size  Location     Type
  4968 ;;                  1    wreg      void 
  4969 ;; Registers used:
  4970 ;;		None
  4971 ;; Tracked objects:
  4972 ;;		On entry : 0/0
  4973 ;;		On exit  : 0/0
  4974 ;;		Unchanged: 0/0
  4975 ;; Data sizes:     COMMON   BANK0   BANK1   BANK2   BANK3   BANK4   BANK5   BANK6
  4976 ;;      Params:         0       0       0       0       0       0       0       0
  4977 ;;      Locals:         0       0       0       0       0       0       0       0
  4978 ;;      Temps:          0       0       0       0       0       0       0       0
  4979 ;;      Totals:         0       0       0       0       0       0       0       0
  4980 ;;Total ram usage:        0 bytes
  4981 ;; Hardware stack levels used: 1
  4982 ;; Hardware stack levels required when called: 4
  4983 ;; This function calls:
  4984 ;;		Nothing
  4985 ;; This function is called by:
  4986 ;;		_processLIN
  4987 ;; This function uses a non-reentrant model
  4988 ;;
  4989                           
  4990     06CA                     _DRL_ON:	
  4991                           ;psect for function _DRL_ON
  4992                           
  4993     06CA                     l59:	
  4994                           ;incstack = 0
  4995                           ; Regs used in _DRL_ON: []
  4996                           
  4997     06CA  0022               	movlb	2	; select bank2
  4998     06CB  160D               	bsf	13,4	;volatile
  4999     06CC                     l61:
  5000     06CC  0008               	return
  5001     06CD                     __end_of_DRL_ON:
  5002                           
  5003                           	psect	text31
  5004     06CD                     __ptext31:	
  5005 ;; *************** function _DRL_OFF *****************
  5006 ;; Defined at:
  5007 ;;		line 133 in file "D:\yiming\00work\FR743_B101L_RX01.X\mcc_generated_files\LINDrivers\lin_app.c"
  5008 ;; Parameters:    Size  Location     Type
  5009 ;;		None
  5010 ;; Auto vars:     Size  Location     Type
  5011 ;;		None
  5012 ;; Return value:  Size  Location     Type
  5013 ;;                  1    wreg      void 
  5014 ;; Registers used:
  5015 ;;		None
  5016 ;; Tracked objects:
  5017 ;;		On entry : 0/0
  5018 ;;		On exit  : 0/0
  5019 ;;		Unchanged: 0/0
  5020 ;; Data sizes:     COMMON   BANK0   BANK1   BANK2   BANK3   BANK4   BANK5   BANK6
  5021 ;;      Params:         0       0       0       0       0       0       0       0
  5022 ;;      Locals:         0       0       0       0       0       0       0       0
  5023 ;;      Temps:          0       0       0       0       0       0       0       0
  5024 ;;      Totals:         0       0       0       0       0       0       0       0
  5025 ;;Total ram usage:        0 bytes
  5026 ;; Hardware stack levels used: 1
  5027 ;; Hardware stack levels required when called: 4
  5028 ;; This function calls:
  5029 ;;		Nothing
  5030 ;; This function is called by:
  5031 ;;		_processLIN
  5032 ;; This function uses a non-reentrant model
  5033 ;;
  5034                           
  5035     06CD                     _DRL_OFF:	
  5036                           ;psect for function _DRL_OFF
  5037                           
  5038     06CD                     l64:	
  5039                           ;incstack = 0
  5040                           ; Regs used in _DRL_OFF: []
  5041                           
  5042     06CD  0022               	movlb	2	; select bank2
  5043     06CE  120D               	bcf	13,4	;volatile
  5044     06CF                     l66:
  5045     06CF  0008               	return
  5046     06D0                     __end_of_DRL_OFF:
  5047                           
  5048                           	psect	text32
  5049     067E                     __ptext32:	
  5050 ;; *************** function _LIN_stopTimer *****************
  5051 ;; Defined at:
  5052 ;;		line 318 in file "D:\yiming\00work\FR743_B101L_RX01.X\mcc_generated_files\LINDrivers\lin_slave.c"
  5053 ;; Parameters:    Size  Location     Type
  5054 ;;		None
  5055 ;; Auto vars:     Size  Location     Type
  5056 ;;		None
  5057 ;; Return value:  Size  Location     Type
  5058 ;;                  1    wreg      void 
  5059 ;; Registers used:
  5060 ;;		status,2
  5061 ;; Tracked objects:
  5062 ;;		On entry : 0/0
  5063 ;;		On exit  : 0/0
  5064 ;;		Unchanged: 0/0
  5065 ;; Data sizes:     COMMON   BANK0   BANK1   BANK2   BANK3   BANK4   BANK5   BANK6
  5066 ;;      Params:         0       0       0       0       0       0       0       0
  5067 ;;      Locals:         0       0       0       0       0       0       0       0
  5068 ;;      Temps:          0       0       0       0       0       0       0       0
  5069 ;;      Totals:         0       0       0       0       0       0       0       0
  5070 ;;Total ram usage:        0 bytes
  5071 ;; Hardware stack levels used: 1
  5072 ;; Hardware stack levels required when called: 4
  5073 ;; This function calls:
  5074 ;;		Nothing
  5075 ;; This function is called by:
  5076 ;;		_LIN_init
  5077 ;;		_LIN_handler
  5078 ;; This function uses a non-reentrant model
  5079 ;;
  5080                           
  5081     067E                     _LIN_stopTimer:	
  5082                           ;psect for function _LIN_stopTimer
  5083                           
  5084     067E                     l1906:	
  5085                           ;incstack = 0
  5086                           ; Regs used in _LIN_stopTimer: [status,2]
  5087                           
  5088                           
  5089                           ;D:\yiming\00work\FR743_B101L_RX01.X\mcc_generated_files\LINDrivers\lin_slave.c: 319:   
      +                            __nop();
  5090     067E  0000               	nop
  5091     067F                     l1908:
  5092                           
  5093                           ;D:\yiming\00work\FR743_B101L_RX01.X\mcc_generated_files\LINDrivers\lin_slave.c: 321:   
      +                            CountCallBack = 0;
  5094     067F  0020               	movlb	0	; select bank0
  5095     0680  01C8               	clrf	_CountCallBack	;volatile
  5096                           
  5097                           ;D:\yiming\00work\FR743_B101L_RX01.X\mcc_generated_files\LINDrivers\lin_slave.c: 322:   
      +                            LIN_timerRunning = 0;
  5098     0681  01C9               	clrf	_LIN_timerRunning
  5099     0682                     l319:
  5100     0682  0008               	return
  5101     0683                     __end_of_LIN_stopTimer:
  5102                           
  5103                           	psect	text33
  5104     062A                     __ptext33:	
  5105 ;; *************** function _LIN_startTimer *****************
  5106 ;; Defined at:
  5107 ;;		line 297 in file "D:\yiming\00work\FR743_B101L_RX01.X\mcc_generated_files\LINDrivers\lin_slave.c"
  5108 ;; Parameters:    Size  Location     Type
  5109 ;;  timeout         1    wreg     unsigned char 
  5110 ;; Auto vars:     Size  Location     Type
  5111 ;;  timeout         1    2[COMMON] unsigned char 
  5112 ;; Return value:  Size  Location     Type
  5113 ;;                  1    wreg      void 
  5114 ;; Registers used:
  5115 ;;		wreg, status,2, status,0, pclath, cstack
  5116 ;; Tracked objects:
  5117 ;;		On entry : 0/0
  5118 ;;		On exit  : 0/0
  5119 ;;		Unchanged: 0/0
  5120 ;; Data sizes:     COMMON   BANK0   BANK1   BANK2   BANK3   BANK4   BANK5   BANK6
  5121 ;;      Params:         0       0       0       0       0       0       0       0
  5122 ;;      Locals:         1       0       0       0       0       0       0       0
  5123 ;;      Temps:          0       0       0       0       0       0       0       0
  5124 ;;      Totals:         1       0       0       0       0       0       0       0
  5125 ;;Total ram usage:        1 bytes
  5126 ;; Hardware stack levels used: 1
  5127 ;; Hardware stack levels required when called: 5
  5128 ;; This function calls:
  5129 ;;		_TMR0_WriteTimer
  5130 ;; This function is called by:
  5131 ;;		_LIN_handler
  5132 ;; This function uses a non-reentrant model
  5133 ;;
  5134                           
  5135     062A                     _LIN_startTimer:	
  5136                           ;psect for function _LIN_startTimer
  5137                           
  5138                           
  5139                           ;incstack = 0
  5140                           ; Regs used in _LIN_startTimer: [wreg+status,2+status,0+pclath+cstack]
  5141                           ;LIN_startTimer@timeout stored from wreg
  5142     062A  00F2               	movwf	LIN_startTimer@timeout
  5143     062B                     l2234:
  5144                           
  5145                           ;D:\yiming\00work\FR743_B101L_RX01.X\mcc_generated_files\LINDrivers\lin_slave.c: 298:   
      +                            LIN_timeout = timeout;
  5146     062B  0872               	movf	LIN_startTimer@timeout,w
  5147     062C  0020               	movlb	0	; select bank0
  5148     062D  00E8               	movwf	_LIN_timeout
  5149     062E                     l2236:
  5150                           
  5151                           ;D:\yiming\00work\FR743_B101L_RX01.X\mcc_generated_files\LINDrivers\lin_slave.c: 299:   
      +                            TMR0_WriteTimer(0);
  5152     062E  3000               	movlw	0
  5153     062F  3186  2683  3186   	fcall	_TMR0_WriteTimer
  5154     0632                     l2238:
  5155                           
  5156                           ;D:\yiming\00work\FR743_B101L_RX01.X\mcc_generated_files\LINDrivers\lin_slave.c: 300:   
      +                            __nop();
  5157     0632  0000               	nop
  5158     0633                     l2240:
  5159                           
  5160                           ;D:\yiming\00work\FR743_B101L_RX01.X\mcc_generated_files\LINDrivers\lin_slave.c: 301:   
      +                            LIN_timerRunning = 1;
  5161     0633  0020               	movlb	0	; select bank0
  5162     0634  01C9               	clrf	_LIN_timerRunning
  5163     0635  0AC9               	incf	_LIN_timerRunning,f
  5164     0636                     l309:
  5165     0636  0008               	return
  5166     0637                     __end_of_LIN_startTimer:
  5167                           
  5168                           	psect	text34
  5169     0683                     __ptext34:	
  5170 ;; *************** function _TMR0_WriteTimer *****************
  5171 ;; Defined at:
  5172 ;;		line 96 in file "D:\yiming\00work\FR743_B101L_RX01.X\mcc_generated_files\tmr0.c"
  5173 ;; Parameters:    Size  Location     Type
  5174 ;;  timerVal        1    wreg     unsigned char 
  5175 ;; Auto vars:     Size  Location     Type
  5176 ;;  timerVal        1    1[COMMON] unsigned char 
  5177 ;; Return value:  Size  Location     Type
  5178 ;;                  1    wreg      void 
  5179 ;; Registers used:
  5180 ;;		wreg
  5181 ;; Tracked objects:
  5182 ;;		On entry : 0/0
  5183 ;;		On exit  : 0/0
  5184 ;;		Unchanged: 0/0
  5185 ;; Data sizes:     COMMON   BANK0   BANK1   BANK2   BANK3   BANK4   BANK5   BANK6
  5186 ;;      Params:         0       0       0       0       0       0       0       0
  5187 ;;      Locals:         1       0       0       0       0       0       0       0
  5188 ;;      Temps:          0       0       0       0       0       0       0       0
  5189 ;;      Totals:         1       0       0       0       0       0       0       0
  5190 ;;Total ram usage:        1 bytes
  5191 ;; Hardware stack levels used: 1
  5192 ;; Hardware stack levels required when called: 4
  5193 ;; This function calls:
  5194 ;;		Nothing
  5195 ;; This function is called by:
  5196 ;;		_LIN_startTimer
  5197 ;; This function uses a non-reentrant model
  5198 ;;
  5199                           
  5200     0683                     _TMR0_WriteTimer:	
  5201                           ;psect for function _TMR0_WriteTimer
  5202                           
  5203                           
  5204                           ;incstack = 0
  5205                           ; Regs used in _TMR0_WriteTimer: [wreg]
  5206                           ;TMR0_WriteTimer@timerVal stored from wreg
  5207     0683  00F1               	movwf	TMR0_WriteTimer@timerVal
  5208     0684                     l2074:
  5209                           
  5210                           ;D:\yiming\00work\FR743_B101L_RX01.X\mcc_generated_files\tmr0.c: 96: void TMR0_WriteTime
      +                          r(uint8_t timerVal);D:\yiming\00work\FR743_B101L_RX01.X\mcc_generated_files\tmr0.c: 97: 
      +                          {;D:\yiming\00work\FR743_B101L_RX01.X\mcc_generated_files\tmr0.c: 99:     TMR0 = timerVa
      +                          l;
  5211     0684  0871               	movf	TMR0_WriteTimer@timerVal,w
  5212     0685  0020               	movlb	0	; select bank0
  5213     0686  0095               	movwf	21	;volatile
  5214     0687                     l597:
  5215     0687  0008               	return
  5216     0688                     __end_of_TMR0_WriteTimer:
  5217                           
  5218                           	psect	text35
  5219     033E                     __ptext35:	
  5220 ;; *************** function _LIN_queuePacket *****************
  5221 ;; Defined at:
  5222 ;;		line 69 in file "D:\yiming\00work\FR743_B101L_RX01.X\mcc_generated_files\LINDrivers\lin_slave.c"
  5223 ;; Parameters:    Size  Location     Type
  5224 ;;  cmd             1    wreg     unsigned char 
  5225 ;; Auto vars:     Size  Location     Type
  5226 ;;  cmd             1    5[BANK0 ] unsigned char 
  5227 ;;  i               1    6[BANK0 ] unsigned char 
  5228 ;;  tempSchedule    2    7[BANK0 ] PTR const struct .
  5229 ;;		 -> NULL(0), scheduleTable(4), 
  5230 ;; Return value:  Size  Location     Type
  5231 ;;                  1    wreg      void 
  5232 ;; Registers used:
  5233 ;;		wreg, fsr0l, fsr0h, fsr1l, fsr1h, status,2, status,0, pclath, cstack
  5234 ;; Tracked objects:
  5235 ;;		On entry : 0/0
  5236 ;;		On exit  : 0/0
  5237 ;;		Unchanged: 0/0
  5238 ;; Data sizes:     COMMON   BANK0   BANK1   BANK2   BANK3   BANK4   BANK5   BANK6
  5239 ;;      Params:         0       0       0       0       0       0       0       0
  5240 ;;      Locals:         0       4       0       0       0       0       0       0
  5241 ;;      Temps:          0       2       0       0       0       0       0       0
  5242 ;;      Totals:         0       6       0       0       0       0       0       0
  5243 ;;Total ram usage:        6 bytes
  5244 ;; Hardware stack levels used: 1
  5245 ;; Hardware stack levels required when called: 6
  5246 ;; This function calls:
  5247 ;;		_LIN_getChecksum
  5248 ;;		_LIN_sendPacket
  5249 ;;		_memcpy
  5250 ;; This function is called by:
  5251 ;;		_LIN_handler
  5252 ;; This function uses a non-reentrant model
  5253 ;;
  5254                           
  5255     033E                     _LIN_queuePacket:	
  5256                           ;psect for function _LIN_queuePacket
  5257                           
  5258                           
  5259                           ;incstack = 0
  5260                           ; Regs used in _LIN_queuePacket: [wreg-fsr1h+status,2+status,0+pclath+cstack]
  5261                           ;LIN_queuePacket@cmd stored from wreg
  5262     033E  0020               	movlb	0	; select bank0
  5263     033F  00E1               	movwf	LIN_queuePacket@cmd
  5264     0340                     l2566:
  5265                           
  5266                           ;D:\yiming\00work\FR743_B101L_RX01.X\mcc_generated_files\LINDrivers\lin_slave.c: 70:    
      +                           const lin_rx_cmd_t* tempSchedule = LIN_rxCommand;
  5267     0340  083D               	movf	_LIN_rxCommand+1,w
  5268     0341  00E4               	movwf	LIN_queuePacket@tempSchedule+1
  5269     0342  083C               	movf	_LIN_rxCommand,w
  5270     0343  00E3               	movwf	LIN_queuePacket@tempSchedule
  5271     0344                     l2568:
  5272                           
  5273                           ;D:\yiming\00work\FR743_B101L_RX01.X\mcc_generated_files\LINDrivers\lin_slave.c: 72:    
      +                           cmd &= 0x3F;
  5274     0344  303F               	movlw	63
  5275     0345  00DF               	movwf	??_LIN_queuePacket
  5276     0346  085F               	movf	??_LIN_queuePacket,w
  5277     0347  05E1               	andwf	LIN_queuePacket@cmd,f
  5278     0348                     l2570:
  5279                           
  5280                           ;D:\yiming\00work\FR743_B101L_RX01.X\mcc_generated_files\LINDrivers\lin_slave.c: 73:    
      +                           for(uint8_t i = 0; i < LIN_rxCommandLength; i++){
  5281     0348  01E2               	clrf	LIN_queuePacket@i
  5282     0349  2B5D               	goto	l2580
  5283     034A                     l2572:
  5284                           
  5285                           ;D:\yiming\00work\FR743_B101L_RX01.X\mcc_generated_files\LINDrivers\lin_slave.c: 74:    
      +                               if(cmd == tempSchedule->cmd){
  5286     034A  0863               	movf	LIN_queuePacket@tempSchedule,w
  5287     034B  0084               	movwf	4
  5288     034C  0864               	movf	LIN_queuePacket@tempSchedule+1,w
  5289     034D  0085               	movwf	5
  5290     034E  0800               	movf	0,w	;code access
  5291     034F  0661               	xorwf	LIN_queuePacket@cmd,w
  5292     0350  1D03               	skipz
  5293     0351  2B53               	goto	u2021
  5294     0352  2B54               	goto	u2020
  5295     0353                     u2021:
  5296     0353  2B55               	goto	l2576
  5297     0354                     u2020:
  5298     0354  2B63               	goto	l2582
  5299     0355                     l2576:
  5300                           
  5301                           ;D:\yiming\00work\FR743_B101L_RX01.X\mcc_generated_files\LINDrivers\lin_slave.c: 77:    
      +                               tempSchedule++;
  5302     0355  3004               	movlw	4
  5303     0356  07E3               	addwf	LIN_queuePacket@tempSchedule,f
  5304     0357  3000               	movlw	0
  5305     0358  3DE4               	addwfc	LIN_queuePacket@tempSchedule+1,f
  5306     0359                     l2578:
  5307                           
  5308                           ;D:\yiming\00work\FR743_B101L_RX01.X\mcc_generated_files\LINDrivers\lin_slave.c: 78:    
      +                           }
  5309     0359  3001               	movlw	1
  5310     035A  00DF               	movwf	??_LIN_queuePacket
  5311     035B  085F               	movf	??_LIN_queuePacket,w
  5312     035C  07E2               	addwf	LIN_queuePacket@i,f
  5313     035D                     l2580:
  5314     035D  084A               	movf	_LIN_rxCommandLength,w
  5315     035E  0262               	subwf	LIN_queuePacket@i,w
  5316     035F  1C03               	skipc
  5317     0360  2B62               	goto	u2031
  5318     0361  2B63               	goto	u2030
  5319     0362                     u2031:
  5320     0362  2B4A               	goto	l2572
  5321     0363                     u2030:
  5322     0363                     l2582:
  5323                           
  5324                           ;D:\yiming\00work\FR743_B101L_RX01.X\mcc_generated_files\LINDrivers\lin_slave.c: 80:    
      +                           LIN_packet.type = tempSchedule->type;
  5325     0363  0864               	movf	LIN_queuePacket@tempSchedule+1,w
  5326     0364  00E0               	movwf	??_LIN_queuePacket+1
  5327     0365  0863               	movf	LIN_queuePacket@tempSchedule,w
  5328     0366  00DF               	movwf	??_LIN_queuePacket
  5329     0367  3001               	movlw	1
  5330     0368  075F               	addwf	??_LIN_queuePacket,w
  5331     0369  0084               	movwf	4
  5332     036A  0860               	movf	??_LIN_queuePacket+1,w
  5333     036B  1803               	skipnc
  5334     036C  0A60               	incf	??_LIN_queuePacket+1,w
  5335     036D  0085               	movwf	5
  5336     036E  0800               	movf	0,w	;code access
  5337     036F  00D9               	movwf	_LIN_packet+10
  5338                           
  5339                           ;D:\yiming\00work\FR743_B101L_RX01.X\mcc_generated_files\LINDrivers\lin_slave.c: 81:    
      +                           LIN_packet.length = tempSchedule->length;
  5340     0370  0864               	movf	LIN_queuePacket@tempSchedule+1,w
  5341     0371  00E0               	movwf	??_LIN_queuePacket+1
  5342     0372  0863               	movf	LIN_queuePacket@tempSchedule,w
  5343     0373  00DF               	movwf	??_LIN_queuePacket
  5344     0374  3002               	movlw	2
  5345     0375  075F               	addwf	??_LIN_queuePacket,w
  5346     0376  0084               	movwf	4
  5347     0377  0860               	movf	??_LIN_queuePacket+1,w
  5348     0378  1803               	skipnc
  5349     0379  0A60               	incf	??_LIN_queuePacket+1,w
  5350     037A  0085               	movwf	5
  5351     037B  0800               	movf	0,w	;code access
  5352     037C  00DA               	movwf	_LIN_packet+11
  5353     037D                     l2584:
  5354                           
  5355                           ;D:\yiming\00work\FR743_B101L_RX01.X\mcc_generated_files\LINDrivers\lin_slave.c: 85:    
      +                           memcpy(LIN_packet.data, tempSchedule->data, LIN_packet.length);
  5356     037D  0864               	movf	LIN_queuePacket@tempSchedule+1,w
  5357     037E  00E0               	movwf	??_LIN_queuePacket+1
  5358     037F  0863               	movf	LIN_queuePacket@tempSchedule,w
  5359     0380  00DF               	movwf	??_LIN_queuePacket
  5360     0381  3003               	movlw	3
  5361     0382  075F               	addwf	??_LIN_queuePacket,w
  5362     0383  0084               	movwf	4
  5363     0384  0860               	movf	??_LIN_queuePacket+1,w
  5364     0385  1803               	skipnc
  5365     0386  0A60               	incf	??_LIN_queuePacket+1,w
  5366     0387  0085               	movwf	5
  5367     0388  0800               	movf	0,w	;code access
  5368     0389  00F1               	movwf	memcpy@s1
  5369     038A  085A               	movf	_LIN_packet+11,w
  5370     038B  00F2               	movwf	memcpy@n
  5371     038C  01F3               	clrf	memcpy@n+1
  5372     038D  1BF2               	btfsc	memcpy@n,7
  5373     038E  03F3               	decf	memcpy@n+1,f
  5374     038F  3050               	movlw	(low ((_LIN_packet| 0+1)))& (0+255)
  5375     0390  3184  249F  3183   	fcall	_memcpy
  5376     0393                     l2586:
  5377                           
  5378                           ;D:\yiming\00work\FR743_B101L_RX01.X\mcc_generated_files\LINDrivers\lin_slave.c: 88:    
      +                           LIN_packet.checksum = LIN_getChecksum(LIN_packet.length, LIN_packet.PID, LIN_packet.dat
      +                          a);
  5379     0393  0020               	movlb	0	; select bank0
  5380     0394  084F               	movf	_LIN_packet,w
  5381     0395  00F1               	movwf	LIN_getChecksum@pid
  5382     0396  3050               	movlw	(low ((_LIN_packet| 0+1)))& (0+255)
  5383     0397  00F2               	movwf	LIN_getChecksum@data
  5384     0398  085A               	movf	_LIN_packet+11,w
  5385     0399  3184  241E  3183   	fcall	_LIN_getChecksum
  5386     039C  0020               	movlb	0	; select bank0
  5387     039D  00D8               	movwf	_LIN_packet+9
  5388     039E                     l2588:
  5389                           
  5390                           ;D:\yiming\00work\FR743_B101L_RX01.X\mcc_generated_files\LINDrivers\lin_slave.c: 89:    
      +                           LIN_sendPacket(LIN_packet.length, LIN_packet.PID, LIN_packet.data);
  5391     039E  084F               	movf	_LIN_packet,w
  5392     039F  00F9               	movwf	LIN_sendPacket@pid
  5393     03A0  3050               	movlw	(low ((_LIN_packet| 0+1)))& (0+255)
  5394     03A1  00FA               	movwf	LIN_sendPacket@data
  5395     03A2  085A               	movf	_LIN_packet+11,w
  5396     03A3  3184  24C4  3183   	fcall	_LIN_sendPacket
  5397     03A6                     l229:
  5398     03A6  0008               	return
  5399     03A7                     __end_of_LIN_queuePacket:
  5400                           
  5401                           	psect	text36
  5402     049F                     __ptext36:	
  5403 ;; *************** function _memcpy *****************
  5404 ;; Defined at:
  5405 ;;		line 4 in file "c:\PROGRA~1\MICROC~1\xc8\v2.46\pic\sources\c99\common\memcpy.c"
  5406 ;; Parameters:    Size  Location     Type
  5407 ;;  d1              1    wreg     PTR void 
  5408 ;;		 -> LIN_packet(13), processLIN@tempRxData(8), 
  5409 ;;  s1              1    1[COMMON] PTR const void 
  5410 ;;		 -> LIN_packet$data(8), LIN_packet(13), SW_STATE_Data(8), 
  5411 ;;  n               2    2[COMMON] unsigned int 
  5412 ;; Auto vars:     Size  Location     Type
  5413 ;;  d1              1    8[COMMON] PTR void 
  5414 ;;		 -> LIN_packet(13), processLIN@tempRxData(8), 
  5415 ;;  s               1    7[COMMON] PTR const unsigned char 
  5416 ;;		 -> LIN_packet$data(8), LIN_packet(13), SW_STATE_Data(8), 
  5417 ;;  d               1    6[COMMON] PTR unsigned char 
  5418 ;;		 -> LIN_packet(13), processLIN@tempRxData(8), 
  5419 ;;  tmp             1    5[COMMON] unsigned char 
  5420 ;; Return value:  Size  Location     Type
  5421 ;;                  1    wreg      PTR void 
  5422 ;; Registers used:
  5423 ;;		wreg, fsr1l, fsr1h, status,2, status,0
  5424 ;; Tracked objects:
  5425 ;;		On entry : 0/0
  5426 ;;		On exit  : 0/0
  5427 ;;		Unchanged: 0/0
  5428 ;; Data sizes:     COMMON   BANK0   BANK1   BANK2   BANK3   BANK4   BANK5   BANK6
  5429 ;;      Params:         3       0       0       0       0       0       0       0
  5430 ;;      Locals:         4       0       0       0       0       0       0       0
  5431 ;;      Temps:          1       0       0       0       0       0       0       0
  5432 ;;      Totals:         8       0       0       0       0       0       0       0
  5433 ;;Total ram usage:        8 bytes
  5434 ;; Hardware stack levels used: 1
  5435 ;; Hardware stack levels required when called: 4
  5436 ;; This function calls:
  5437 ;;		Nothing
  5438 ;; This function is called by:
  5439 ;;		_LIN_queuePacket
  5440 ;;		_LIN_getPacket
  5441 ;; This function uses a non-reentrant model
  5442 ;;
  5443                           
  5444     049F                     _memcpy:	
  5445                           ;psect for function _memcpy
  5446                           
  5447                           
  5448                           ;incstack = 0
  5449                           ; Regs used in _memcpy: [wreg+fsr1l+fsr1h+status,2+status,0]
  5450                           ;memcpy@d1 stored from wreg
  5451     049F  00F8               	movwf	memcpy@d1
  5452     04A0                     l1914:
  5453     04A0  0871               	movf	memcpy@s1,w
  5454     04A1  00F7               	movwf	memcpy@s
  5455     04A2  0878               	movf	memcpy@d1,w
  5456     04A3  00F6               	movwf	memcpy@d
  5457     04A4  2CB7               	goto	l1219
  5458     04A5                     l1916:
  5459     04A5  0877               	movf	memcpy@s,w
  5460     04A6  0086               	movwf	6
  5461     04A7  0187               	clrf	7
  5462     04A8  0801               	movf	1,w
  5463     04A9  00F5               	movwf	memcpy@tmp
  5464     04AA                     l1918:
  5465     04AA  3001               	movlw	1
  5466     04AB  00F4               	movwf	??_memcpy
  5467     04AC  0874               	movf	??_memcpy,w
  5468     04AD  07F7               	addwf	memcpy@s,f
  5469     04AE                     l1920:
  5470     04AE  0876               	movf	memcpy@d,w
  5471     04AF  0086               	movwf	6
  5472     04B0  0187               	clrf	7
  5473     04B1  0875               	movf	memcpy@tmp,w
  5474     04B2  0081               	movwf	1
  5475     04B3  3001               	movlw	1
  5476     04B4  00F4               	movwf	??_memcpy
  5477     04B5  0874               	movf	??_memcpy,w
  5478     04B6  07F6               	addwf	memcpy@d,f
  5479     04B7                     l1219:
  5480     04B7  3001               	movlw	1
  5481     04B8  02F2               	subwf	memcpy@n,f
  5482     04B9  3000               	movlw	0
  5483     04BA  3BF3               	subwfb	memcpy@n+1,f
  5484     04BB  0A72               	incf	memcpy@n,w
  5485     04BC  1D03               	skipz
  5486     04BD  2CC2               	goto	u1031
  5487     04BE  0A73               	incf	memcpy@n+1,w
  5488     04BF  1D03               	btfss	3,2
  5489     04C0  2CC2               	goto	u1031
  5490     04C1  2CC3               	goto	u1030
  5491     04C2                     u1031:
  5492     04C2  2CA5               	goto	l1916
  5493     04C3                     u1030:
  5494     04C3                     l1222:
  5495     04C3  0008               	return
  5496     04C4                     __end_of_memcpy:
  5497                           
  5498                           	psect	text37
  5499     04C4                     __ptext37:	
  5500 ;; *************** function _LIN_sendPacket *****************
  5501 ;; Defined at:
  5502 ;;		line 205 in file "D:\yiming\00work\FR743_B101L_RX01.X\mcc_generated_files\LINDrivers\lin_slave.c"
  5503 ;; Parameters:    Size  Location     Type
  5504 ;;  length          1    wreg     unsigned char 
  5505 ;;  pid             1    9[COMMON] unsigned char 
  5506 ;;  data            1   10[COMMON] PTR unsigned char 
  5507 ;;		 -> LIN_packet(13), 
  5508 ;; Auto vars:     Size  Location     Type
  5509 ;;  length          1    1[BANK0 ] unsigned char 
  5510 ;;  i               1    2[BANK0 ] unsigned char 
  5511 ;; Return value:  Size  Location     Type
  5512 ;;                  1    wreg      void 
  5513 ;; Registers used:
  5514 ;;		wreg, fsr1l, fsr1h, status,2, status,0, pclath, cstack
  5515 ;; Tracked objects:
  5516 ;;		On entry : 0/0
  5517 ;;		On exit  : 0/0
  5518 ;;		Unchanged: 0/0
  5519 ;; Data sizes:     COMMON   BANK0   BANK1   BANK2   BANK3   BANK4   BANK5   BANK6
  5520 ;;      Params:         2       0       0       0       0       0       0       0
  5521 ;;      Locals:         0       2       0       0       0       0       0       0
  5522 ;;      Temps:          0       1       0       0       0       0       0       0
  5523 ;;      Totals:         2       3       0       0       0       0       0       0
  5524 ;;Total ram usage:        5 bytes
  5525 ;; Hardware stack levels used: 1
  5526 ;; Hardware stack levels required when called: 5
  5527 ;; This function calls:
  5528 ;;		_EUSART_Write
  5529 ;;		_LIN_getChecksum
  5530 ;; This function is called by:
  5531 ;;		_LIN_queuePacket
  5532 ;; This function uses a non-reentrant model
  5533 ;;
  5534                           
  5535     04C4                     _LIN_sendPacket:	
  5536                           ;psect for function _LIN_sendPacket
  5537                           
  5538                           
  5539                           ;incstack = 0
  5540                           ; Regs used in _LIN_sendPacket: [wreg+fsr1l+fsr1h+status,2+status,0+pclath+cstack]
  5541                           ;LIN_sendPacket@length stored from wreg
  5542     04C4  0020               	movlb	0	; select bank0
  5543     04C5  00DD               	movwf	LIN_sendPacket@length
  5544     04C6                     l2556:
  5545                           
  5546                           ;D:\yiming\00work\FR743_B101L_RX01.X\mcc_generated_files\LINDrivers\lin_slave.c: 208:   
      +                            for(uint8_t i = 0; i < length; i++){
  5547     04C6  01DE               	clrf	LIN_sendPacket@i
  5548     04C7  2CD7               	goto	l2562
  5549     04C8                     l2558:
  5550                           
  5551                           ;D:\yiming\00work\FR743_B101L_RX01.X\mcc_generated_files\LINDrivers\lin_slave.c: 209:   
      +                                EUSART_Write(*(data + i));
  5552     04C8  085E               	movf	LIN_sendPacket@i,w
  5553     04C9  077A               	addwf	LIN_sendPacket@data,w
  5554     04CA  00DC               	movwf	??_LIN_sendPacket
  5555     04CB  085C               	movf	??_LIN_sendPacket,w
  5556     04CC  0086               	movwf	6
  5557     04CD  0187               	clrf	7
  5558     04CE  0801               	movf	1,w
  5559     04CF  3184  2451  3184   	fcall	_EUSART_Write
  5560     04D2                     l2560:
  5561                           
  5562                           ;D:\yiming\00work\FR743_B101L_RX01.X\mcc_generated_files\LINDrivers\lin_slave.c: 210:   
      +                            }
  5563     04D2  3001               	movlw	1
  5564     04D3  0020               	movlb	0	; select bank0
  5565     04D4  00DC               	movwf	??_LIN_sendPacket
  5566     04D5  085C               	movf	??_LIN_sendPacket,w
  5567     04D6  07DE               	addwf	LIN_sendPacket@i,f
  5568     04D7                     l2562:
  5569     04D7  085D               	movf	LIN_sendPacket@length,w
  5570     04D8  025E               	subwf	LIN_sendPacket@i,w
  5571     04D9  1C03               	skipc
  5572     04DA  2CDC               	goto	u2011
  5573     04DB  2CDD               	goto	u2010
  5574     04DC                     u2011:
  5575     04DC  2CC8               	goto	l2558
  5576     04DD                     u2010:
  5577     04DD                     l2564:
  5578                           
  5579                           ;D:\yiming\00work\FR743_B101L_RX01.X\mcc_generated_files\LINDrivers\lin_slave.c: 212:   
      +                            EUSART_Write(LIN_getChecksum(length, pid, data));
  5580     04DD  0879               	movf	LIN_sendPacket@pid,w
  5581     04DE  00F1               	movwf	LIN_getChecksum@pid
  5582     04DF  087A               	movf	LIN_sendPacket@data,w
  5583     04E0  00F2               	movwf	LIN_getChecksum@data
  5584     04E1  085D               	movf	LIN_sendPacket@length,w
  5585     04E2  3184  241E  3184   	fcall	_LIN_getChecksum
  5586     04E5  3184  2451  3184   	fcall	_EUSART_Write
  5587     04E8                     l274:
  5588     04E8  0008               	return
  5589     04E9                     __end_of_LIN_sendPacket:
  5590                           
  5591                           	psect	text38
  5592     041E                     __ptext38:	
  5593 ;; *************** function _LIN_getChecksum *****************
  5594 ;; Defined at:
  5595 ;;		line 284 in file "D:\yiming\00work\FR743_B101L_RX01.X\mcc_generated_files\LINDrivers\lin_slave.c"
  5596 ;; Parameters:    Size  Location     Type
  5597 ;;  length          1    wreg     unsigned char 
  5598 ;;  pid             1    1[COMMON] unsigned char 
  5599 ;;  data            1    2[COMMON] PTR unsigned char 
  5600 ;;		 -> LIN_packet(13), 
  5601 ;; Auto vars:     Size  Location     Type
  5602 ;;  length          1    5[COMMON] unsigned char 
  5603 ;;  i               1    6[COMMON] unsigned char 
  5604 ;;  checksum        2    7[COMMON] unsigned short 
  5605 ;; Return value:  Size  Location     Type
  5606 ;;                  1    wreg      unsigned char 
  5607 ;; Registers used:
  5608 ;;		wreg, fsr1l, fsr1h, status,2, status,0
  5609 ;; Tracked objects:
  5610 ;;		On entry : 0/0
  5611 ;;		On exit  : 0/0
  5612 ;;		Unchanged: 0/0
  5613 ;; Data sizes:     COMMON   BANK0   BANK1   BANK2   BANK3   BANK4   BANK5   BANK6
  5614 ;;      Params:         2       0       0       0       0       0       0       0
  5615 ;;      Locals:         4       0       0       0       0       0       0       0
  5616 ;;      Temps:          2       0       0       0       0       0       0       0
  5617 ;;      Totals:         8       0       0       0       0       0       0       0
  5618 ;;Total ram usage:        8 bytes
  5619 ;; Hardware stack levels used: 1
  5620 ;; Hardware stack levels required when called: 4
  5621 ;; This function calls:
  5622 ;;		Nothing
  5623 ;; This function is called by:
  5624 ;;		_LIN_queuePacket
  5625 ;;		_LIN_handler
  5626 ;;		_LIN_sendPacket
  5627 ;; This function uses a non-reentrant model
  5628 ;;
  5629                           
  5630     041E                     _LIN_getChecksum:	
  5631                           ;psect for function _LIN_getChecksum
  5632                           
  5633                           
  5634                           ;incstack = 0
  5635                           ; Regs used in _LIN_getChecksum: [wreg+fsr1l+fsr1h+status,2+status,0]
  5636                           ;LIN_getChecksum@length stored from wreg
  5637     041E  00F5               	movwf	LIN_getChecksum@length
  5638     041F                     l1922:
  5639                           
  5640                           ;D:\yiming\00work\FR743_B101L_RX01.X\mcc_generated_files\LINDrivers\lin_slave.c: 285:   
      +                            uint16_t checksum = pid;
  5641     041F  0871               	movf	LIN_getChecksum@pid,w
  5642     0420  00F3               	movwf	??_LIN_getChecksum
  5643     0421  01F4               	clrf	??_LIN_getChecksum+1
  5644     0422  0873               	movf	??_LIN_getChecksum,w
  5645     0423  00F7               	movwf	LIN_getChecksum@checksum
  5646     0424  0874               	movf	??_LIN_getChecksum+1,w
  5647     0425  00F8               	movwf	LIN_getChecksum@checksum+1
  5648     0426                     l1924:
  5649                           
  5650                           ;D:\yiming\00work\FR743_B101L_RX01.X\mcc_generated_files\LINDrivers\lin_slave.c: 287:   
      +                            for (uint8_t i = 0; i < length; i++){
  5651     0426  01F6               	clrf	LIN_getChecksum@i
  5652     0427  2C47               	goto	l1936
  5653     0428                     l1926:
  5654                           
  5655                           ;D:\yiming\00work\FR743_B101L_RX01.X\mcc_generated_files\LINDrivers\lin_slave.c: 288:   
      +                                checksum = checksum + *data++;
  5656     0428  0872               	movf	LIN_getChecksum@data,w
  5657     0429  0086               	movwf	6
  5658     042A  0187               	clrf	7
  5659     042B  0801               	movf	1,w
  5660     042C  0777               	addwf	LIN_getChecksum@checksum,w
  5661     042D  00F7               	movwf	LIN_getChecksum@checksum
  5662     042E  0878               	movf	LIN_getChecksum@checksum+1,w
  5663     042F  1803               	skipnc
  5664     0430  0A78               	incf	LIN_getChecksum@checksum+1,w
  5665     0431  00F8               	movwf	LIN_getChecksum@checksum+1
  5666     0432                     l1928:
  5667     0432  3001               	movlw	1
  5668     0433  00F3               	movwf	??_LIN_getChecksum
  5669     0434  0873               	movf	??_LIN_getChecksum,w
  5670     0435  07F2               	addwf	LIN_getChecksum@data,f
  5671     0436                     l1930:
  5672                           
  5673                           ;D:\yiming\00work\FR743_B101L_RX01.X\mcc_generated_files\LINDrivers\lin_slave.c: 289:   
      +                                if(checksum > 0xFF)
  5674     0436  3001               	movlw	1
  5675     0437  0278               	subwf	LIN_getChecksum@checksum+1,w
  5676     0438  3000               	movlw	0
  5677     0439  1903               	skipnz
  5678     043A  0277               	subwf	LIN_getChecksum@checksum,w
  5679     043B  1C03               	skipc
  5680     043C  2C3E               	goto	u1041
  5681     043D  2C3F               	goto	u1040
  5682     043E                     u1041:
  5683     043E  2C43               	goto	l1934
  5684     043F                     u1040:
  5685     043F                     l1932:
  5686                           
  5687                           ;D:\yiming\00work\FR743_B101L_RX01.X\mcc_generated_files\LINDrivers\lin_slave.c: 290:   
      +                                    checksum -= 0xFF;
  5688     043F  30FF               	movlw	255
  5689     0440  02F7               	subwf	LIN_getChecksum@checksum,f
  5690     0441  3000               	movlw	0
  5691     0442  3BF8               	subwfb	LIN_getChecksum@checksum+1,f
  5692     0443                     l1934:
  5693                           
  5694                           ;D:\yiming\00work\FR743_B101L_RX01.X\mcc_generated_files\LINDrivers\lin_slave.c: 291:   
      +                            }
  5695     0443  3001               	movlw	1
  5696     0444  00F3               	movwf	??_LIN_getChecksum
  5697     0445  0873               	movf	??_LIN_getChecksum,w
  5698     0446  07F6               	addwf	LIN_getChecksum@i,f
  5699     0447                     l1936:
  5700     0447  0875               	movf	LIN_getChecksum@length,w
  5701     0448  0276               	subwf	LIN_getChecksum@i,w
  5702     0449  1C03               	skipc
  5703     044A  2C4C               	goto	u1051
  5704     044B  2C4D               	goto	u1050
  5705     044C                     u1051:
  5706     044C  2C28               	goto	l1926
  5707     044D                     u1050:
  5708     044D                     l305:
  5709                           
  5710                           ;D:\yiming\00work\FR743_B101L_RX01.X\mcc_generated_files\LINDrivers\lin_slave.c: 292:   
      +                            checksum = ~checksum;
  5711     044D  09F7               	comf	LIN_getChecksum@checksum,f
  5712     044E  09F8               	comf	LIN_getChecksum@checksum+1,f
  5713     044F                     l1938:
  5714                           
  5715                           ;D:\yiming\00work\FR743_B101L_RX01.X\mcc_generated_files\LINDrivers\lin_slave.c: 294:   
      +                            return (uint8_t)checksum;
  5716     044F  0877               	movf	LIN_getChecksum@checksum,w
  5717     0450                     l306:
  5718     0450  0008               	return
  5719     0451                     __end_of_LIN_getChecksum:
  5720                           
  5721                           	psect	text39
  5722     0451                     __ptext39:	
  5723 ;; *************** function _EUSART_Write *****************
  5724 ;; Defined at:
  5725 ;;		line 173 in file "D:\yiming\00work\FR743_B101L_RX01.X\mcc_generated_files\eusart.c"
  5726 ;; Parameters:    Size  Location     Type
  5727 ;;  txData          1    wreg     unsigned char 
  5728 ;; Auto vars:     Size  Location     Type
  5729 ;;  txData          1    2[COMMON] unsigned char 
  5730 ;; Return value:  Size  Location     Type
  5731 ;;                  1    wreg      void 
  5732 ;; Registers used:
  5733 ;;		wreg, fsr1l, fsr1h, status,2, status,0
  5734 ;; Tracked objects:
  5735 ;;		On entry : 0/0
  5736 ;;		On exit  : 0/0
  5737 ;;		Unchanged: 0/0
  5738 ;; Data sizes:     COMMON   BANK0   BANK1   BANK2   BANK3   BANK4   BANK5   BANK6
  5739 ;;      Params:         0       0       0       0       0       0       0       0
  5740 ;;      Locals:         1       0       0       0       0       0       0       0
  5741 ;;      Temps:          1       0       0       0       0       0       0       0
  5742 ;;      Totals:         2       0       0       0       0       0       0       0
  5743 ;;Total ram usage:        2 bytes
  5744 ;; Hardware stack levels used: 1
  5745 ;; Hardware stack levels required when called: 4
  5746 ;; This function calls:
  5747 ;;		Nothing
  5748 ;; This function is called by:
  5749 ;;		_LIN_sendPacket
  5750 ;; This function uses a non-reentrant model
  5751 ;;
  5752                           
  5753     0451                     _EUSART_Write:	
  5754                           ;psect for function _EUSART_Write
  5755                           
  5756                           
  5757                           ;incstack = 0
  5758                           ; Regs used in _EUSART_Write: [wreg+fsr1l+fsr1h+status,2+status,0]
  5759                           ;EUSART_Write@txData stored from wreg
  5760     0451  00F2               	movwf	EUSART_Write@txData
  5761     0452                     l1950:
  5762     0452                     l1952:	
  5763                           ;D:\yiming\00work\FR743_B101L_RX01.X\mcc_generated_files\eusart.c: 173: void EUSART_Writ
      +                          e(uint8_t txData);D:\yiming\00work\FR743_B101L_RX01.X\mcc_generated_files\eusart.c: 174:
      +                           {;D:\yiming\00work\FR743_B101L_RX01.X\mcc_generated_files\eusart.c: 175:     while(0 ==
      +                           eusartTxBufferRemaining)
  5764                           
  5765                           
  5766                           ;D:\yiming\00work\FR743_B101L_RX01.X\mcc_generated_files\eusart.c: 175:     while(0 == e
      +                          usartTxBufferRemaining)
  5767     0452  0020               	movlb	0	; select bank0
  5768     0453  0843               	movf	_eusartTxBufferRemaining,w	;volatile
  5769     0454  1903               	btfsc	3,2
  5770     0455  2C57               	goto	u1071
  5771     0456  2C58               	goto	u1070
  5772     0457                     u1071:
  5773     0457  2C52               	goto	l1952
  5774     0458                     u1070:
  5775     0458                     l428:
  5776                           
  5777                           ;D:\yiming\00work\FR743_B101L_RX01.X\mcc_generated_files\eusart.c: 179:     if(0 == PIE1
      +                          bits.TXIE)
  5778     0458  0021               	movlb	1	; select bank1
  5779     0459  1A11               	btfsc	17,4	;volatile
  5780     045A  2C5C               	goto	u1081
  5781     045B  2C5D               	goto	u1080
  5782     045C                     u1081:
  5783     045C  2C61               	goto	l429
  5784     045D                     u1080:
  5785     045D                     l1954:
  5786                           
  5787                           ;D:\yiming\00work\FR743_B101L_RX01.X\mcc_generated_files\eusart.c: 180:     {;D:\yiming\
      +                          00work\FR743_B101L_RX01.X\mcc_generated_files\eusart.c: 181:         TXREG = txData;
  5788     045D  0872               	movf	EUSART_Write@txData,w
  5789     045E  0023               	movlb	3	; select bank3
  5790     045F  009A               	movwf	26	;volatile
  5791                           
  5792                           ;D:\yiming\00work\FR743_B101L_RX01.X\mcc_generated_files\eusart.c: 182:     }
  5793     0460  2C76               	goto	l1966
  5794     0461                     l429:	
  5795                           ;D:\yiming\00work\FR743_B101L_RX01.X\mcc_generated_files\eusart.c: 183:     else
  5796                           
  5797                           
  5798                           ;D:\yiming\00work\FR743_B101L_RX01.X\mcc_generated_files\eusart.c: 184:     {;D:\yiming\
      +                          00work\FR743_B101L_RX01.X\mcc_generated_files\eusart.c: 185:         PIE1bits.TXIE = 0;
  5799     0461  1211               	bcf	17,4	;volatile
  5800     0462                     l1956:
  5801                           
  5802                           ;D:\yiming\00work\FR743_B101L_RX01.X\mcc_generated_files\eusart.c: 186:         eusartTx
      +                          Buffer[eusartTxHead++] = txData;
  5803     0462  0020               	movlb	0	; select bank0
  5804     0463  0845               	movf	_eusartTxHead,w
  5805     0464  3E28               	addlw	(low (_eusartTxBuffer| 0))& (0+255)
  5806     0465  0086               	movwf	6
  5807     0466  0187               	clrf	7
  5808     0467  0872               	movf	EUSART_Write@txData,w
  5809     0468  0081               	movwf	1
  5810     0469                     l1958:
  5811     0469  3001               	movlw	1
  5812     046A  00F1               	movwf	??_EUSART_Write
  5813     046B  0871               	movf	??_EUSART_Write,w
  5814     046C  07C5               	addwf	_eusartTxHead,f	;volatile
  5815     046D                     l1960:
  5816                           
  5817                           ;D:\yiming\00work\FR743_B101L_RX01.X\mcc_generated_files\eusart.c: 187:         if(sizeo
      +                          f(eusartTxBuffer) <= eusartTxHead)
  5818     046D  3008               	movlw	8
  5819     046E  0245               	subwf	_eusartTxHead,w	;volatile
  5820     046F  1C03               	skipc
  5821     0470  2C72               	goto	u1091
  5822     0471  2C73               	goto	u1090
  5823     0472                     u1091:
  5824     0472  2C74               	goto	l1964
  5825     0473                     u1090:
  5826     0473                     l1962:
  5827                           
  5828                           ;D:\yiming\00work\FR743_B101L_RX01.X\mcc_generated_files\eusart.c: 188:         {;D:\yim
      +                          ing\00work\FR743_B101L_RX01.X\mcc_generated_files\eusart.c: 189:             eusartTxHea
      +                          d = 0;
  5829     0473  01C5               	clrf	_eusartTxHead	;volatile
  5830     0474                     l1964:
  5831                           
  5832                           ;D:\yiming\00work\FR743_B101L_RX01.X\mcc_generated_files\eusart.c: 191:         eusartTx
      +                          BufferRemaining--;
  5833     0474  3001               	movlw	1
  5834     0475  02C3               	subwf	_eusartTxBufferRemaining,f	;volatile
  5835     0476                     l1966:
  5836                           
  5837                           ;D:\yiming\00work\FR743_B101L_RX01.X\mcc_generated_files\eusart.c: 193:     PIE1bits.TXI
      +                          E = 1;
  5838     0476  0021               	movlb	1	; select bank1
  5839     0477  1611               	bsf	17,4	;volatile
  5840     0478                     l432:
  5841     0478  0008               	return
  5842     0479                     __end_of_EUSART_Write:
  5843                           
  5844                           	psect	text40
  5845     0688                     __ptext40:	
  5846 ;; *************** function _LIN_enableRx *****************
  5847 ;; Defined at:
  5848 ;;		line 325 in file "D:\yiming\00work\FR743_B101L_RX01.X\mcc_generated_files\LINDrivers\lin_slave.c"
  5849 ;; Parameters:    Size  Location     Type
  5850 ;;		None
  5851 ;; Auto vars:     Size  Location     Type
  5852 ;;		None
  5853 ;; Return value:  Size  Location     Type
  5854 ;;                  1    wreg      void 
  5855 ;; Registers used:
  5856 ;;		None
  5857 ;; Tracked objects:
  5858 ;;		On entry : 0/0
  5859 ;;		On exit  : 0/0
  5860 ;;		Unchanged: 0/0
  5861 ;; Data sizes:     COMMON   BANK0   BANK1   BANK2   BANK3   BANK4   BANK5   BANK6
  5862 ;;      Params:         0       0       0       0       0       0       0       0
  5863 ;;      Locals:         0       0       0       0       0       0       0       0
  5864 ;;      Temps:          0       0       0       0       0       0       0       0
  5865 ;;      Totals:         0       0       0       0       0       0       0       0
  5866 ;;Total ram usage:        0 bytes
  5867 ;; Hardware stack levels used: 1
  5868 ;; Hardware stack levels required when called: 4
  5869 ;; This function calls:
  5870 ;;		Nothing
  5871 ;; This function is called by:
  5872 ;;		_LIN_init
  5873 ;;		_LIN_handler
  5874 ;; This function uses a non-reentrant model
  5875 ;;
  5876                           
  5877     0688                     _LIN_enableRx:	
  5878                           ;psect for function _LIN_enableRx
  5879                           
  5880     0688                     l1910:	
  5881                           ;incstack = 0
  5882                           ; Regs used in _LIN_enableRx: []
  5883                           
  5884                           
  5885                           ;D:\yiming\00work\FR743_B101L_RX01.X\mcc_generated_files\LINDrivers\lin_slave.c: 326:   
      +                            RCSTAbits.CREN = 1;
  5886     0688  0023               	movlb	3	; select bank3
  5887     0689  161D               	bsf	29,4	;volatile
  5888                           
  5889                           ;D:\yiming\00work\FR743_B101L_RX01.X\mcc_generated_files\LINDrivers\lin_slave.c: 327:   
      +                            PIE1bits.RCIE = 1;
  5890     068A  0021               	movlb	1	; select bank1
  5891     068B  1691               	bsf	17,5	;volatile
  5892     068C                     l322:
  5893     068C  0008               	return
  5894     068D                     __end_of_LIN_enableRx:
  5895                           
  5896                           	psect	text41
  5897     068D                     __ptext41:	
  5898 ;; *************** function _LIN_disableRx *****************
  5899 ;; Defined at:
  5900 ;;		line 330 in file "D:\yiming\00work\FR743_B101L_RX01.X\mcc_generated_files\LINDrivers\lin_slave.c"
  5901 ;; Parameters:    Size  Location     Type
  5902 ;;		None
  5903 ;; Auto vars:     Size  Location     Type
  5904 ;;		None
  5905 ;; Return value:  Size  Location     Type
  5906 ;;                  1    wreg      void 
  5907 ;; Registers used:
  5908 ;;		None
  5909 ;; Tracked objects:
  5910 ;;		On entry : 0/0
  5911 ;;		On exit  : 0/0
  5912 ;;		Unchanged: 0/0
  5913 ;; Data sizes:     COMMON   BANK0   BANK1   BANK2   BANK3   BANK4   BANK5   BANK6
  5914 ;;      Params:         0       0       0       0       0       0       0       0
  5915 ;;      Locals:         0       0       0       0       0       0       0       0
  5916 ;;      Temps:          0       0       0       0       0       0       0       0
  5917 ;;      Totals:         0       0       0       0       0       0       0       0
  5918 ;;Total ram usage:        0 bytes
  5919 ;; Hardware stack levels used: 1
  5920 ;; Hardware stack levels required when called: 4
  5921 ;; This function calls:
  5922 ;;		Nothing
  5923 ;; This function is called by:
  5924 ;;		_LIN_handler
  5925 ;; This function uses a non-reentrant model
  5926 ;;
  5927                           
  5928     068D                     _LIN_disableRx:	
  5929                           ;psect for function _LIN_disableRx
  5930                           
  5931     068D                     l2270:	
  5932                           ;incstack = 0
  5933                           ; Regs used in _LIN_disableRx: []
  5934                           
  5935                           
  5936                           ;D:\yiming\00work\FR743_B101L_RX01.X\mcc_generated_files\LINDrivers\lin_slave.c: 331:   
      +                            RCSTAbits.CREN = 0;
  5937     068D  0023               	movlb	3	; select bank3
  5938     068E  121D               	bcf	29,4	;volatile
  5939                           
  5940                           ;D:\yiming\00work\FR743_B101L_RX01.X\mcc_generated_files\LINDrivers\lin_slave.c: 332:   
      +                            PIE1bits.RCIE = 0;
  5941     068F  0021               	movlb	1	; select bank1
  5942     0690  1291               	bcf	17,5	;volatile
  5943     0691                     l325:
  5944     0691  0008               	return
  5945     0692                     __end_of_LIN_disableRx:
  5946                           
  5947                           	psect	text42
  5948     055B                     __ptext42:	
  5949 ;; *************** function _LIN_checkPID *****************
  5950 ;; Defined at:
  5951 ;;		line 254 in file "D:\yiming\00work\FR743_B101L_RX01.X\mcc_generated_files\LINDrivers\lin_slave.c"
  5952 ;; Parameters:    Size  Location     Type
  5953 ;;  pid             1    wreg     unsigned char 
  5954 ;; Auto vars:     Size  Location     Type
  5955 ;;  pid             1    8[COMMON] unsigned char 
  5956 ;; Return value:  Size  Location     Type
  5957 ;;                  1    wreg      _Bool 
  5958 ;; Registers used:
  5959 ;;		wreg, fsr0l, fsr0h, status,2, status,0, pclath, cstack
  5960 ;; Tracked objects:
  5961 ;;		On entry : 0/0
  5962 ;;		On exit  : 0/0
  5963 ;;		Unchanged: 0/0
  5964 ;; Data sizes:     COMMON   BANK0   BANK1   BANK2   BANK3   BANK4   BANK5   BANK6
  5965 ;;      Params:         0       0       0       0       0       0       0       0
  5966 ;;      Locals:         1       0       0       0       0       0       0       0
  5967 ;;      Temps:          0       0       0       0       0       0       0       0
  5968 ;;      Totals:         1       0       0       0       0       0       0       0
  5969 ;;Total ram usage:        1 bytes
  5970 ;; Hardware stack levels used: 1
  5971 ;; Hardware stack levels required when called: 5
  5972 ;; This function calls:
  5973 ;;		_LIN_calcParity
  5974 ;;		_LIN_getFromTable
  5975 ;; This function is called by:
  5976 ;;		_LIN_handler
  5977 ;; This function uses a non-reentrant model
  5978 ;;
  5979                           
  5980     055B                     _LIN_checkPID:	
  5981                           ;psect for function _LIN_checkPID
  5982                           
  5983                           
  5984                           ;incstack = 0
  5985                           ; Regs used in _LIN_checkPID: [wreg-fsr0h+status,2+status,0+pclath+cstack]
  5986                           ;LIN_checkPID@pid stored from wreg
  5987     055B  00F8               	movwf	LIN_checkPID@pid
  5988     055C                     l2254:
  5989                           
  5990                           ;D:\yiming\00work\FR743_B101L_RX01.X\mcc_generated_files\LINDrivers\lin_slave.c: 255:   
      +                            if(LIN_getFromTable(pid, TYPE) == ERROR)
  5991     055C  01F1               	clrf	LIN_getFromTable@param
  5992     055D  0AF1               	incf	LIN_getFromTable@param,f
  5993     055E  0878               	movf	LIN_checkPID@pid,w
  5994     055F  3182  22D4  3185   	fcall	_LIN_getFromTable
  5995     0562  3A02               	xorlw	2
  5996     0563  1D03               	skipz
  5997     0564  2D66               	goto	u1701
  5998     0565  2D67               	goto	u1700
  5999     0566                     u1701:
  6000     0566  2D69               	goto	l2260
  6001     0567                     u1700:
  6002     0567                     l2256:
  6003                           
  6004                           ;D:\yiming\00work\FR743_B101L_RX01.X\mcc_generated_files\LINDrivers\lin_slave.c: 256:   
      +                                return 0;
  6005     0567  3000               	movlw	0
  6006     0568  2D74               	goto	l295
  6007     0569                     l2260:
  6008                           
  6009                           ;D:\yiming\00work\FR743_B101L_RX01.X\mcc_generated_files\LINDrivers\lin_slave.c: 258:   
      +                            if(pid == LIN_calcParity(pid & 0x3F))
  6010     0569  0878               	movf	LIN_checkPID@pid,w
  6011     056A  393F               	andlw	63
  6012     056B  3182  224E  3185   	fcall	_LIN_calcParity
  6013     056E  0678               	xorwf	LIN_checkPID@pid,w
  6014     056F  1D03               	skipz
  6015     0570  2D72               	goto	u1711
  6016     0571  2D73               	goto	u1710
  6017     0572                     u1711:
  6018     0572  2D67               	goto	l2256
  6019     0573                     u1710:
  6020     0573                     l2262:
  6021                           
  6022                           ;D:\yiming\00work\FR743_B101L_RX01.X\mcc_generated_files\LINDrivers\lin_slave.c: 259:   
      +                                return 1;
  6023     0573  3001               	movlw	1
  6024     0574                     l295:
  6025     0574  0008               	return
  6026     0575                     __end_of_LIN_checkPID:
  6027                           
  6028                           	psect	text43
  6029     02D4                     __ptext43:	
  6030 ;; *************** function _LIN_getFromTable *****************
  6031 ;; Defined at:
  6032 ;;		line 224 in file "D:\yiming\00work\FR743_B101L_RX01.X\mcc_generated_files\LINDrivers\lin_slave.c"
  6033 ;; Parameters:    Size  Location     Type
  6034 ;;  cmd             1    wreg     unsigned char 
  6035 ;;  param           1    1[COMMON] enum E221
  6036 ;; Auto vars:     Size  Location     Type
  6037 ;;  cmd             1    4[COMMON] unsigned char 
  6038 ;;  length          1    5[COMMON] unsigned char 
  6039 ;;  rxCommand       2    6[COMMON] PTR const struct .
  6040 ;;		 -> NULL(0), scheduleTable(4), 
  6041 ;; Return value:  Size  Location     Type
  6042 ;;                  1    wreg      unsigned char 
  6043 ;; Registers used:
  6044 ;;		wreg, fsr0l, fsr0h, status,2, status,0, pclath
  6045 ;; Tracked objects:
  6046 ;;		On entry : 0/0
  6047 ;;		On exit  : 0/0
  6048 ;;		Unchanged: 0/0
  6049 ;; Data sizes:     COMMON   BANK0   BANK1   BANK2   BANK3   BANK4   BANK5   BANK6
  6050 ;;      Params:         1       0       0       0       0       0       0       0
  6051 ;;      Locals:         4       0       0       0       0       0       0       0
  6052 ;;      Temps:          2       0       0       0       0       0       0       0
  6053 ;;      Totals:         7       0       0       0       0       0       0       0
  6054 ;;Total ram usage:        7 bytes
  6055 ;; Hardware stack levels used: 1
  6056 ;; Hardware stack levels required when called: 4
  6057 ;; This function calls:
  6058 ;;		Nothing
  6059 ;; This function is called by:
  6060 ;;		_LIN_handler
  6061 ;;		_LIN_checkPID
  6062 ;; This function uses a non-reentrant model
  6063 ;;
  6064                           
  6065     02D4                     _LIN_getFromTable:	
  6066                           ;psect for function _LIN_getFromTable
  6067                           
  6068                           
  6069                           ;incstack = 0
  6070                           ; Regs used in _LIN_getFromTable: [wreg-fsr0h+status,2+status,0+pclath]
  6071                           ;LIN_getFromTable@cmd stored from wreg
  6072     02D4  00F4               	movwf	LIN_getFromTable@cmd
  6073     02D5                     l2018:
  6074                           
  6075                           ;D:\yiming\00work\FR743_B101L_RX01.X\mcc_generated_files\LINDrivers\lin_slave.c: 225:   
      +                            const lin_rx_cmd_t* rxCommand = LIN_rxCommand;
  6076     02D5  0020               	movlb	0	; select bank0
  6077     02D6  083D               	movf	_LIN_rxCommand+1,w
  6078     02D7  00F7               	movwf	LIN_getFromTable@rxCommand+1
  6079     02D8  083C               	movf	_LIN_rxCommand,w
  6080     02D9  00F6               	movwf	LIN_getFromTable@rxCommand
  6081     02DA                     l2020:
  6082                           
  6083                           ;D:\yiming\00work\FR743_B101L_RX01.X\mcc_generated_files\LINDrivers\lin_slave.c: 227:   
      +                            cmd &= 0x3F;
  6084     02DA  303F               	movlw	63
  6085     02DB  00F2               	movwf	??_LIN_getFromTable
  6086     02DC  0872               	movf	??_LIN_getFromTable,w
  6087     02DD  05F4               	andwf	LIN_getFromTable@cmd,f
  6088     02DE                     l2022:
  6089                           
  6090                           ;D:\yiming\00work\FR743_B101L_RX01.X\mcc_generated_files\LINDrivers\lin_slave.c: 229:   
      +                            for(uint8_t length = 0; length < LIN_rxCommandLength; length++){
  6091     02DE  01F5               	clrf	LIN_getFromTable@length
  6092     02DF  2B03               	goto	l2036
  6093     02E0                     l2024:
  6094                           
  6095                           ;D:\yiming\00work\FR743_B101L_RX01.X\mcc_generated_files\LINDrivers\lin_slave.c: 230:   
      +                                if(cmd == rxCommand->cmd){
  6096     02E0  0876               	movf	LIN_getFromTable@rxCommand,w
  6097     02E1  0084               	movwf	4
  6098     02E2  0877               	movf	LIN_getFromTable@rxCommand+1,w
  6099     02E3  0085               	movwf	5
  6100     02E4  0800               	movf	0,w	;code access
  6101     02E5  0674               	xorwf	LIN_getFromTable@cmd,w
  6102     02E6  1D03               	skipz
  6103     02E7  2AE9               	goto	u1131
  6104     02E8  2AEA               	goto	u1130
  6105     02E9                     u1131:
  6106     02E9  2AEB               	goto	l2028
  6107     02EA                     u1130:
  6108     02EA  2B2A               	goto	l2052
  6109     02EB                     l2028:
  6110                           
  6111                           ;D:\yiming\00work\FR743_B101L_RX01.X\mcc_generated_files\LINDrivers\lin_slave.c: 233:   
      +                                rxCommand++;
  6112     02EB  3004               	movlw	4
  6113     02EC  07F6               	addwf	LIN_getFromTable@rxCommand,f
  6114     02ED  3000               	movlw	0
  6115     02EE  3DF7               	addwfc	LIN_getFromTable@rxCommand+1,f
  6116                           
  6117                           ;D:\yiming\00work\FR743_B101L_RX01.X\mcc_generated_files\LINDrivers\lin_slave.c: 235:   
      +                                if(length == (LIN_rxCommandLength-1)){
  6118     02EF  084A               	movf	_LIN_rxCommandLength,w
  6119     02F0  3EFF               	addlw	255
  6120     02F1  00F2               	movwf	??_LIN_getFromTable
  6121     02F2  30FF               	movlw	255
  6122     02F3  1803               	skipnc
  6123     02F4  3000               	movlw	0
  6124     02F5  00F3               	movwf	??_LIN_getFromTable+1
  6125     02F6  0875               	movf	LIN_getFromTable@length,w
  6126     02F7  0672               	xorwf	??_LIN_getFromTable,w
  6127     02F8  0473               	iorwf	??_LIN_getFromTable+1,w
  6128     02F9  1D03               	skipz
  6129     02FA  2AFC               	goto	u1141
  6130     02FB  2AFD               	goto	u1140
  6131     02FC                     u1141:
  6132     02FC  2AFF               	goto	l2034
  6133     02FD                     u1140:
  6134     02FD                     l2030:
  6135                           
  6136                           ;D:\yiming\00work\FR743_B101L_RX01.X\mcc_generated_files\LINDrivers\lin_slave.c: 236:   
      +                                    return ERROR;
  6137     02FD  3002               	movlw	2
  6138     02FE  2B3D               	goto	l285
  6139     02FF                     l2034:
  6140                           
  6141                           ;D:\yiming\00work\FR743_B101L_RX01.X\mcc_generated_files\LINDrivers\lin_slave.c: 238:   
      +                            }
  6142     02FF  3001               	movlw	1
  6143     0300  00F2               	movwf	??_LIN_getFromTable
  6144     0301  0872               	movf	??_LIN_getFromTable,w
  6145     0302  07F5               	addwf	LIN_getFromTable@length,f
  6146     0303                     l2036:
  6147     0303  084A               	movf	_LIN_rxCommandLength,w
  6148     0304  0275               	subwf	LIN_getFromTable@length,w
  6149     0305  1C03               	skipc
  6150     0306  2B08               	goto	u1151
  6151     0307  2B09               	goto	u1150
  6152     0308                     u1151:
  6153     0308  2AE0               	goto	l2024
  6154     0309                     u1150:
  6155     0309  2B2A               	goto	l2052
  6156     030A                     l2038:
  6157                           
  6158                           ;D:\yiming\00work\FR743_B101L_RX01.X\mcc_generated_files\LINDrivers\lin_slave.c: 242:   
      +                                    return rxCommand->cmd;
  6159     030A  0876               	movf	LIN_getFromTable@rxCommand,w
  6160     030B  0084               	movwf	4
  6161     030C  0877               	movf	LIN_getFromTable@rxCommand+1,w
  6162     030D  0085               	movwf	5
  6163     030E  0800               	movf	0,w	;code access
  6164     030F  2B3D               	goto	l285
  6165     0310                     l2042:
  6166                           
  6167                           ;D:\yiming\00work\FR743_B101L_RX01.X\mcc_generated_files\LINDrivers\lin_slave.c: 244:   
      +                                    return rxCommand->type;
  6168     0310  0877               	movf	LIN_getFromTable@rxCommand+1,w
  6169     0311  00F3               	movwf	??_LIN_getFromTable+1
  6170     0312  0876               	movf	LIN_getFromTable@rxCommand,w
  6171     0313  00F2               	movwf	??_LIN_getFromTable
  6172     0314  3001               	movlw	1
  6173     0315  0772               	addwf	??_LIN_getFromTable,w
  6174     0316  0084               	movwf	4
  6175     0317  0873               	movf	??_LIN_getFromTable+1,w
  6176     0318  1803               	skipnc
  6177     0319  0A73               	incf	??_LIN_getFromTable+1,w
  6178     031A  0085               	movwf	5
  6179     031B  0800               	movf	0,w	;code access
  6180     031C  2B3D               	goto	l285
  6181     031D                     l2046:
  6182                           
  6183                           ;D:\yiming\00work\FR743_B101L_RX01.X\mcc_generated_files\LINDrivers\lin_slave.c: 246:   
      +                                    return rxCommand->length;
  6184     031D  0877               	movf	LIN_getFromTable@rxCommand+1,w
  6185     031E  00F3               	movwf	??_LIN_getFromTable+1
  6186     031F  0876               	movf	LIN_getFromTable@rxCommand,w
  6187     0320  00F2               	movwf	??_LIN_getFromTable
  6188     0321  3002               	movlw	2
  6189     0322  0772               	addwf	??_LIN_getFromTable,w
  6190     0323  0084               	movwf	4
  6191     0324  0873               	movf	??_LIN_getFromTable+1,w
  6192     0325  1803               	skipnc
  6193     0326  0A73               	incf	??_LIN_getFromTable+1,w
  6194     0327  0085               	movwf	5
  6195     0328  0800               	movf	0,w	;code access
  6196     0329  2B3D               	goto	l285
  6197     032A                     l2052:
  6198     032A  0871               	movf	LIN_getFromTable@param,w
  6199     032B  00F2               	movwf	??_LIN_getFromTable
  6200     032C  01F3               	clrf	??_LIN_getFromTable+1
  6201                           
  6202                           ; Switch on 2 bytes has been partitioned into a top level switch of size 1, and 1 sub-sw
      +                          itches
  6203                           ; Switch size 1, requested type "simple"
  6204                           ; Number of cases is 1, Range of values is 0 to 0
  6205                           ; switch strategies available:
  6206                           ; Name         Instructions Cycles
  6207                           ; simple_byte            4     3 (average)
  6208                           ; direct_byte            8     6 (fixed)
  6209                           ; jumptable            260     6 (fixed)
  6210                           ;	Chosen strategy is simple_byte
  6211     032D  0873               	movf	??_LIN_getFromTable+1,w
  6212     032E  3A00               	xorlw	0	; case 0
  6213     032F  1903               	skipnz
  6214     0330  2B32               	goto	l2764
  6215     0331  2AFD               	goto	l2030
  6216     0332                     l2764:
  6217                           
  6218                           ; Switch size 1, requested type "simple"
  6219                           ; Number of cases is 3, Range of values is 0 to 2
  6220                           ; switch strategies available:
  6221                           ; Name         Instructions Cycles
  6222                           ; simple_byte           10     6 (average)
  6223                           ; direct_byte           12     6 (fixed)
  6224                           ; jumptable            260     6 (fixed)
  6225                           ;	Chosen strategy is simple_byte
  6226     0332  0872               	movf	??_LIN_getFromTable,w
  6227     0333  3A00               	xorlw	0	; case 0
  6228     0334  1903               	skipnz
  6229     0335  2B0A               	goto	l2038
  6230     0336  3A01               	xorlw	1	; case 1
  6231     0337  1903               	skipnz
  6232     0338  2B10               	goto	l2042
  6233     0339  3A03               	xorlw	3	; case 2
  6234     033A  1903               	skipnz
  6235     033B  2B1D               	goto	l2046
  6236     033C  2AFD               	goto	l2030
  6237     033D                     l285:
  6238     033D  0008               	return
  6239     033E                     __end_of_LIN_getFromTable:
  6240                           
  6241                           	psect	text44
  6242     024E                     __ptext44:	
  6243 ;; *************** function _LIN_calcParity *****************
  6244 ;; Defined at:
  6245 ;;		line 266 in file "D:\yiming\00work\FR743_B101L_RX01.X\mcc_generated_files\LINDrivers\lin_slave.c"
  6246 ;; Parameters:    Size  Location     Type
  6247 ;;  CMD             1    wreg     unsigned char 
  6248 ;; Auto vars:     Size  Location     Type
  6249 ;;  CMD             1    2[COMMON] unsigned char 
  6250 ;;  PID             1    3[COMMON] struct .
  6251 ;; Return value:  Size  Location     Type
  6252 ;;                  1    wreg      unsigned char 
  6253 ;; Registers used:
  6254 ;;		wreg, status,0
  6255 ;; Tracked objects:
  6256 ;;		On entry : 0/0
  6257 ;;		On exit  : 0/0
  6258 ;;		Unchanged: 0/0
  6259 ;; Data sizes:     COMMON   BANK0   BANK1   BANK2   BANK3   BANK4   BANK5   BANK6
  6260 ;;      Params:         0       0       0       0       0       0       0       0
  6261 ;;      Locals:         2       0       0       0       0       0       0       0
  6262 ;;      Temps:          1       0       0       0       0       0       0       0
  6263 ;;      Totals:         3       0       0       0       0       0       0       0
  6264 ;;Total ram usage:        3 bytes
  6265 ;; Hardware stack levels used: 1
  6266 ;; Hardware stack levels required when called: 4
  6267 ;; This function calls:
  6268 ;;		Nothing
  6269 ;; This function is called by:
  6270 ;;		_LIN_checkPID
  6271 ;; This function uses a non-reentrant model
  6272 ;;
  6273                           
  6274     024E                     _LIN_calcParity:	
  6275                           ;psect for function _LIN_calcParity
  6276                           
  6277                           
  6278                           ;incstack = 0
  6279                           ; Regs used in _LIN_calcParity: [wreg+status,0]
  6280                           ;LIN_calcParity@CMD stored from wreg
  6281     024E  00F2               	movwf	LIN_calcParity@CMD
  6282     024F                     l2066:
  6283                           
  6284                           ;D:\yiming\00work\FR743_B101L_RX01.X\mcc_generated_files\LINDrivers\lin_slave.c: 267:   
      +                            lin_pid_t PID;;D:\yiming\00work\FR743_B101L_RX01.X\mcc_generated_files\LINDrivers\lin_
      +                          slave.c: 268:     PID.rawPID = CMD;
  6285     024F  0872               	movf	LIN_calcParity@CMD,w
  6286     0250  00F3               	movwf	LIN_calcParity@PID
  6287                           
  6288                           ;D:\yiming\00work\FR743_B101L_RX01.X\mcc_generated_files\LINDrivers\lin_slave.c: 273:   
      +                            PID.P0 = PID.ID0 ^ PID.ID1;
  6289     0251  18F3               	btfsc	LIN_calcParity@PID,1
  6290     0252  2A54               	goto	u1161
  6291     0253  2A56               	goto	u1160
  6292     0254                     u1161:
  6293     0254  3001               	movlw	1
  6294     0255  2A57               	goto	u1162
  6295     0256                     u1160:
  6296     0256  3000               	movlw	0
  6297     0257                     u1162:
  6298     0257  00F1               	movwf	??_LIN_calcParity
  6299     0258  1873               	btfsc	LIN_calcParity@PID,0
  6300     0259  2A5B               	goto	u1171
  6301     025A  2A5D               	goto	u1170
  6302     025B                     u1171:
  6303     025B  3001               	movlw	1
  6304     025C  2A5E               	goto	u1172
  6305     025D                     u1170:
  6306     025D  3000               	movlw	0
  6307     025E                     u1172:
  6308     025E  0671               	xorwf	??_LIN_calcParity,w
  6309     025F  1D03               	skipz
  6310     0260  2A62               	goto	u1181
  6311     0261  2A64               	goto	u1180
  6312     0262                     u1181:
  6313     0262  1773               	bsf	LIN_calcParity@PID,6
  6314     0263  2A65               	goto	u1194
  6315     0264                     u1180:
  6316     0264  1373               	bcf	LIN_calcParity@PID,6
  6317     0265                     u1194:
  6318                           
  6319                           ;D:\yiming\00work\FR743_B101L_RX01.X\mcc_generated_files\LINDrivers\lin_slave.c: 274:   
      +                            PID.P0 = PID.P0 ^ PID.ID2;
  6320     0265  1973               	btfsc	LIN_calcParity@PID,2
  6321     0266  2A68               	goto	u1201
  6322     0267  2A6A               	goto	u1200
  6323     0268                     u1201:
  6324     0268  3001               	movlw	1
  6325     0269  2A6B               	goto	u1202
  6326     026A                     u1200:
  6327     026A  3000               	movlw	0
  6328     026B                     u1202:
  6329     026B  00F1               	movwf	??_LIN_calcParity
  6330     026C  1B73               	btfsc	LIN_calcParity@PID,6
  6331     026D  2A6F               	goto	u1211
  6332     026E  2A71               	goto	u1210
  6333     026F                     u1211:
  6334     026F  3001               	movlw	1
  6335     0270  2A72               	goto	u1212
  6336     0271                     u1210:
  6337     0271  3000               	movlw	0
  6338     0272                     u1212:
  6339     0272  0671               	xorwf	??_LIN_calcParity,w
  6340     0273  1D03               	skipz
  6341     0274  2A76               	goto	u1221
  6342     0275  2A78               	goto	u1220
  6343     0276                     u1221:
  6344     0276  1773               	bsf	LIN_calcParity@PID,6
  6345     0277  2A79               	goto	u1234
  6346     0278                     u1220:
  6347     0278  1373               	bcf	LIN_calcParity@PID,6
  6348     0279                     u1234:
  6349                           
  6350                           ;D:\yiming\00work\FR743_B101L_RX01.X\mcc_generated_files\LINDrivers\lin_slave.c: 275:   
      +                            PID.P0 = PID.P0 ^ PID.ID4;
  6351     0279  1A73               	btfsc	LIN_calcParity@PID,4
  6352     027A  2A7C               	goto	u1241
  6353     027B  2A7E               	goto	u1240
  6354     027C                     u1241:
  6355     027C  3001               	movlw	1
  6356     027D  2A7F               	goto	u1242
  6357     027E                     u1240:
  6358     027E  3000               	movlw	0
  6359     027F                     u1242:
  6360     027F  00F1               	movwf	??_LIN_calcParity
  6361     0280  1B73               	btfsc	LIN_calcParity@PID,6
  6362     0281  2A83               	goto	u1251
  6363     0282  2A85               	goto	u1250
  6364     0283                     u1251:
  6365     0283  3001               	movlw	1
  6366     0284  2A86               	goto	u1252
  6367     0285                     u1250:
  6368     0285  3000               	movlw	0
  6369     0286                     u1252:
  6370     0286  0671               	xorwf	??_LIN_calcParity,w
  6371     0287  1D03               	skipz
  6372     0288  2A8A               	goto	u1261
  6373     0289  2A8C               	goto	u1260
  6374     028A                     u1261:
  6375     028A  1773               	bsf	LIN_calcParity@PID,6
  6376     028B  2A8D               	goto	u1274
  6377     028C                     u1260:
  6378     028C  1373               	bcf	LIN_calcParity@PID,6
  6379     028D                     u1274:
  6380                           
  6381                           ;D:\yiming\00work\FR743_B101L_RX01.X\mcc_generated_files\LINDrivers\lin_slave.c: 276:   
      +                            PID.P1 = PID.ID1 ^ PID.ID3;
  6382     028D  19F3               	btfsc	LIN_calcParity@PID,3
  6383     028E  2A90               	goto	u1281
  6384     028F  2A92               	goto	u1280
  6385     0290                     u1281:
  6386     0290  3001               	movlw	1
  6387     0291  2A93               	goto	u1282
  6388     0292                     u1280:
  6389     0292  3000               	movlw	0
  6390     0293                     u1282:
  6391     0293  00F1               	movwf	??_LIN_calcParity
  6392     0294  18F3               	btfsc	LIN_calcParity@PID,1
  6393     0295  2A97               	goto	u1291
  6394     0296  2A99               	goto	u1290
  6395     0297                     u1291:
  6396     0297  3001               	movlw	1
  6397     0298  2A9A               	goto	u1292
  6398     0299                     u1290:
  6399     0299  3000               	movlw	0
  6400     029A                     u1292:
  6401     029A  0671               	xorwf	??_LIN_calcParity,w
  6402     029B  1D03               	skipz
  6403     029C  2A9E               	goto	u1301
  6404     029D  2AA0               	goto	u1300
  6405     029E                     u1301:
  6406     029E  17F3               	bsf	LIN_calcParity@PID,7
  6407     029F  2AA1               	goto	u1314
  6408     02A0                     u1300:
  6409     02A0  13F3               	bcf	LIN_calcParity@PID,7
  6410     02A1                     u1314:
  6411                           
  6412                           ;D:\yiming\00work\FR743_B101L_RX01.X\mcc_generated_files\LINDrivers\lin_slave.c: 277:   
      +                            PID.P1 = PID.P1 ^ PID.ID4;
  6413     02A1  1A73               	btfsc	LIN_calcParity@PID,4
  6414     02A2  2AA4               	goto	u1321
  6415     02A3  2AA6               	goto	u1320
  6416     02A4                     u1321:
  6417     02A4  3001               	movlw	1
  6418     02A5  2AA7               	goto	u1322
  6419     02A6                     u1320:
  6420     02A6  3000               	movlw	0
  6421     02A7                     u1322:
  6422     02A7  00F1               	movwf	??_LIN_calcParity
  6423     02A8  1BF3               	btfsc	LIN_calcParity@PID,7
  6424     02A9  2AAB               	goto	u1331
  6425     02AA  2AAD               	goto	u1330
  6426     02AB                     u1331:
  6427     02AB  3001               	movlw	1
  6428     02AC  2AAE               	goto	u1332
  6429     02AD                     u1330:
  6430     02AD  3000               	movlw	0
  6431     02AE                     u1332:
  6432     02AE  0671               	xorwf	??_LIN_calcParity,w
  6433     02AF  1D03               	skipz
  6434     02B0  2AB2               	goto	u1341
  6435     02B1  2AB4               	goto	u1340
  6436     02B2                     u1341:
  6437     02B2  17F3               	bsf	LIN_calcParity@PID,7
  6438     02B3  2AB5               	goto	u1354
  6439     02B4                     u1340:
  6440     02B4  13F3               	bcf	LIN_calcParity@PID,7
  6441     02B5                     u1354:
  6442                           
  6443                           ;D:\yiming\00work\FR743_B101L_RX01.X\mcc_generated_files\LINDrivers\lin_slave.c: 278:   
      +                            PID.P1 = PID.P1 ^ PID.ID5;
  6444     02B5  1AF3               	btfsc	LIN_calcParity@PID,5
  6445     02B6  2AB8               	goto	u1361
  6446     02B7  2ABA               	goto	u1360
  6447     02B8                     u1361:
  6448     02B8  3001               	movlw	1
  6449     02B9  2ABB               	goto	u1362
  6450     02BA                     u1360:
  6451     02BA  3000               	movlw	0
  6452     02BB                     u1362:
  6453     02BB  00F1               	movwf	??_LIN_calcParity
  6454     02BC  1BF3               	btfsc	LIN_calcParity@PID,7
  6455     02BD  2ABF               	goto	u1371
  6456     02BE  2AC1               	goto	u1370
  6457     02BF                     u1371:
  6458     02BF  3001               	movlw	1
  6459     02C0  2AC2               	goto	u1372
  6460     02C1                     u1370:
  6461     02C1  3000               	movlw	0
  6462     02C2                     u1372:
  6463     02C2  0671               	xorwf	??_LIN_calcParity,w
  6464     02C3  1D03               	skipz
  6465     02C4  2AC6               	goto	u1381
  6466     02C5  2AC8               	goto	u1380
  6467     02C6                     u1381:
  6468     02C6  17F3               	bsf	LIN_calcParity@PID,7
  6469     02C7  2AC9               	goto	u1394
  6470     02C8                     u1380:
  6471     02C8  13F3               	bcf	LIN_calcParity@PID,7
  6472     02C9                     u1394:
  6473     02C9                     l2068:
  6474                           
  6475                           ;D:\yiming\00work\FR743_B101L_RX01.X\mcc_generated_files\LINDrivers\lin_slave.c: 279:   
      +                            PID.P1 = ~PID.P1;
  6476     02C9  1003               	clrc
  6477     02CA  1FF3               	btfss	LIN_calcParity@PID,7
  6478     02CB  1403               	setc
  6479     02CC  1803               	btfsc	3,0
  6480     02CD  2ACF               	goto	u1401
  6481     02CE  2AD1               	goto	u1400
  6482     02CF                     u1401:
  6483     02CF  17F3               	bsf	LIN_calcParity@PID,7
  6484     02D0  2AD2               	goto	u1414
  6485     02D1                     u1400:
  6486     02D1  13F3               	bcf	LIN_calcParity@PID,7
  6487     02D2                     u1414:
  6488     02D2                     l2070:
  6489                           
  6490                           ;D:\yiming\00work\FR743_B101L_RX01.X\mcc_generated_files\LINDrivers\lin_slave.c: 281:   
      +                            return PID.rawPID;
  6491     02D2  0873               	movf	LIN_calcParity@PID,w
  6492     02D3                     l299:
  6493     02D3  0008               	return
  6494     02D4                     __end_of_LIN_calcParity:
  6495                           
  6496                           	psect	text45
  6497     05CA                     __ptext45:	
  6498 ;; *************** function _LIN_breakCheck *****************
  6499 ;; Defined at:
  6500 ;;		line 335 in file "D:\yiming\00work\FR743_B101L_RX01.X\mcc_generated_files\LINDrivers\lin_slave.c"
  6501 ;; Parameters:    Size  Location     Type
  6502 ;;		None
  6503 ;; Auto vars:     Size  Location     Type
  6504 ;;		None
  6505 ;; Return value:  Size  Location     Type
  6506 ;;                  1    wreg      _Bool 
  6507 ;; Registers used:
  6508 ;;		wreg, fsr1l, fsr1h, status,2, status,0, pclath, cstack
  6509 ;; Tracked objects:
  6510 ;;		On entry : 0/0
  6511 ;;		On exit  : 0/0
  6512 ;;		Unchanged: 0/0
  6513 ;; Data sizes:     COMMON   BANK0   BANK1   BANK2   BANK3   BANK4   BANK5   BANK6
  6514 ;;      Params:         0       0       0       0       0       0       0       0
  6515 ;;      Locals:         0       0       0       0       0       0       0       0
  6516 ;;      Temps:          0       0       0       0       0       0       0       0
  6517 ;;      Totals:         0       0       0       0       0       0       0       0
  6518 ;;Total ram usage:        0 bytes
  6519 ;; Hardware stack levels used: 1
  6520 ;; Hardware stack levels required when called: 5
  6521 ;; This function calls:
  6522 ;;		_EUSART_Read
  6523 ;;		_EUSART_get_last_status
  6524 ;; This function is called by:
  6525 ;;		_LIN_handler
  6526 ;; This function uses a non-reentrant model
  6527 ;;
  6528                           
  6529     05CA                     _LIN_breakCheck:	
  6530                           ;psect for function _LIN_breakCheck
  6531                           
  6532     05CA                     l2242:	
  6533                           ;incstack = 0
  6534                           ; Regs used in _LIN_breakCheck: [wreg+fsr1l+fsr1h+status,2+status,0+pclath+cstack]
  6535                           
  6536                           
  6537                           ;D:\yiming\00work\FR743_B101L_RX01.X\mcc_generated_files\LINDrivers\lin_slave.c: 337:   
      +                            if((EUSART_Read() == 0x00) && (EUSART_get_last_status().ferr == 1)){
  6538     05CA  3184  2479  3185   	fcall	_EUSART_Read
  6539     05CD  3A00               	xorlw	0
  6540     05CE  1D03               	skipz
  6541     05CF  2DD1               	goto	u1681
  6542     05D0  2DD2               	goto	u1680
  6543     05D1                     u1681:
  6544     05D1  2DDB               	goto	l2250
  6545     05D2                     u1680:
  6546     05D2                     l2244:
  6547     05D2  3186  26D0  3185   	fcall	_EUSART_get_last_status
  6548     05D5  1C89               	btfss	9,1
  6549     05D6  2DD8               	goto	u1691
  6550     05D7  2DD9               	goto	u1690
  6551     05D8                     u1691:
  6552     05D8  2DDB               	goto	l2250
  6553     05D9                     u1690:
  6554     05D9                     l2246:
  6555                           
  6556                           ;D:\yiming\00work\FR743_B101L_RX01.X\mcc_generated_files\LINDrivers\lin_slave.c: 338:   
      +                                return 1;
  6557     05D9  3001               	movlw	1
  6558     05DA  2DDC               	goto	l329
  6559     05DB                     l2250:
  6560                           
  6561                           ;D:\yiming\00work\FR743_B101L_RX01.X\mcc_generated_files\LINDrivers\lin_slave.c: 341:   
      +                            return 0;
  6562     05DB  3000               	movlw	0
  6563     05DC                     l329:
  6564     05DC  0008               	return
  6565     05DD                     __end_of_LIN_breakCheck:
  6566                           
  6567                           	psect	text46
  6568     06D0                     __ptext46:	
  6569 ;; *************** function _EUSART_get_last_status *****************
  6570 ;; Defined at:
  6571 ;;		line 147 in file "D:\yiming\00work\FR743_B101L_RX01.X\mcc_generated_files\eusart.c"
  6572 ;; Parameters:    Size  Location     Type
  6573 ;;		None
  6574 ;; Auto vars:     Size  Location     Type
  6575 ;;		None
  6576 ;; Return value:  Size  Location     Type
  6577 ;;                  1    wreg      struct .
  6578 ;; Registers used:
  6579 ;;		wreg
  6580 ;; Tracked objects:
  6581 ;;		On entry : 0/0
  6582 ;;		On exit  : 0/0
  6583 ;;		Unchanged: 0/0
  6584 ;; Data sizes:     COMMON   BANK0   BANK1   BANK2   BANK3   BANK4   BANK5   BANK6
  6585 ;;      Params:         0       0       0       0       0       0       0       0
  6586 ;;      Locals:         0       0       0       0       0       0       0       0
  6587 ;;      Temps:          0       0       0       0       0       0       0       0
  6588 ;;      Totals:         0       0       0       0       0       0       0       0
  6589 ;;Total ram usage:        0 bytes
  6590 ;; Hardware stack levels used: 1
  6591 ;; Hardware stack levels required when called: 4
  6592 ;; This function calls:
  6593 ;;		Nothing
  6594 ;; This function is called by:
  6595 ;;		_LIN_breakCheck
  6596 ;; This function uses a non-reentrant model
  6597 ;;
  6598                           
  6599     06D0                     _EUSART_get_last_status:	
  6600                           ;psect for function _EUSART_get_last_status
  6601                           
  6602     06D0                     l2076:	
  6603                           ;incstack = 0
  6604                           ; Regs used in _EUSART_get_last_status: [wreg]
  6605                           
  6606                           
  6607                           ;D:\yiming\00work\FR743_B101L_RX01.X\mcc_generated_files\eusart.c: 148:     return eusar
      +                          tRxLastError;
  6608     06D0  0020               	movlb	0	; select bank0
  6609     06D1  0841               	movf	_eusartRxLastError,w	;volatile
  6610     06D2                     l416:
  6611     06D2  0008               	return
  6612     06D3                     __end_of_EUSART_get_last_status:
  6613                           
  6614                           	psect	text47
  6615     0479                     __ptext47:	
  6616 ;; *************** function _EUSART_Read *****************
  6617 ;; Defined at:
  6618 ;;		line 151 in file "D:\yiming\00work\FR743_B101L_RX01.X\mcc_generated_files\eusart.c"
  6619 ;; Parameters:    Size  Location     Type
  6620 ;;		None
  6621 ;; Auto vars:     Size  Location     Type
  6622 ;;  readValue       1    2[COMMON] unsigned char 
  6623 ;; Return value:  Size  Location     Type
  6624 ;;                  1    wreg      unsigned char 
  6625 ;; Registers used:
  6626 ;;		wreg, fsr1l, fsr1h, status,2, status,0
  6627 ;; Tracked objects:
  6628 ;;		On entry : 0/0
  6629 ;;		On exit  : 0/0
  6630 ;;		Unchanged: 0/0
  6631 ;; Data sizes:     COMMON   BANK0   BANK1   BANK2   BANK3   BANK4   BANK5   BANK6
  6632 ;;      Params:         0       0       0       0       0       0       0       0
  6633 ;;      Locals:         1       0       0       0       0       0       0       0
  6634 ;;      Temps:          1       0       0       0       0       0       0       0
  6635 ;;      Totals:         2       0       0       0       0       0       0       0
  6636 ;;Total ram usage:        2 bytes
  6637 ;; Hardware stack levels used: 1
  6638 ;; Hardware stack levels required when called: 4
  6639 ;; This function calls:
  6640 ;;		Nothing
  6641 ;; This function is called by:
  6642 ;;		_LIN_handler
  6643 ;;		_LIN_breakCheck
  6644 ;; This function uses a non-reentrant model
  6645 ;;
  6646                           
  6647     0479                     _EUSART_Read:	
  6648                           ;psect for function _EUSART_Read
  6649                           
  6650     0479                     l1996:	
  6651                           ;incstack = 0
  6652                           ; Regs used in _EUSART_Read: [wreg+fsr1l+fsr1h+status,2+status,0]
  6653                           
  6654     0479                     l1998:	
  6655                           ;D:\yiming\00work\FR743_B101L_RX01.X\mcc_generated_files\eusart.c: 155:     while(0 == e
      +                          usartRxCount)
  6656                           
  6657                           
  6658                           ;D:\yiming\00work\FR743_B101L_RX01.X\mcc_generated_files\eusart.c: 155:     while(0 == e
      +                          usartRxCount)
  6659     0479  0020               	movlb	0	; select bank0
  6660     047A  0842               	movf	_eusartRxCount,w	;volatile
  6661     047B  1903               	btfsc	3,2
  6662     047C  2C7E               	goto	u1111
  6663     047D  2C7F               	goto	u1110
  6664     047E                     u1111:
  6665     047E  2C79               	goto	l1998
  6666     047F                     u1110:
  6667     047F                     l2000:
  6668                           
  6669                           ;D:\yiming\00work\FR743_B101L_RX01.X\mcc_generated_files\eusart.c: 159:     eusartRxLast
      +                          Error = eusartRxStatusBuffer[eusartRxTail];
  6670     047F  087B               	movf	_eusartRxTail,w	;volatile
  6671     0480  3E20               	addlw	(low (_eusartRxStatusBuffer| 0))& (0+255)
  6672     0481  0086               	movwf	6
  6673     0482  0187               	clrf	7
  6674     0483  0801               	movf	1,w
  6675     0484  00C1               	movwf	_eusartRxLastError	;volatile
  6676                           
  6677                           ;D:\yiming\00work\FR743_B101L_RX01.X\mcc_generated_files\eusart.c: 161:     readValue = 
      +                          eusartRxBuffer[eusartRxTail++];
  6678     0485  087B               	movf	_eusartRxTail,w
  6679     0486  3EA0               	addlw	(low (_eusartRxBuffer| 0))& (0+255)
  6680     0487  0086               	movwf	6
  6681     0488  0187               	clrf	7
  6682     0489  0801               	movf	1,w
  6683     048A  00F2               	movwf	EUSART_Read@readValue
  6684     048B                     l2002:
  6685     048B  3001               	movlw	1
  6686     048C  00F1               	movwf	??_EUSART_Read
  6687     048D  0871               	movf	??_EUSART_Read,w
  6688     048E  07FB               	addwf	_eusartRxTail,f	;volatile
  6689     048F                     l2004:
  6690                           
  6691                           ;D:\yiming\00work\FR743_B101L_RX01.X\mcc_generated_files\eusart.c: 162:     if(sizeof(eu
      +                          sartRxBuffer) <= eusartRxTail)
  6692     048F  3008               	movlw	8
  6693     0490  027B               	subwf	_eusartRxTail,w	;volatile
  6694     0491  1C03               	skipc
  6695     0492  2C94               	goto	u1121
  6696     0493  2C95               	goto	u1120
  6697     0494                     u1121:
  6698     0494  2C96               	goto	l2008
  6699     0495                     u1120:
  6700     0495                     l2006:
  6701                           
  6702                           ;D:\yiming\00work\FR743_B101L_RX01.X\mcc_generated_files\eusart.c: 163:     {;D:\yiming\
      +                          00work\FR743_B101L_RX01.X\mcc_generated_files\eusart.c: 164:         eusartRxTail = 0;
  6703     0495  01FB               	clrf	_eusartRxTail	;volatile
  6704     0496                     l2008:
  6705                           
  6706                           ;D:\yiming\00work\FR743_B101L_RX01.X\mcc_generated_files\eusart.c: 166:     PIE1bits.RCI
      +                          E = 0;
  6707     0496  0021               	movlb	1	; select bank1
  6708     0497  1291               	bcf	17,5	;volatile
  6709     0498                     l2010:
  6710                           
  6711                           ;D:\yiming\00work\FR743_B101L_RX01.X\mcc_generated_files\eusart.c: 167:     eusartRxCoun
      +                          t--;
  6712     0498  3001               	movlw	1
  6713     0499  0020               	movlb	0	; select bank0
  6714     049A  02C2               	subwf	_eusartRxCount,f	;volatile
  6715     049B                     l2012:
  6716                           
  6717                           ;D:\yiming\00work\FR743_B101L_RX01.X\mcc_generated_files\eusart.c: 168:     PIE1bits.RCI
      +                          E = 1;
  6718     049B  0021               	movlb	1	; select bank1
  6719     049C  1691               	bsf	17,5	;volatile
  6720     049D                     l2014:
  6721                           
  6722                           ;D:\yiming\00work\FR743_B101L_RX01.X\mcc_generated_files\eusart.c: 170:     return readV
      +                          alue;
  6723     049D  0872               	movf	EUSART_Read@readValue,w
  6724     049E                     l423:
  6725     049E  0008               	return
  6726     049F                     __end_of_EUSART_Read:
  6727                           
  6728                           	psect	text48
  6729     0643                     __ptext48:	
  6730 ;; *************** function _EUSART_is_rx_ready *****************
  6731 ;; Defined at:
  6732 ;;		line 137 in file "D:\yiming\00work\FR743_B101L_RX01.X\mcc_generated_files\eusart.c"
  6733 ;; Parameters:    Size  Location     Type
  6734 ;;		None
  6735 ;; Auto vars:     Size  Location     Type
  6736 ;;		None
  6737 ;; Return value:  Size  Location     Type
  6738 ;;                  1    wreg      _Bool 
  6739 ;; Registers used:
  6740 ;;		wreg, status,2, status,0
  6741 ;; Tracked objects:
  6742 ;;		On entry : 0/0
  6743 ;;		On exit  : 0/0
  6744 ;;		Unchanged: 0/0
  6745 ;; Data sizes:     COMMON   BANK0   BANK1   BANK2   BANK3   BANK4   BANK5   BANK6
  6746 ;;      Params:         0       0       0       0       0       0       0       0
  6747 ;;      Locals:         0       0       0       0       0       0       0       0
  6748 ;;      Temps:          0       0       0       0       0       0       0       0
  6749 ;;      Totals:         0       0       0       0       0       0       0       0
  6750 ;;Total ram usage:        0 bytes
  6751 ;; Hardware stack levels used: 1
  6752 ;; Hardware stack levels required when called: 4
  6753 ;; This function calls:
  6754 ;;		Nothing
  6755 ;; This function is called by:
  6756 ;;		_LIN_handler
  6757 ;; This function uses a non-reentrant model
  6758 ;;
  6759                           
  6760     0643                     _EUSART_is_rx_ready:	
  6761                           ;psect for function _EUSART_is_rx_ready
  6762                           
  6763     0643                     l2230:	
  6764                           ;incstack = 0
  6765                           ; Regs used in _EUSART_is_rx_ready: [wreg+status,2+status,0]
  6766                           
  6767                           
  6768                           ;D:\yiming\00work\FR743_B101L_RX01.X\mcc_generated_files\eusart.c: 139:     return (eusa
      +                          rtRxCount ? 1 : 0);
  6769     0643  0020               	movlb	0	; select bank0
  6770     0644  0842               	movf	_eusartRxCount,w	;volatile
  6771     0645  1D03               	btfss	3,2
  6772     0646  2E48               	goto	u1661
  6773     0647  2E4A               	goto	u1660
  6774     0648                     u1661:
  6775     0648  3001               	movlw	1
  6776     0649  2E4B               	goto	u1670
  6777     064A                     u1660:
  6778     064A  3000               	movlw	0
  6779     064B                     u1670:
  6780     064B                     l410:
  6781     064B  0008               	return
  6782     064C                     __end_of_EUSART_is_rx_ready:
  6783                           
  6784                           	psect	text49
  6785     05DD                     __ptext49:	
  6786 ;; *************** function _AutoBaud_Detect *****************
  6787 ;; Defined at:
  6788 ;;		line 130 in file "D:\yiming\00work\FR743_B101L_RX01.X\main.c"
  6789 ;; Parameters:    Size  Location     Type
  6790 ;;		None
  6791 ;; Auto vars:     Size  Location     Type
  6792 ;;		None
  6793 ;; Return value:  Size  Location     Type
  6794 ;;                  1    wreg      void 
  6795 ;; Registers used:
  6796 ;;		status,2, status,0, pclath, cstack
  6797 ;; Tracked objects:
  6798 ;;		On entry : 0/0
  6799 ;;		On exit  : 0/0
  6800 ;;		Unchanged: 0/0
  6801 ;; Data sizes:     COMMON   BANK0   BANK1   BANK2   BANK3   BANK4   BANK5   BANK6
  6802 ;;      Params:         0       0       0       0       0       0       0       0
  6803 ;;      Locals:         0       0       0       0       0       0       0       0
  6804 ;;      Temps:          0       0       0       0       0       0       0       0
  6805 ;;      Totals:         0       0       0       0       0       0       0       0
  6806 ;;Total ram usage:        0 bytes
  6807 ;; Hardware stack levels used: 1
  6808 ;; Hardware stack levels required when called: 5
  6809 ;; This function calls:
  6810 ;;		_AutoBaud_Detect_ON
  6811 ;; This function is called by:
  6812 ;;		_main
  6813 ;; This function uses a non-reentrant model
  6814 ;;
  6815                           
  6816     05DD                     _AutoBaud_Detect:	
  6817                           ;psect for function _AutoBaud_Detect
  6818                           
  6819     05DD                     l18:	
  6820                           ;incstack = 0
  6821                           ; Regs used in _AutoBaud_Detect: [status,2+status,0+pclath+cstack]
  6822                           ;D:\yiming\00work\FR743_B101L_RX01.X\main.c: 131:   while (1) {
  6823                           
  6824     05DD                     l1676:
  6825                           
  6826                           ;D:\yiming\00work\FR743_B101L_RX01.X\main.c: 132:     AutoBaud_Detect_ON();
  6827     05DD  3186  2692  3185   	fcall	_AutoBaud_Detect_ON
  6828                           
  6829                           ;D:\yiming\00work\FR743_B101L_RX01.X\main.c: 133:     while (!BAUDCONbits.ABDOVF)
  6830     05E0  2DE6               	goto	l19
  6831     05E1                     l20:
  6832                           
  6833                           ;D:\yiming\00work\FR743_B101L_RX01.X\main.c: 134:     {;D:\yiming\00work\FR743_B101L_RX0
      +                          1.X\main.c: 135:       if (!BAUDCONbits.ABDEN)
  6834     05E1  181F               	btfsc	31,0	;volatile
  6835     05E2  2DE4               	goto	u721
  6836     05E3  2DE5               	goto	u720
  6837     05E4                     u721:
  6838     05E4  2DE6               	goto	l19
  6839     05E5                     u720:
  6840     05E5  2DEB               	goto	l22
  6841     05E6                     l19:	
  6842                           ;D:\yiming\00work\FR743_B101L_RX01.X\main.c: 139:     }
  6843                           
  6844                           
  6845                           ;D:\yiming\00work\FR743_B101L_RX01.X\main.c: 133:     while (!BAUDCONbits.ABDOVF)
  6846     05E6  0023               	movlb	3	; select bank3
  6847     05E7  1F9F               	btfss	31,7	;volatile
  6848     05E8  2DEA               	goto	u731
  6849     05E9  2DEB               	goto	u730
  6850     05EA                     u731:
  6851     05EA  2DE1               	goto	l20
  6852     05EB                     u730:
  6853     05EB                     l22:
  6854                           
  6855                           ;D:\yiming\00work\FR743_B101L_RX01.X\main.c: 142:     if (!BAUDCONbits.ABDOVF)
  6856     05EB  1B9F               	btfsc	31,7	;volatile
  6857     05EC  2DEE               	goto	u741
  6858     05ED  2DEF               	goto	u740
  6859     05EE                     u741:
  6860     05EE  2DDD               	goto	l18
  6861     05EF                     u740:
  6862     05EF                     l26:
  6863     05EF  0008               	return
  6864     05F0                     __end_of_AutoBaud_Detect:
  6865                           
  6866                           	psect	text50
  6867     0692                     __ptext50:	
  6868 ;; *************** function _AutoBaud_Detect_ON *****************
  6869 ;; Defined at:
  6870 ;;		line 123 in file "D:\yiming\00work\FR743_B101L_RX01.X\main.c"
  6871 ;; Parameters:    Size  Location     Type
  6872 ;;		None
  6873 ;; Auto vars:     Size  Location     Type
  6874 ;;		None
  6875 ;; Return value:  Size  Location     Type
  6876 ;;                  1    wreg      void 
  6877 ;; Registers used:
  6878 ;;		None
  6879 ;; Tracked objects:
  6880 ;;		On entry : 0/0
  6881 ;;		On exit  : 0/0
  6882 ;;		Unchanged: 0/0
  6883 ;; Data sizes:     COMMON   BANK0   BANK1   BANK2   BANK3   BANK4   BANK5   BANK6
  6884 ;;      Params:         0       0       0       0       0       0       0       0
  6885 ;;      Locals:         0       0       0       0       0       0       0       0
  6886 ;;      Temps:          0       0       0       0       0       0       0       0
  6887 ;;      Totals:         0       0       0       0       0       0       0       0
  6888 ;;Total ram usage:        0 bytes
  6889 ;; Hardware stack levels used: 1
  6890 ;; Hardware stack levels required when called: 4
  6891 ;; This function calls:
  6892 ;;		Nothing
  6893 ;; This function is called by:
  6894 ;;		_AutoBaud_Detect
  6895 ;; This function uses a non-reentrant model
  6896 ;;
  6897                           
  6898     0692                     _AutoBaud_Detect_ON:	
  6899                           ;psect for function _AutoBaud_Detect_ON
  6900                           
  6901     0692                     l1426:	
  6902                           ;incstack = 0
  6903                           ; Regs used in _AutoBaud_Detect_ON: []
  6904                           
  6905                           
  6906                           ;D:\yiming\00work\FR743_B101L_RX01.X\main.c: 124:   BAUDCONbits.ABDOVF = 0;
  6907     0692  0023               	movlb	3	; select bank3
  6908     0693  139F               	bcf	31,7	;volatile
  6909                           
  6910                           ;D:\yiming\00work\FR743_B101L_RX01.X\main.c: 125:   BAUDCONbits.ABDEN = 1;
  6911     0694  141F               	bsf	31,0	;volatile
  6912                           
  6913                           ;D:\yiming\00work\FR743_B101L_RX01.X\main.c: 126:   BAUDCONbits.WUE = 1;
  6914     0695  149F               	bsf	31,1	;volatile
  6915     0696                     l15:
  6916     0696  0008               	return
  6917     0697                     __end_of_AutoBaud_Detect_ON:
  6918                           
  6919                           	psect	intentry
  6920     0004                     __pintentry:	
  6921 ;; *************** function _INTERRUPT_InterruptManager *****************
  6922 ;; Defined at:
  6923 ;;		line 52 in file "D:\yiming\00work\FR743_B101L_RX01.X\mcc_generated_files\interrupt_manager.c"
  6924 ;; Parameters:    Size  Location     Type
  6925 ;;		None
  6926 ;; Auto vars:     Size  Location     Type
  6927 ;;		None
  6928 ;; Return value:  Size  Location     Type
  6929 ;;                  1    wreg      void 
  6930 ;; Registers used:
  6931 ;;		wreg, fsr1l, fsr1h, status,2, status,0, pclath, cstack
  6932 ;; Tracked objects:
  6933 ;;		On entry : 0/0
  6934 ;;		On exit  : 0/0
  6935 ;;		Unchanged: 0/0
  6936 ;; Data sizes:     COMMON   BANK0   BANK1   BANK2   BANK3   BANK4   BANK5   BANK6
  6937 ;;      Params:         0       0       0       0       0       0       0       0
  6938 ;;      Locals:         0       0       0       0       0       0       0       0
  6939 ;;      Temps:          0       0       0       0       0       0       0       0
  6940 ;;      Totals:         0       0       0       0       0       0       0       0
  6941 ;;Total ram usage:        0 bytes
  6942 ;; Hardware stack levels used: 1
  6943 ;; Hardware stack levels required when called: 3
  6944 ;; This function calls:
  6945 ;;		NULL
  6946 ;;		_EUSART_Receive_ISR
  6947 ;;		_EUSART_Transmit_ISR
  6948 ;;		_TMR0_ISR
  6949 ;; This function is called by:
  6950 ;;		Interrupt level 1
  6951 ;; This function uses a non-reentrant model
  6952 ;;
  6953                           
  6954     0004                     _INTERRUPT_InterruptManager:
  6955                           
  6956                           ;incstack = 0
  6957     0004  147E               	bsf	int$flags,0	;set compiler interrupt flag (level 1)
  6958                           
  6959                           ; Regs used in _INTERRUPT_InterruptManager: [wreg+fsr1l+fsr1h+status,2+status,0+pclath+c
      +                          stack]
  6960     0005  3180               	pagesel	$
  6961     0006                     i1l2478:
  6962                           
  6963                           ;D:\yiming\00work\FR743_B101L_RX01.X\mcc_generated_files\interrupt_manager.c: 55:     if
      +                          (INTCONbits.TMR0IE == 1 && INTCONbits.TMR0IF == 1)
  6964     0006  1E8B               	btfss	11,5	;volatile
  6965     0007  2809               	goto	u194_21
  6966     0008  280A               	goto	u194_20
  6967     0009                     u194_21:
  6968     0009  2812               	goto	i1l494
  6969     000A                     u194_20:
  6970     000A                     i1l2480:
  6971     000A  1D0B               	btfss	11,2	;volatile
  6972     000B  280D               	goto	u195_21
  6973     000C  280E               	goto	u195_20
  6974     000D                     u195_21:
  6975     000D  2812               	goto	i1l494
  6976     000E                     u195_20:
  6977     000E                     i1l2482:
  6978                           
  6979                           ;D:\yiming\00work\FR743_B101L_RX01.X\mcc_generated_files\interrupt_manager.c: 56:     {;
      +                          D:\yiming\00work\FR743_B101L_RX01.X\mcc_generated_files\interrupt_manager.c: 57:        
      +                           TMR0_ISR();
  6980     000E  3185  25F0  3180   	fcall	_TMR0_ISR
  6981                           
  6982                           ;D:\yiming\00work\FR743_B101L_RX01.X\mcc_generated_files\interrupt_manager.c: 58:     }
  6983     0011  2836               	goto	i1l502
  6984     0012                     i1l494:	
  6985                           ;D:\yiming\00work\FR743_B101L_RX01.X\mcc_generated_files\interrupt_manager.c: 59:     el
      +                          se if(INTCONbits.PEIE == 1)
  6986                           
  6987     0012  1F0B               	btfss	11,6	;volatile
  6988     0013  2815               	goto	u196_21
  6989     0014  2816               	goto	u196_20
  6990     0015                     u196_21:
  6991     0015  2836               	goto	i1l502
  6992     0016                     u196_20:
  6993     0016                     i1l2484:
  6994                           
  6995                           ;D:\yiming\00work\FR743_B101L_RX01.X\mcc_generated_files\interrupt_manager.c: 60:     {;
      +                          D:\yiming\00work\FR743_B101L_RX01.X\mcc_generated_files\interrupt_manager.c: 61:        
      +                           if(PIE1bits.TXIE == 1 && PIR1bits.TXIF == 1)
  6996     0016  0021               	movlb	1	; select bank1
  6997     0017  1E11               	btfss	17,4	;volatile
  6998     0018  281A               	goto	u197_21
  6999     0019  281B               	goto	u197_20
  7000     001A                     u197_21:
  7001     001A  2826               	goto	i1l497
  7002     001B                     u197_20:
  7003     001B                     i1l2486:
  7004     001B  0020               	movlb	0	; select bank0
  7005     001C  1E11               	btfss	17,4	;volatile
  7006     001D  281F               	goto	u198_21
  7007     001E  2820               	goto	u198_20
  7008     001F                     u198_21:
  7009     001F  2826               	goto	i1l497
  7010     0020                     u198_20:
  7011     0020                     i1l2488:
  7012                           
  7013                           ;D:\yiming\00work\FR743_B101L_RX01.X\mcc_generated_files\interrupt_manager.c: 62:       
      +                            {;D:\yiming\00work\FR743_B101L_RX01.X\mcc_generated_files\interrupt_manager.c: 63:    
      +                                   EUSART_TxDefaultInterruptHandler();
  7014     0020  083B               	movf	_EUSART_TxDefaultInterruptHandler+1,w
  7015     0021  008A               	movwf	10
  7016     0022  083A               	movf	_EUSART_TxDefaultInterruptHandler,w
  7017     0023  000A               	callw
  7018     0024  3180               	pagesel	$
  7019                           
  7020                           ;D:\yiming\00work\FR743_B101L_RX01.X\mcc_generated_files\interrupt_manager.c: 64:       
      +                            }
  7021     0025  2836               	goto	i1l502
  7022     0026                     i1l497:	
  7023                           ;D:\yiming\00work\FR743_B101L_RX01.X\mcc_generated_files\interrupt_manager.c: 65:       
      +                            else if(PIE1bits.RCIE == 1 && PIR1bits.RCIF == 1)
  7024                           
  7025     0026  0021               	movlb	1	; select bank1
  7026     0027  1E91               	btfss	17,5	;volatile
  7027     0028  282A               	goto	u199_21
  7028     0029  282B               	goto	u199_20
  7029     002A                     u199_21:
  7030     002A  2836               	goto	i1l501
  7031     002B                     u199_20:
  7032     002B                     i1l2490:
  7033     002B  0020               	movlb	0	; select bank0
  7034     002C  1E91               	btfss	17,5	;volatile
  7035     002D  282F               	goto	u200_21
  7036     002E  2830               	goto	u200_20
  7037     002F                     u200_21:
  7038     002F  2836               	goto	i1l501
  7039     0030                     u200_20:
  7040     0030                     i1l2492:
  7041                           
  7042                           ;D:\yiming\00work\FR743_B101L_RX01.X\mcc_generated_files\interrupt_manager.c: 66:       
      +                            {;D:\yiming\00work\FR743_B101L_RX01.X\mcc_generated_files\interrupt_manager.c: 67:    
      +                                   EUSART_RxDefaultInterruptHandler();
  7043     0030  0839               	movf	_EUSART_RxDefaultInterruptHandler+1,w
  7044     0031  008A               	movwf	10
  7045     0032  0838               	movf	_EUSART_RxDefaultInterruptHandler,w
  7046     0033  000A               	callw
  7047     0034  3180               	pagesel	$
  7048                           
  7049                           ;D:\yiming\00work\FR743_B101L_RX01.X\mcc_generated_files\interrupt_manager.c: 68:       
      +                            }
  7050     0035  2836               	goto	i1l502
  7051     0036                     i1l501:	
  7052                           ;D:\yiming\00work\FR743_B101L_RX01.X\mcc_generated_files\interrupt_manager.c: 75:     {;
      +                          D:\yiming\00work\FR743_B101L_RX01.X\mcc_generated_files\interrupt_manager.c: 77:     }
  7053                           
  7054     0036                     i1l502:
  7055     0036  107E               	bcf	int$flags,0	;clear compiler interrupt flag (level 1)
  7056     0037  0009               	retfie
  7057     0038                     __end_of_INTERRUPT_InterruptManager:
  7058                           
  7059                           	psect	text52
  7060     05F0                     __ptext52:	
  7061 ;; *************** function _TMR0_ISR *****************
  7062 ;; Defined at:
  7063 ;;		line 108 in file "D:\yiming\00work\FR743_B101L_RX01.X\mcc_generated_files\tmr0.c"
  7064 ;; Parameters:    Size  Location     Type
  7065 ;;		None
  7066 ;; Auto vars:     Size  Location     Type
  7067 ;;		None
  7068 ;; Return value:  Size  Location     Type
  7069 ;;                  1    wreg      void 
  7070 ;; Registers used:
  7071 ;;		wreg, status,2, status,0, pclath, cstack
  7072 ;; Tracked objects:
  7073 ;;		On entry : 0/0
  7074 ;;		On exit  : 0/0
  7075 ;;		Unchanged: 0/0
  7076 ;; Data sizes:     COMMON   BANK0   BANK1   BANK2   BANK3   BANK4   BANK5   BANK6
  7077 ;;      Params:         0       0       0       0       0       0       0       0
  7078 ;;      Locals:         0       0       0       0       0       0       0       0
  7079 ;;      Temps:          0       0       0       0       0       0       0       0
  7080 ;;      Totals:         0       0       0       0       0       0       0       0
  7081 ;;Total ram usage:        0 bytes
  7082 ;; Hardware stack levels used: 1
  7083 ;; Hardware stack levels required when called: 2
  7084 ;; This function calls:
  7085 ;;		NULL
  7086 ;;		_LIN_timerHandler
  7087 ;;		_TMR0_DefaultInterruptHandler
  7088 ;; This function is called by:
  7089 ;;		_INTERRUPT_InterruptManager
  7090 ;; This function uses a non-reentrant model
  7091 ;;
  7092                           
  7093     05F0                     _TMR0_ISR:	
  7094                           ;psect for function _TMR0_ISR
  7095                           
  7096     05F0                     i1l2460:	
  7097                           ;incstack = 0
  7098                           ; Regs used in _TMR0_ISR: [wreg+status,2+status,0+pclath+cstack]
  7099                           
  7100                           
  7101                           ;D:\yiming\00work\FR743_B101L_RX01.X\mcc_generated_files\tmr0.c: 112:     INTCONbits.TMR
      +                          0IF = 0;
  7102     05F0  110B               	bcf	11,2	;volatile
  7103     05F1                     i1l2462:
  7104                           
  7105                           ;D:\yiming\00work\FR743_B101L_RX01.X\mcc_generated_files\tmr0.c: 114:     TMR0 = timer0R
      +                          eloadVal;
  7106     05F1  0020               	movlb	0	; select bank0
  7107     05F2  0840               	movf	_timer0ReloadVal,w	;volatile
  7108     05F3  0095               	movwf	21	;volatile
  7109     05F4                     i1l2464:
  7110                           
  7111                           ;D:\yiming\00work\FR743_B101L_RX01.X\mcc_generated_files\tmr0.c: 116:     if(TMR0_Interr
      +                          uptHandler)
  7112     05F4  0830               	movf	_TMR0_InterruptHandler,w
  7113     05F5  0431               	iorwf	_TMR0_InterruptHandler+1,w
  7114     05F6  1903               	btfsc	3,2
  7115     05F7  2DF9               	goto	u193_21
  7116     05F8  2DFA               	goto	u193_20
  7117     05F9                     u193_21:
  7118     05F9  2DFF               	goto	i1l604
  7119     05FA                     u193_20:
  7120     05FA                     i1l2466:
  7121                           
  7122                           ;D:\yiming\00work\FR743_B101L_RX01.X\mcc_generated_files\tmr0.c: 117:     {;D:\yiming\00
      +                          work\FR743_B101L_RX01.X\mcc_generated_files\tmr0.c: 118:         TMR0_InterruptHandler()
      +                          ;
  7123     05FA  0831               	movf	_TMR0_InterruptHandler+1,w
  7124     05FB  008A               	movwf	10
  7125     05FC  0830               	movf	_TMR0_InterruptHandler,w
  7126     05FD  000A               	callw
  7127     05FE  3185               	pagesel	$
  7128     05FF                     i1l604:
  7129     05FF  0008               	return
  7130     0600                     __end_of_TMR0_ISR:
  7131                           
  7132                           	psect	text53
  7133     0600                     __ptext53:	
  7134 ;; *************** function _LIN_timerHandler *****************
  7135 ;; Defined at:
  7136 ;;		line 304 in file "D:\yiming\00work\FR743_B101L_RX01.X\mcc_generated_files\LINDrivers\lin_slave.c"
  7137 ;; Parameters:    Size  Location     Type
  7138 ;;		None
  7139 ;; Auto vars:     Size  Location     Type
  7140 ;;		None
  7141 ;; Return value:  Size  Location     Type
  7142 ;;                  1    wreg      void 
  7143 ;; Registers used:
  7144 ;;		wreg, status,2, status,0, pclath, cstack
  7145 ;; Tracked objects:
  7146 ;;		On entry : 0/0
  7147 ;;		On exit  : 0/0
  7148 ;;		Unchanged: 0/0
  7149 ;; Data sizes:     COMMON   BANK0   BANK1   BANK2   BANK3   BANK4   BANK5   BANK6
  7150 ;;      Params:         0       0       0       0       0       0       0       0
  7151 ;;      Locals:         0       0       0       0       0       0       0       0
  7152 ;;      Temps:          1       0       0       0       0       0       0       0
  7153 ;;      Totals:         1       0       0       0       0       0       0       0
  7154 ;;Total ram usage:        1 bytes
  7155 ;; Hardware stack levels used: 1
  7156 ;; Hardware stack levels required when called: 1
  7157 ;; This function calls:
  7158 ;;		i1_LIN_stopTimer
  7159 ;; This function is called by:
  7160 ;;		_LIN_setTimerHandler
  7161 ;;		_TMR0_ISR
  7162 ;; This function uses a non-reentrant model
  7163 ;;
  7164                           
  7165     0600                     _LIN_timerHandler:	
  7166                           ;psect for function _LIN_timerHandler
  7167                           
  7168     0600                     i1l2272:	
  7169                           ;incstack = 0
  7170                           ; Regs used in _LIN_timerHandler: [wreg+status,2+status,0+pclath+cstack]
  7171                           
  7172                           
  7173                           ;D:\yiming\00work\FR743_B101L_RX01.X\mcc_generated_files\LINDrivers\lin_slave.c: 307:   
      +                            if (++CountCallBack >= LIN_timeout)
  7174     0600  3001               	movlw	1
  7175     0601  00F0               	movwf	??_LIN_timerHandler
  7176     0602  0870               	movf	??_LIN_timerHandler,w
  7177     0603  0020               	movlb	0	; select bank0
  7178     0604  07C8               	addwf	_CountCallBack,f	;volatile
  7179     0605  0868               	movf	_LIN_timeout,w
  7180     0606  0248               	subwf	_CountCallBack,w	;volatile
  7181     0607  1C03               	skipc
  7182     0608  2E0A               	goto	u172_21
  7183     0609  2E0B               	goto	u172_20
  7184     060A                     u172_21:
  7185     060A  2E0E               	goto	i1l313
  7186     060B                     u172_20:
  7187     060B                     i1l2274:
  7188                           
  7189                           ;D:\yiming\00work\FR743_B101L_RX01.X\mcc_generated_files\LINDrivers\lin_slave.c: 308:   
      +                            {;D:\yiming\00work\FR743_B101L_RX01.X\mcc_generated_files\LINDrivers\lin_slave.c: 310:
      +                                   LIN_stopTimer();
  7190     060B  3186  2697  3186   	fcall	i1_LIN_stopTimer
  7191     060E                     i1l313:
  7192     060E  0008               	return
  7193     060F                     __end_of_LIN_timerHandler:
  7194                           
  7195                           	psect	text54
  7196     06D4                     __ptext54:	
  7197 ;; *************** function _TMR0_DefaultInterruptHandler *****************
  7198 ;; Defined at:
  7199 ;;		line 129 in file "D:\yiming\00work\FR743_B101L_RX01.X\mcc_generated_files\tmr0.c"
  7200 ;; Parameters:    Size  Location     Type
  7201 ;;		None
  7202 ;; Auto vars:     Size  Location     Type
  7203 ;;		None
  7204 ;; Return value:  Size  Location     Type
  7205 ;;                  1    wreg      void 
  7206 ;; Registers used:
  7207 ;;		None
  7208 ;; Tracked objects:
  7209 ;;		On entry : 0/0
  7210 ;;		On exit  : 0/0
  7211 ;;		Unchanged: 0/0
  7212 ;; Data sizes:     COMMON   BANK0   BANK1   BANK2   BANK3   BANK4   BANK5   BANK6
  7213 ;;      Params:         0       0       0       0       0       0       0       0
  7214 ;;      Locals:         0       0       0       0       0       0       0       0
  7215 ;;      Temps:          0       0       0       0       0       0       0       0
  7216 ;;      Totals:         0       0       0       0       0       0       0       0
  7217 ;;Total ram usage:        0 bytes
  7218 ;; Hardware stack levels used: 1
  7219 ;; This function calls:
  7220 ;;		Nothing
  7221 ;; This function is called by:
  7222 ;;		_TMR0_Initialize
  7223 ;;		_TMR0_ISR
  7224 ;; This function uses a non-reentrant model
  7225 ;;
  7226                           
  7227     06D4                     _TMR0_DefaultInterruptHandler:	
  7228                           ;psect for function _TMR0_DefaultInterruptHandler
  7229                           
  7230     06D4                     i1l610:	
  7231                           ;incstack = 0
  7232                           ; Regs used in _TMR0_DefaultInterruptHandler: []
  7233                           
  7234     06D4  0008               	return
  7235     06D5                     __end_of_TMR0_DefaultInterruptHandler:
  7236                           
  7237                           	psect	text55
  7238     0697                     __ptext55:	
  7239 ;; *************** function i1_LIN_stopTimer *****************
  7240 ;; Defined at:
  7241 ;;		line 318 in file "D:\yiming\00work\FR743_B101L_RX01.X\mcc_generated_files\LINDrivers\lin_slave.c"
  7242 ;; Parameters:    Size  Location     Type
  7243 ;;		None
  7244 ;; Auto vars:     Size  Location     Type
  7245 ;;		None
  7246 ;; Return value:  Size  Location     Type
  7247 ;;                  1    wreg      void 
  7248 ;; Registers used:
  7249 ;;		status,2
  7250 ;; Tracked objects:
  7251 ;;		On entry : 0/0
  7252 ;;		On exit  : 0/0
  7253 ;;		Unchanged: 0/0
  7254 ;; Data sizes:     COMMON   BANK0   BANK1   BANK2   BANK3   BANK4   BANK5   BANK6
  7255 ;;      Params:         0       0       0       0       0       0       0       0
  7256 ;;      Locals:         0       0       0       0       0       0       0       0
  7257 ;;      Temps:          0       0       0       0       0       0       0       0
  7258 ;;      Totals:         0       0       0       0       0       0       0       0
  7259 ;;Total ram usage:        0 bytes
  7260 ;; Hardware stack levels used: 1
  7261 ;; This function calls:
  7262 ;;		Nothing
  7263 ;; This function is called by:
  7264 ;;		_LIN_timerHandler
  7265 ;; This function uses a non-reentrant model
  7266 ;;
  7267                           
  7268     0697                     i1_LIN_stopTimer:	
  7269                           ;psect for function i1_LIN_stopTimer
  7270                           
  7271     0697                     i1l2100:	
  7272                           ;incstack = 0
  7273                           ; Regs used in i1_LIN_stopTimer: [status,2]
  7274                           
  7275                           
  7276                           ;D:\yiming\00work\FR743_B101L_RX01.X\mcc_generated_files\LINDrivers\lin_slave.c: 319:   
      +                            __nop();
  7277     0697  0000               	nop
  7278     0698                     i1l2102:
  7279                           
  7280                           ;D:\yiming\00work\FR743_B101L_RX01.X\mcc_generated_files\LINDrivers\lin_slave.c: 321:   
      +                            CountCallBack = 0;
  7281     0698  0020               	movlb	0	; select bank0
  7282     0699  01C8               	clrf	_CountCallBack	;volatile
  7283                           
  7284                           ;D:\yiming\00work\FR743_B101L_RX01.X\mcc_generated_files\LINDrivers\lin_slave.c: 322:   
      +                            LIN_timerRunning = 0;
  7285     069A  01C9               	clrf	_LIN_timerRunning
  7286     069B                     i1l319:
  7287     069B  0008               	return
  7288     069C                     __end_ofi1_LIN_stopTimer:
  7289                           
  7290                           	psect	text56
  7291     04E9                     __ptext56:	
  7292 ;; *************** function _EUSART_Transmit_ISR *****************
  7293 ;; Defined at:
  7294 ;;		line 197 in file "D:\yiming\00work\FR743_B101L_RX01.X\mcc_generated_files\eusart.c"
  7295 ;; Parameters:    Size  Location     Type
  7296 ;;		None
  7297 ;; Auto vars:     Size  Location     Type
  7298 ;;		None
  7299 ;; Return value:  Size  Location     Type
  7300 ;;                  1    wreg      void 
  7301 ;; Registers used:
  7302 ;;		wreg, fsr1l, fsr1h, status,2, status,0
  7303 ;; Tracked objects:
  7304 ;;		On entry : 0/0
  7305 ;;		On exit  : 0/0
  7306 ;;		Unchanged: 0/0
  7307 ;; Data sizes:     COMMON   BANK0   BANK1   BANK2   BANK3   BANK4   BANK5   BANK6
  7308 ;;      Params:         0       0       0       0       0       0       0       0
  7309 ;;      Locals:         0       0       0       0       0       0       0       0
  7310 ;;      Temps:          1       0       0       0       0       0       0       0
  7311 ;;      Totals:         1       0       0       0       0       0       0       0
  7312 ;;Total ram usage:        1 bytes
  7313 ;; Hardware stack levels used: 1
  7314 ;; This function calls:
  7315 ;;		Nothing
  7316 ;; This function is called by:
  7317 ;;		_EUSART_Initialize
  7318 ;;		_INTERRUPT_InterruptManager
  7319 ;; This function uses a non-reentrant model
  7320 ;;
  7321                           
  7322     04E9                     _EUSART_Transmit_ISR:	
  7323                           ;psect for function _EUSART_Transmit_ISR
  7324                           
  7325     04E9                     i1l2428:	
  7326                           ;incstack = 0
  7327                           ; Regs used in _EUSART_Transmit_ISR: [wreg+fsr1l+fsr1h+status,2+status,0]
  7328                           
  7329                           
  7330                           ;D:\yiming\00work\FR743_B101L_RX01.X\mcc_generated_files\eusart.c: 201:     if(sizeof(eu
      +                          sartTxBuffer) > eusartTxBufferRemaining)
  7331     04E9  3008               	movlw	8
  7332     04EA  0020               	movlb	0	; select bank0
  7333     04EB  0243               	subwf	_eusartTxBufferRemaining,w	;volatile
  7334     04EC  1803               	skipnc
  7335     04ED  2CEF               	goto	u188_21
  7336     04EE  2CF0               	goto	u188_20
  7337     04EF                     u188_21:
  7338     04EF  2D08               	goto	i1l435
  7339     04F0                     u188_20:
  7340     04F0                     i1l2430:
  7341                           
  7342                           ;D:\yiming\00work\FR743_B101L_RX01.X\mcc_generated_files\eusart.c: 202:     {;D:\yiming\
      +                          00work\FR743_B101L_RX01.X\mcc_generated_files\eusart.c: 203:         TXREG = eusartTxBuf
      +                          fer[eusartTxTail++];
  7343     04F0  0844               	movf	_eusartTxTail,w
  7344     04F1  3E28               	addlw	(low (_eusartTxBuffer| 0))& (0+255)
  7345     04F2  0086               	movwf	6
  7346     04F3  0187               	clrf	7
  7347     04F4  0801               	movf	1,w
  7348     04F5  0023               	movlb	3	; select bank3
  7349     04F6  009A               	movwf	26	;volatile
  7350     04F7                     i1l2432:
  7351     04F7  3001               	movlw	1
  7352     04F8  00F0               	movwf	??_EUSART_Transmit_ISR
  7353     04F9  0870               	movf	??_EUSART_Transmit_ISR,w
  7354     04FA  0020               	movlb	0	; select bank0
  7355     04FB  07C4               	addwf	_eusartTxTail,f	;volatile
  7356     04FC                     i1l2434:
  7357                           
  7358                           ;D:\yiming\00work\FR743_B101L_RX01.X\mcc_generated_files\eusart.c: 204:         if(sizeo
      +                          f(eusartTxBuffer) <= eusartTxTail)
  7359     04FC  3008               	movlw	8
  7360     04FD  0244               	subwf	_eusartTxTail,w	;volatile
  7361     04FE  1C03               	skipc
  7362     04FF  2D01               	goto	u189_21
  7363     0500  2D02               	goto	u189_20
  7364     0501                     u189_21:
  7365     0501  2D03               	goto	i1l2438
  7366     0502                     u189_20:
  7367     0502                     i1l2436:
  7368                           
  7369                           ;D:\yiming\00work\FR743_B101L_RX01.X\mcc_generated_files\eusart.c: 205:         {;D:\yim
      +                          ing\00work\FR743_B101L_RX01.X\mcc_generated_files\eusart.c: 206:             eusartTxTai
      +                          l = 0;
  7370     0502  01C4               	clrf	_eusartTxTail	;volatile
  7371     0503                     i1l2438:
  7372                           
  7373                           ;D:\yiming\00work\FR743_B101L_RX01.X\mcc_generated_files\eusart.c: 208:         eusartTx
      +                          BufferRemaining++;
  7374     0503  3001               	movlw	1
  7375     0504  00F0               	movwf	??_EUSART_Transmit_ISR
  7376     0505  0870               	movf	??_EUSART_Transmit_ISR,w
  7377     0506  07C3               	addwf	_eusartTxBufferRemaining,f	;volatile
  7378                           
  7379                           ;D:\yiming\00work\FR743_B101L_RX01.X\mcc_generated_files\eusart.c: 209:     }
  7380     0507  2D0A               	goto	i1l438
  7381     0508                     i1l435:	
  7382                           ;D:\yiming\00work\FR743_B101L_RX01.X\mcc_generated_files\eusart.c: 210:     else
  7383                           
  7384                           
  7385                           ;D:\yiming\00work\FR743_B101L_RX01.X\mcc_generated_files\eusart.c: 211:     {;D:\yiming\
      +                          00work\FR743_B101L_RX01.X\mcc_generated_files\eusart.c: 212:         PIE1bits.TXIE = 0;
  7386     0508  0021               	movlb	1	; select bank1
  7387     0509  1211               	bcf	17,4	;volatile
  7388     050A                     i1l438:
  7389     050A  0008               	return
  7390     050B                     __end_of_EUSART_Transmit_ISR:
  7391                           
  7392                           	psect	text57
  7393     03E5                     __ptext57:	
  7394 ;; *************** function _EUSART_Receive_ISR *****************
  7395 ;; Defined at:
  7396 ;;		line 216 in file "D:\yiming\00work\FR743_B101L_RX01.X\mcc_generated_files\eusart.c"
  7397 ;; Parameters:    Size  Location     Type
  7398 ;;		None
  7399 ;; Auto vars:     Size  Location     Type
  7400 ;;		None
  7401 ;; Return value:  Size  Location     Type
  7402 ;;                  1    wreg      void 
  7403 ;; Registers used:
  7404 ;;		wreg, fsr1l, fsr1h, status,2, status,0, pclath, cstack
  7405 ;; Tracked objects:
  7406 ;;		On entry : 0/0
  7407 ;;		On exit  : 0/0
  7408 ;;		Unchanged: 0/0
  7409 ;; Data sizes:     COMMON   BANK0   BANK1   BANK2   BANK3   BANK4   BANK5   BANK6
  7410 ;;      Params:         0       0       0       0       0       0       0       0
  7411 ;;      Locals:         0       0       0       0       0       0       0       0
  7412 ;;      Temps:          0       0       0       0       0       0       0       0
  7413 ;;      Totals:         0       0       0       0       0       0       0       0
  7414 ;;Total ram usage:        0 bytes
  7415 ;; Hardware stack levels used: 1
  7416 ;; Hardware stack levels required when called: 2
  7417 ;; This function calls:
  7418 ;;		NULL
  7419 ;;		_EUSART_DefaultErrorHandler
  7420 ;;		_EUSART_DefaultFramingErrorHandler
  7421 ;;		_EUSART_DefaultOverrunErrorHandler
  7422 ;;		_EUSART_RxDataHandler
  7423 ;; This function is called by:
  7424 ;;		_EUSART_Initialize
  7425 ;;		_INTERRUPT_InterruptManager
  7426 ;; This function uses a non-reentrant model
  7427 ;;
  7428                           
  7429     03E5                     _EUSART_Receive_ISR:	
  7430                           ;psect for function _EUSART_Receive_ISR
  7431                           
  7432     03E5                     i1l2440:	
  7433                           ;incstack = 0
  7434                           ; Regs used in _EUSART_Receive_ISR: [wreg+fsr1l+fsr1h+status,2+status,0+pclath+cstack]
  7435                           
  7436                           
  7437                           ;D:\yiming\00work\FR743_B101L_RX01.X\mcc_generated_files\eusart.c: 219:     eusartRxStat
      +                          usBuffer[eusartRxHead].status = 0;
  7438     03E5  087C               	movf	_eusartRxHead,w	;volatile
  7439     03E6  3E20               	addlw	(low (_eusartRxStatusBuffer| 0))& (0+255)
  7440     03E7  0086               	movwf	6
  7441     03E8  0187               	clrf	7
  7442     03E9  0181               	clrf	1
  7443     03EA                     i1l2442:
  7444                           
  7445                           ;D:\yiming\00work\FR743_B101L_RX01.X\mcc_generated_files\eusart.c: 221:     if(RCSTAbits
      +                          .FERR){
  7446     03EA  0023               	movlb	3	; select bank3
  7447     03EB  1D1D               	btfss	29,2	;volatile
  7448     03EC  2BEE               	goto	u190_21
  7449     03ED  2BEF               	goto	u190_20
  7450     03EE                     u190_21:
  7451     03EE  2BFA               	goto	i1l2448
  7452     03EF                     u190_20:
  7453     03EF                     i1l2444:
  7454                           
  7455                           ;D:\yiming\00work\FR743_B101L_RX01.X\mcc_generated_files\eusart.c: 222:         eusartRx
      +                          StatusBuffer[eusartRxHead].ferr = 1;
  7456     03EF  087C               	movf	_eusartRxHead,w	;volatile
  7457     03F0  3E20               	addlw	(low (_eusartRxStatusBuffer| 0))& (0+255)
  7458     03F1  0086               	movwf	6
  7459     03F2  0187               	clrf	7
  7460     03F3  1481               	bsf	1,1
  7461     03F4                     i1l2446:
  7462                           
  7463                           ;D:\yiming\00work\FR743_B101L_RX01.X\mcc_generated_files\eusart.c: 223:         EUSART_F
      +                          ramingErrorHandler();
  7464     03F4  0020               	movlb	0	; select bank0
  7465     03F5  0837               	movf	_EUSART_FramingErrorHandler+1,w
  7466     03F6  008A               	movwf	10
  7467     03F7  0836               	movf	_EUSART_FramingErrorHandler,w
  7468     03F8  000A               	callw
  7469     03F9  3183               	pagesel	$
  7470     03FA                     i1l2448:
  7471                           
  7472                           ;D:\yiming\00work\FR743_B101L_RX01.X\mcc_generated_files\eusart.c: 226:     if(RCSTAbits
      +                          .OERR){
  7473     03FA  0023               	movlb	3	; select bank3
  7474     03FB  1C9D               	btfss	29,1	;volatile
  7475     03FC  2BFE               	goto	u191_21
  7476     03FD  2BFF               	goto	u191_20
  7477     03FE                     u191_21:
  7478     03FE  2C0A               	goto	i1l2454
  7479     03FF                     u191_20:
  7480     03FF                     i1l2450:
  7481                           
  7482                           ;D:\yiming\00work\FR743_B101L_RX01.X\mcc_generated_files\eusart.c: 227:         eusartRx
      +                          StatusBuffer[eusartRxHead].oerr = 1;
  7483     03FF  087C               	movf	_eusartRxHead,w	;volatile
  7484     0400  3E20               	addlw	(low (_eusartRxStatusBuffer| 0))& (0+255)
  7485     0401  0086               	movwf	6
  7486     0402  0187               	clrf	7
  7487     0403  1501               	bsf	1,2
  7488     0404                     i1l2452:
  7489                           
  7490                           ;D:\yiming\00work\FR743_B101L_RX01.X\mcc_generated_files\eusart.c: 228:         EUSART_O
      +                          verrunErrorHandler();
  7491     0404  0020               	movlb	0	; select bank0
  7492     0405  0835               	movf	_EUSART_OverrunErrorHandler+1,w
  7493     0406  008A               	movwf	10
  7494     0407  0834               	movf	_EUSART_OverrunErrorHandler,w
  7495     0408  000A               	callw
  7496     0409  3183               	pagesel	$
  7497     040A                     i1l2454:
  7498                           
  7499                           ;D:\yiming\00work\FR743_B101L_RX01.X\mcc_generated_files\eusart.c: 231:     if(eusartRxS
      +                          tatusBuffer[eusartRxHead].status){
  7500     040A  087C               	movf	_eusartRxHead,w	;volatile
  7501     040B  3E20               	addlw	(low (_eusartRxStatusBuffer| 0))& (0+255)
  7502     040C  0086               	movwf	6
  7503     040D  0187               	clrf	7
  7504     040E  0801               	movf	1,w
  7505     040F  1903               	btfsc	3,2
  7506     0410  2C12               	goto	u192_21
  7507     0411  2C13               	goto	u192_20
  7508     0412                     u192_21:
  7509     0412  2C1A               	goto	i1l2458
  7510     0413                     u192_20:
  7511     0413                     i1l2456:
  7512                           
  7513                           ;D:\yiming\00work\FR743_B101L_RX01.X\mcc_generated_files\eusart.c: 232:         EUSART_E
      +                          rrorHandler();
  7514     0413  0020               	movlb	0	; select bank0
  7515     0414  0833               	movf	_EUSART_ErrorHandler+1,w
  7516     0415  008A               	movwf	10
  7517     0416  0832               	movf	_EUSART_ErrorHandler,w
  7518     0417  000A               	callw
  7519     0418  3183               	pagesel	$
  7520                           
  7521                           ;D:\yiming\00work\FR743_B101L_RX01.X\mcc_generated_files\eusart.c: 233:     } else {
  7522     0419  2C1D               	goto	i1l445
  7523     041A                     i1l2458:
  7524                           
  7525                           ;D:\yiming\00work\FR743_B101L_RX01.X\mcc_generated_files\eusart.c: 234:         EUSART_R
      +                          xDataHandler();
  7526     041A  3185  2575  3183   	fcall	_EUSART_RxDataHandler
  7527     041D                     i1l445:
  7528     041D  0008               	return
  7529     041E                     __end_of_EUSART_Receive_ISR:
  7530                           
  7531                           	psect	text58
  7532     06A4                     __ptext58:	
  7533 ;; *************** function _EUSART_DefaultOverrunErrorHandler *****************
  7534 ;; Defined at:
  7535 ;;		line 252 in file "D:\yiming\00work\FR743_B101L_RX01.X\mcc_generated_files\eusart.c"
  7536 ;; Parameters:    Size  Location     Type
  7537 ;;		None
  7538 ;; Auto vars:     Size  Location     Type
  7539 ;;		None
  7540 ;; Return value:  Size  Location     Type
  7541 ;;                  1    wreg      void 
  7542 ;; Registers used:
  7543 ;;		None
  7544 ;; Tracked objects:
  7545 ;;		On entry : 0/0
  7546 ;;		On exit  : 0/0
  7547 ;;		Unchanged: 0/0
  7548 ;; Data sizes:     COMMON   BANK0   BANK1   BANK2   BANK3   BANK4   BANK5   BANK6
  7549 ;;      Params:         0       0       0       0       0       0       0       0
  7550 ;;      Locals:         0       0       0       0       0       0       0       0
  7551 ;;      Temps:          0       0       0       0       0       0       0       0
  7552 ;;      Totals:         0       0       0       0       0       0       0       0
  7553 ;;Total ram usage:        0 bytes
  7554 ;; Hardware stack levels used: 1
  7555 ;; This function calls:
  7556 ;;		Nothing
  7557 ;; This function is called by:
  7558 ;;		_EUSART_Initialize
  7559 ;;		_EUSART_Receive_ISR
  7560 ;; This function uses a non-reentrant model
  7561 ;;
  7562                           
  7563     06A4                     _EUSART_DefaultOverrunErrorHandler:	
  7564                           ;psect for function _EUSART_DefaultOverrunErrorHandler
  7565                           
  7566     06A4                     i1l2308:	
  7567                           ;incstack = 0
  7568                           ; Regs used in _EUSART_DefaultOverrunErrorHandler: []
  7569                           
  7570                           
  7571                           ;D:\yiming\00work\FR743_B101L_RX01.X\mcc_generated_files\eusart.c: 255:     RCSTAbits.CR
      +                          EN = 0;
  7572     06A4  0023               	movlb	3	; select bank3
  7573     06A5  121D               	bcf	29,4	;volatile
  7574                           
  7575                           ;D:\yiming\00work\FR743_B101L_RX01.X\mcc_generated_files\eusart.c: 256:     RCSTAbits.CR
      +                          EN = 1;
  7576     06A6  161D               	bsf	29,4	;volatile
  7577     06A7                     i1l455:
  7578     06A7  0008               	return
  7579     06A8                     __end_of_EUSART_DefaultOverrunErrorHandler:
  7580                           
  7581                           	psect	text59
  7582     06D5                     __ptext59:	
  7583 ;; *************** function _EUSART_DefaultFramingErrorHandler *****************
  7584 ;; Defined at:
  7585 ;;		line 250 in file "D:\yiming\00work\FR743_B101L_RX01.X\mcc_generated_files\eusart.c"
  7586 ;; Parameters:    Size  Location     Type
  7587 ;;		None
  7588 ;; Auto vars:     Size  Location     Type
  7589 ;;		None
  7590 ;; Return value:  Size  Location     Type
  7591 ;;                  1    wreg      void 
  7592 ;; Registers used:
  7593 ;;		None
  7594 ;; Tracked objects:
  7595 ;;		On entry : 0/0
  7596 ;;		On exit  : 0/0
  7597 ;;		Unchanged: 0/0
  7598 ;; Data sizes:     COMMON   BANK0   BANK1   BANK2   BANK3   BANK4   BANK5   BANK6
  7599 ;;      Params:         0       0       0       0       0       0       0       0
  7600 ;;      Locals:         0       0       0       0       0       0       0       0
  7601 ;;      Temps:          0       0       0       0       0       0       0       0
  7602 ;;      Totals:         0       0       0       0       0       0       0       0
  7603 ;;Total ram usage:        0 bytes
  7604 ;; Hardware stack levels used: 1
  7605 ;; This function calls:
  7606 ;;		Nothing
  7607 ;; This function is called by:
  7608 ;;		_EUSART_Initialize
  7609 ;;		_EUSART_Receive_ISR
  7610 ;; This function uses a non-reentrant model
  7611 ;;
  7612                           
  7613     06D5                     _EUSART_DefaultFramingErrorHandler:	
  7614                           ;psect for function _EUSART_DefaultFramingErrorHandler
  7615                           
  7616     06D5                     i1l452:	
  7617                           ;incstack = 0
  7618                           ; Regs used in _EUSART_DefaultFramingErrorHandler: []
  7619                           
  7620     06D5  0008               	return
  7621     06D6                     __end_of_EUSART_DefaultFramingErrorHandler:
  7622                           
  7623                           	psect	text60
  7624     06A8                     __ptext60:	
  7625 ;; *************** function _EUSART_DefaultErrorHandler *****************
  7626 ;; Defined at:
  7627 ;;		line 260 in file "D:\yiming\00work\FR743_B101L_RX01.X\mcc_generated_files\eusart.c"
  7628 ;; Parameters:    Size  Location     Type
  7629 ;;		None
  7630 ;; Auto vars:     Size  Location     Type
  7631 ;;		None
  7632 ;; Return value:  Size  Location     Type
  7633 ;;                  1    wreg      void 
  7634 ;; Registers used:
  7635 ;;		wreg, fsr1l, fsr1h, status,2, status,0, pclath, cstack
  7636 ;; Tracked objects:
  7637 ;;		On entry : 0/0
  7638 ;;		On exit  : 0/0
  7639 ;;		Unchanged: 0/0
  7640 ;; Data sizes:     COMMON   BANK0   BANK1   BANK2   BANK3   BANK4   BANK5   BANK6
  7641 ;;      Params:         0       0       0       0       0       0       0       0
  7642 ;;      Locals:         0       0       0       0       0       0       0       0
  7643 ;;      Temps:          0       0       0       0       0       0       0       0
  7644 ;;      Totals:         0       0       0       0       0       0       0       0
  7645 ;;Total ram usage:        0 bytes
  7646 ;; Hardware stack levels used: 1
  7647 ;; Hardware stack levels required when called: 1
  7648 ;; This function calls:
  7649 ;;		_EUSART_RxDataHandler
  7650 ;; This function is called by:
  7651 ;;		_EUSART_Initialize
  7652 ;;		_EUSART_Receive_ISR
  7653 ;; This function uses a non-reentrant model
  7654 ;;
  7655                           
  7656     06A8                     _EUSART_DefaultErrorHandler:	
  7657                           ;psect for function _EUSART_DefaultErrorHandler
  7658                           
  7659     06A8                     i1l2310:	
  7660                           ;incstack = 0
  7661                           ; Regs used in _EUSART_DefaultErrorHandler: [wreg+fsr1l+fsr1h+status,2+status,0+pclath+c
      +                          stack]
  7662                           
  7663                           
  7664                           ;D:\yiming\00work\FR743_B101L_RX01.X\mcc_generated_files\eusart.c: 261:     EUSART_RxDat
      +                          aHandler();
  7665     06A8  3185  2575  3186   	fcall	_EUSART_RxDataHandler
  7666     06AB                     i1l458:
  7667     06AB  0008               	return
  7668     06AC                     __end_of_EUSART_DefaultErrorHandler:
  7669                           
  7670                           	psect	text61
  7671     0575                     __ptext61:	
  7672 ;; *************** function _EUSART_RxDataHandler *****************
  7673 ;; Defined at:
  7674 ;;		line 240 in file "D:\yiming\00work\FR743_B101L_RX01.X\mcc_generated_files\eusart.c"
  7675 ;; Parameters:    Size  Location     Type
  7676 ;;		None
  7677 ;; Auto vars:     Size  Location     Type
  7678 ;;		None
  7679 ;; Return value:  Size  Location     Type
  7680 ;;                  1    wreg      void 
  7681 ;; Registers used:
  7682 ;;		wreg, fsr1l, fsr1h, status,2, status,0
  7683 ;; Tracked objects:
  7684 ;;		On entry : 0/0
  7685 ;;		On exit  : 0/0
  7686 ;;		Unchanged: 0/0
  7687 ;; Data sizes:     COMMON   BANK0   BANK1   BANK2   BANK3   BANK4   BANK5   BANK6
  7688 ;;      Params:         0       0       0       0       0       0       0       0
  7689 ;;      Locals:         0       0       0       0       0       0       0       0
  7690 ;;      Temps:          1       0       0       0       0       0       0       0
  7691 ;;      Totals:         1       0       0       0       0       0       0       0
  7692 ;;Total ram usage:        1 bytes
  7693 ;; Hardware stack levels used: 1
  7694 ;; This function calls:
  7695 ;;		Nothing
  7696 ;; This function is called by:
  7697 ;;		_EUSART_Receive_ISR
  7698 ;;		_EUSART_DefaultErrorHandler
  7699 ;; This function uses a non-reentrant model
  7700 ;;
  7701                           
  7702     0575                     _EUSART_RxDataHandler:	
  7703                           ;psect for function _EUSART_RxDataHandler
  7704                           
  7705     0575                     i1l2090:	
  7706                           ;incstack = 0
  7707                           ; Regs used in _EUSART_RxDataHandler: [wreg+fsr1l+fsr1h+status,2+status,0]
  7708                           
  7709                           
  7710                           ;D:\yiming\00work\FR743_B101L_RX01.X\mcc_generated_files\eusart.c: 242:     eusartRxBuff
      +                          er[eusartRxHead++] = RCREG;
  7711     0575  087C               	movf	_eusartRxHead,w
  7712     0576  3EA0               	addlw	(low (_eusartRxBuffer| 0))& (0+255)
  7713     0577  0086               	movwf	6
  7714     0578  0187               	clrf	7
  7715     0579  0023               	movlb	3	; select bank3
  7716     057A  0819               	movf	25,w	;volatile
  7717     057B  0081               	movwf	1
  7718     057C                     i1l2092:
  7719     057C  3001               	movlw	1
  7720     057D  00F0               	movwf	??_EUSART_RxDataHandler
  7721     057E  0870               	movf	??_EUSART_RxDataHandler,w
  7722     057F  07FC               	addwf	_eusartRxHead,f	;volatile
  7723     0580                     i1l2094:
  7724                           
  7725                           ;D:\yiming\00work\FR743_B101L_RX01.X\mcc_generated_files\eusart.c: 243:     if(sizeof(eu
      +                          sartRxBuffer) <= eusartRxHead)
  7726     0580  3008               	movlw	8
  7727     0581  027C               	subwf	_eusartRxHead,w	;volatile
  7728     0582  1C03               	skipc
  7729     0583  2D85               	goto	u142_21
  7730     0584  2D86               	goto	u142_20
  7731     0585                     u142_21:
  7732     0585  2D87               	goto	i1l2098
  7733     0586                     u142_20:
  7734     0586                     i1l2096:
  7735                           
  7736                           ;D:\yiming\00work\FR743_B101L_RX01.X\mcc_generated_files\eusart.c: 244:     {;D:\yiming\
      +                          00work\FR743_B101L_RX01.X\mcc_generated_files\eusart.c: 245:         eusartRxHead = 0;
  7737     0586  01FC               	clrf	_eusartRxHead	;volatile
  7738     0587                     i1l2098:
  7739                           
  7740                           ;D:\yiming\00work\FR743_B101L_RX01.X\mcc_generated_files\eusart.c: 247:     eusartRxCoun
      +                          t++;
  7741     0587  3001               	movlw	1
  7742     0588  00F0               	movwf	??_EUSART_RxDataHandler
  7743     0589  0870               	movf	??_EUSART_RxDataHandler,w
  7744     058A  0020               	movlb	0	; select bank0
  7745     058B  07C2               	addwf	_eusartRxCount,f	;volatile
  7746     058C                     i1l449:
  7747     058C  0008               	return
  7748     058D                     __end_of_EUSART_RxDataHandler:
  7749     007E                     btemp	set	126	;btemp
  7750     007E                     int$flags	set	126
  7751     007E                     wtemp0	set	126
  7752                           
  7753                           	psect	idloc
  7754                           
  7755                           ;Config register IDLOC0 @ 0x8000
  7756                           ;	unspecified, using default values
  7757     8000                     	org	32768
  7758     8000  3FFF               	dw	16383
  7759                           
  7760                           ;Config register IDLOC1 @ 0x8001
  7761                           ;	unspecified, using default values
  7762     8001                     	org	32769
  7763     8001  3FFF               	dw	16383
  7764                           
  7765                           ;Config register IDLOC2 @ 0x8002
  7766                           ;	unspecified, using default values
  7767     8002                     	org	32770
  7768     8002  3FFF               	dw	16383
  7769                           
  7770                           ;Config register IDLOC3 @ 0x8003
  7771                           ;	unspecified, using default values
  7772     8003                     	org	32771
  7773     8003  3FFF               	dw	16383
  7774                           
  7775                           	psect	config
  7776                           
  7777                           ;Config register CONFIG1 @ 0x8007
  7778                           ;	Oscillator Selection
  7779                           ;	FOSC = INTOSC, INTOSC oscillator: I/O function on CLKIN pin
  7780                           ;	Watchdog Timer Enable
  7781                           ;	WDTE = OFF, WDT disabled
  7782                           ;	Power-up Timer Enable
  7783                           ;	PWRTE = OFF, PWRT disabled
  7784                           ;	MCLR Pin Function Select
  7785                           ;	MCLRE = ON, MCLR/VPP pin function is MCLR
  7786                           ;	Flash Program Memory Code Protection
  7787                           ;	CP = OFF, Program memory code protection is disabled
  7788                           ;	Data Memory Code Protection
  7789                           ;	CPD = OFF, Data memory code protection is disabled
  7790                           ;	Brown-out Reset Enable
  7791                           ;	BOREN = ON, Brown-out Reset enabled
  7792                           ;	Clock Out Enable
  7793                           ;	CLKOUTEN = OFF, CLKOUT function is disabled. I/O or oscillator function on the CLKOUT 
      +                          pin
  7794                           ;	Internal/External Switchover
  7795                           ;	IESO = ON, Internal/External Switchover mode is enabled
  7796                           ;	Fail-Safe Clock Monitor Enable
  7797                           ;	FCMEN = ON, Fail-Safe Clock Monitor is enabled
  7798     8007                     	org	32775
  7799     8007  3FE4               	dw	16356
  7800                           
  7801                           ;Config register CONFIG2 @ 0x8008
  7802                           ;	Flash Memory Self-Write Protection
  7803                           ;	WRT = OFF, Write protection off
  7804                           ;	Voltage Regulator Capacitor Enable
  7805                           ;	VCAPEN = OFF, All VCAP pin functionality is disabled
  7806                           ;	PLL Enable
  7807                           ;	PLLEN = ON, 4x PLL enabled
  7808                           ;	Stack Overflow/Underflow Reset Enable
  7809                           ;	STVREN = ON, Stack Overflow or Underflow will cause a Reset
  7810                           ;	Brown-out Reset Voltage Selection
  7811                           ;	BORV = LO, Brown-out Reset Voltage (Vbor), low trip point selected.
  7812                           ;	Low-Voltage Programming Enable
  7813                           ;	LVP = OFF, High-voltage on MCLR/VPP must be used for programming
  7814     8008                     	org	32776
  7815     8008  1FFF               	dw	8191

Data Sizes:
    Strings     0
    Constant    4
    Data        1
    BSS         78
    Persistent  32
    Stack       0

Auto Spaces:
    Space          Size  Autos    Used
    COMMON           14     11      13
    BANK0            80     12      73
    BANK1            80      0      16
    BANK2            80      0       0
    BANK3            80      0       0
    BANK4            80      0       0
    BANK5            80      0       0
    BANK6            16      0       0

Pointer List with Targets:

    EUSART_ErrorHandler	PTR FTN()void  size(2) Largest target is 1
		 -> EUSART_DefaultErrorHandler(), NULL(), 

    EUSART_FramingErrorHandler	PTR FTN()void  size(2) Largest target is 1
		 -> EUSART_DefaultFramingErrorHandler(), NULL(), 

    EUSART_OverrunErrorHandler	PTR FTN()void  size(2) Largest target is 1
		 -> EUSART_DefaultOverrunErrorHandler(), NULL(), 

    EUSART_RxDefaultInterruptHandler	PTR FTN()void  size(2) Largest target is 1
		 -> EUSART_Receive_ISR(), NULL(), 

    EUSART_SetErrorHandler@interruptHandler	PTR FTN()void  size(2) Largest target is 1
		 -> EUSART_DefaultErrorHandler(), 

    EUSART_SetFramingErrorHandler@interruptHandler	PTR FTN()void  size(2) Largest target is 1
		 -> EUSART_DefaultFramingErrorHandler(), 

    EUSART_SetOverrunErrorHandler@interruptHandler	PTR FTN()void  size(2) Largest target is 1
		 -> EUSART_DefaultOverrunErrorHandler(), 

    EUSART_SetRxInterruptHandler@interruptHandler	PTR FTN()void  size(2) Largest target is 1
		 -> EUSART_Receive_ISR(), 

    EUSART_SetTxInterruptHandler@interruptHandler	PTR FTN()void  size(2) Largest target is 1
		 -> EUSART_Transmit_ISR(), 

    EUSART_TxDefaultInterruptHandler	PTR FTN()void  size(2) Largest target is 1
		 -> EUSART_Transmit_ISR(), NULL(), 

    LIN_getChecksum@data	PTR unsigned char  size(1) Largest target is 13
		 -> LIN_packet(BANK0[13]), 

    LIN_getFromTable@rxCommand	PTR const struct . size(2) Largest target is 5
		 -> scheduleTable(CODE[4]), NULL(NULL[0]), 

    LIN_getFromTable@rxCommand$data	PTR unsigned char  size(1) Largest target is 8
		 -> SW_STATE_Data(BANK1[8]), 

    LIN_getPacket@data	PTR unsigned char  size(1) Largest target is 8
		 -> processLIN@tempRxData(BANK0[8]), 

    LIN_init@command	const PTR const struct . size(2) Largest target is 5
		 -> scheduleTable(CODE[4]), 

    LIN_init@processData	PTR FTN()void  size(2) Largest target is 1
		 -> processLIN(), 

    LIN_processData	PTR FTN()void  size(2) Largest target is 1
		 -> processLIN(), NULL(), 

    LIN_queuePacket@tempSchedule	PTR const struct . size(2) Largest target is 5
		 -> scheduleTable(CODE[4]), NULL(NULL[0]), 

    LIN_queuePacket@tempSchedule$data	PTR unsigned char  size(1) Largest target is 8
		 -> SW_STATE_Data(BANK1[8]), 

    LIN_rxCommand	PTR const struct . size(2) Largest target is 5
		 -> scheduleTable(CODE[4]), NULL(NULL[0]), 

    LIN_rxCommand$data	PTR unsigned char  size(1) Largest target is 8
		 -> SW_STATE_Data(BANK1[8]), 

    LIN_sendPacket@data	PTR unsigned char  size(1) Largest target is 13
		 -> LIN_packet(BANK0[13]), 

    memcpy@d	PTR unsigned char  size(1) Largest target is 13
		 -> LIN_packet(BANK0[13]), processLIN@tempRxData(BANK0[8]), 

    memcpy@d1	PTR void  size(1) Largest target is 13
		 -> LIN_packet(BANK0[13]), processLIN@tempRxData(BANK0[8]), 

    memcpy@s	PTR const unsigned char  size(1) Largest target is 13
		 -> LIN_packet(BANK0[13]), LIN_packet$data(BANK0[8]), SW_STATE_Data(BANK1[8]), 

    memcpy@s1	PTR const void  size(1) Largest target is 13
		 -> LIN_packet(BANK0[13]), LIN_packet$data(BANK0[8]), SW_STATE_Data(BANK1[8]), 

    memset@dest	PTR void  size(1) Largest target is 13
		 -> LIN_packet(BANK0[13]), 

    memset@p	PTR unsigned char  size(1) Largest target is 13
		 -> LIN_packet(BANK0[13]), 

    S26$data	PTR unsigned char  size(1) Largest target is 8
		 -> SW_STATE_Data(BANK1[8]), 

    scheduleTable$data	PTR unsigned char  size(1) Largest target is 8
		 -> SW_STATE_Data(BANK1[8]), 

    sp__memcpy	PTR void  size(1) Largest target is 13
		 -> LIN_packet(BANK0[13]), processLIN@tempRxData(BANK0[8]), 

    sp__memset	PTR void  size(1) Largest target is 13
		 -> LIN_packet(BANK0[13]), 

    TMR0_InterruptHandler	PTR FTN()void  size(2) Largest target is 1
		 -> LIN_timerHandler(), TMR0_DefaultInterruptHandler(), NULL(), 

    TMR0_SetInterruptHandler@InterruptHandler	PTR FTN()void  size(2) Largest target is 1
		 -> LIN_timerHandler(), TMR0_DefaultInterruptHandler(), 


Critical Paths under _main in COMMON

    _TMR0_Initialize->_TMR0_SetInterruptHandler
    _LIN_Slave_Initialize->_LIN_init
    _LIN_setTimerHandler->_TMR0_SetInterruptHandler
    _EUSART_Initialize->_EUSART_SetErrorHandler
    _EUSART_Initialize->_EUSART_SetFramingErrorHandler
    _EUSART_Initialize->_EUSART_SetOverrunErrorHandler
    _EUSART_Initialize->_EUSART_SetRxInterruptHandler
    _EUSART_Initialize->_EUSART_SetTxInterruptHandler
    _processLIN->_LIN_getPacket
    _LIN_getPacket->_memcpy
    _LIN_startTimer->_TMR0_WriteTimer
    _LIN_queuePacket->_LIN_sendPacket
    _LIN_sendPacket->_LIN_getChecksum
    _LIN_checkPID->_LIN_getFromTable
    _LIN_breakCheck->_EUSART_Read

Critical Paths under _INTERRUPT_InterruptManager in COMMON

    _INTERRUPT_InterruptManager->_EUSART_Transmit_ISR
    _TMR0_ISR->_LIN_timerHandler
    _EUSART_Receive_ISR->_EUSART_RxDataHandler
    _EUSART_DefaultErrorHandler->_EUSART_RxDataHandler

Critical Paths under _main in BANK0

    _main->_LIN_handler
    _LIN_handler->_LIN_queuePacket
    _LIN_handler->_processLIN
    _LIN_queuePacket->_LIN_sendPacket

Critical Paths under _INTERRUPT_InterruptManager in BANK0

    None.

Critical Paths under _main in BANK1

    None.

Critical Paths under _INTERRUPT_InterruptManager in BANK1

    None.

Critical Paths under _main in BANK2

    None.

Critical Paths under _INTERRUPT_InterruptManager in BANK2

    None.

Critical Paths under _main in BANK3

    None.

Critical Paths under _INTERRUPT_InterruptManager in BANK3

    None.

Critical Paths under _main in BANK4

    None.

Critical Paths under _INTERRUPT_InterruptManager in BANK4

    None.

Critical Paths under _main in BANK5

    None.

Critical Paths under _INTERRUPT_InterruptManager in BANK5

    None.

Critical Paths under _main in BANK6

    None.

Critical Paths under _INTERRUPT_InterruptManager in BANK6

    None.

Call Graph Tables:

 ---------------------------------------------------------------------------------
 (Depth) Function   	        Calls       Base Space   Used Autos Params    Refs
 ---------------------------------------------------------------------------------
 (0) _main                                                 0     0      0    7363
                    _AutoBaud_Detect
                        _LIN_handler
                  _SYSTEM_Initialize
 ---------------------------------------------------------------------------------
 (1) _SYSTEM_Initialize                                    0     0      0    1056
                  _EUSART_Initialize
               _LIN_Slave_Initialize
              _OSCILLATOR_Initialize
             _PIN_MANAGER_Initialize
                    _TMR0_Initialize
                     _WDT_Initialize
 ---------------------------------------------------------------------------------
 (2) _WDT_Initialize                                       0     0      0       0
 ---------------------------------------------------------------------------------
 (2) _TMR0_Initialize                                      0     0      0     174
           _TMR0_SetInterruptHandler
 ---------------------------------------------------------------------------------
 (2) _PIN_MANAGER_Initialize                               0     0      0       0
 ---------------------------------------------------------------------------------
 (2) _OSCILLATOR_Initialize                                0     0      0       0
 ---------------------------------------------------------------------------------
 (2) _LIN_Slave_Initialize                                 0     0      0     392
                           _LIN_init
 ---------------------------------------------------------------------------------
 (3) _LIN_init                                             5     1      4     392
                                              3 COMMON     5     1      4
                       _LIN_enableRx
                _LIN_setTimerHandler
                      _LIN_stopTimer
 ---------------------------------------------------------------------------------
 (4) _LIN_setTimerHandler                                  0     0      0     174
           _TMR0_SetInterruptHandler
 ---------------------------------------------------------------------------------
 (3) _TMR0_SetInterruptHandler                             2     0      2     174
                                              1 COMMON     2     0      2
 ---------------------------------------------------------------------------------
 (2) _EUSART_Initialize                                    0     0      0     490
             _EUSART_SetErrorHandler
      _EUSART_SetFramingErrorHandler
      _EUSART_SetOverrunErrorHandler
       _EUSART_SetRxInterruptHandler
       _EUSART_SetTxInterruptHandler
 ---------------------------------------------------------------------------------
 (3) _EUSART_SetTxInterruptHandler                         2     0      2      98
                                              1 COMMON     2     0      2
 ---------------------------------------------------------------------------------
 (3) _EUSART_SetRxInterruptHandler                         2     0      2      98
                                              1 COMMON     2     0      2
 ---------------------------------------------------------------------------------
 (3) _EUSART_SetOverrunErrorHandler                        2     0      2      98
                                              1 COMMON     2     0      2
 ---------------------------------------------------------------------------------
 (3) _EUSART_SetFramingErrorHandler                        2     0      2      98
                                              1 COMMON     2     0      2
 ---------------------------------------------------------------------------------
 (3) _EUSART_SetErrorHandler                               2     0      2      98
                                              1 COMMON     2     0      2
 ---------------------------------------------------------------------------------
 (1) _LIN_handler                                          3     3      0    6307
                                              9 BANK0      3     3      0
                                NULL *
                        _EUSART_Read
                 _EUSART_is_rx_ready
                     _LIN_breakCheck
                       _LIN_checkPID
                      _LIN_disableRx
                       _LIN_enableRx
                    _LIN_getChecksum
                   _LIN_getFromTable
                    _LIN_queuePacket
                     _LIN_startTimer
                      _LIN_stopTimer
                             _memset
                         _processLIN *
 ---------------------------------------------------------------------------------
 (2) _processLIN                                           9     9      0    1449
                                              0 BANK0      9     9      0
                            _DRL_OFF
                             _DRL_ON
                         _HIBEAM_OFF
                          _HIBEAM_ON
                           _LEFT_OFF
                            _LEFT_ON
                      _LIN_getPacket
                         _LOBEAM_OFF
                          _LOBEAM_ON
                            _POS_OFF
                             _POS_ON
                          _RIGHT_OFF
                           _RIGHT_ON
 ---------------------------------------------------------------------------------
 (3) _RIGHT_ON                                             0     0      0       0
 ---------------------------------------------------------------------------------
 (3) _RIGHT_OFF                                            0     0      0       0
 ---------------------------------------------------------------------------------
 (3) _POS_ON                                               0     0      0       0
 ---------------------------------------------------------------------------------
 (3) _POS_OFF                                              0     0      0       0
 ---------------------------------------------------------------------------------
 (3) _LOBEAM_ON                                            0     0      0       0
 ---------------------------------------------------------------------------------
 (3) _LOBEAM_OFF                                           0     0      0       0
 ---------------------------------------------------------------------------------
 (3) _LIN_getPacket                                        2     2      0    1057
                                              9 COMMON     2     2      0
                             _memcpy
                             _memset
 ---------------------------------------------------------------------------------
 (4) _memset                                               7     3      4     466
                                              1 COMMON     7     3      4
 ---------------------------------------------------------------------------------
 (3) _LEFT_ON                                              0     0      0       0
 ---------------------------------------------------------------------------------
 (3) _LEFT_OFF                                             0     0      0       0
 ---------------------------------------------------------------------------------
 (3) _HIBEAM_ON                                            0     0      0       0
 ---------------------------------------------------------------------------------
 (3) _HIBEAM_OFF                                           0     0      0       0
 ---------------------------------------------------------------------------------
 (3) _DRL_ON                                               0     0      0       0
 ---------------------------------------------------------------------------------
 (3) _DRL_OFF                                              0     0      0       0
 ---------------------------------------------------------------------------------
 (4) _LIN_stopTimer                                        0     0      0       0
 ---------------------------------------------------------------------------------
 (2) _LIN_startTimer                                       1     1      0      44
                                              2 COMMON     1     1      0
                    _TMR0_WriteTimer
 ---------------------------------------------------------------------------------
 (3) _TMR0_WriteTimer                                      1     1      0      22
                                              1 COMMON     1     1      0
 ---------------------------------------------------------------------------------
 (2) _LIN_queuePacket                                      6     6      0    2439
                                              3 BANK0      6     6      0
                    _LIN_getChecksum
                     _LIN_sendPacket
                             _memcpy
 ---------------------------------------------------------------------------------
 (4) _memcpy                                               8     5      3     513
                                              1 COMMON     8     5      3
 ---------------------------------------------------------------------------------
 (3) _LIN_sendPacket                                       5     3      2    1086
                                              9 COMMON     2     0      2
                                              0 BANK0      3     3      0
                       _EUSART_Write
                    _LIN_getChecksum
 ---------------------------------------------------------------------------------
 (4) _LIN_getChecksum                                      8     6      2     639
                                              1 COMMON     8     6      2
 ---------------------------------------------------------------------------------
 (4) _EUSART_Write                                         2     2      0      44
                                              1 COMMON     2     2      0
 ---------------------------------------------------------------------------------
 (4) _LIN_enableRx                                         0     0      0       0
 ---------------------------------------------------------------------------------
 (2) _LIN_disableRx                                        0     0      0       0
 ---------------------------------------------------------------------------------
 (2) _LIN_checkPID                                         1     1      0     813
                                              8 COMMON     1     1      0
                     _LIN_calcParity
                   _LIN_getFromTable
 ---------------------------------------------------------------------------------
 (2) _LIN_getFromTable                                     7     6      1     409
                                              1 COMMON     7     6      1
 ---------------------------------------------------------------------------------
 (3) _LIN_calcParity                                       3     3      0     338
                                              1 COMMON     3     3      0
 ---------------------------------------------------------------------------------
 (2) _LIN_breakCheck                                       0     0      0      24
                        _EUSART_Read
             _EUSART_get_last_status
 ---------------------------------------------------------------------------------
 (3) _EUSART_get_last_status                               0     0      0       0
 ---------------------------------------------------------------------------------
 (3) _EUSART_Read                                          2     2      0      24
                                              1 COMMON     2     2      0
 ---------------------------------------------------------------------------------
 (2) _EUSART_is_rx_ready                                   0     0      0       0
 ---------------------------------------------------------------------------------
 (8) NULL(Fake)                                            0     0      0       0
 ---------------------------------------------------------------------------------
 (1) _AutoBaud_Detect                                      0     0      0       0
                 _AutoBaud_Detect_ON
 ---------------------------------------------------------------------------------
 (2) _AutoBaud_Detect_ON                                   0     0      0       0
 ---------------------------------------------------------------------------------
 Estimated maximum stack depth 8
 ---------------------------------------------------------------------------------
 (Depth) Function   	        Calls       Base Space   Used Autos Params    Refs
 ---------------------------------------------------------------------------------
 (6) _INTERRUPT_InterruptManager                           0     0      0       0
                                NULL *
                 _EUSART_Receive_ISR *
                _EUSART_Transmit_ISR *
                           _TMR0_ISR
 ---------------------------------------------------------------------------------
 (7) _TMR0_ISR                                             0     0      0       0
                                NULL *
                   _LIN_timerHandler *
       _TMR0_DefaultInterruptHandler *
 ---------------------------------------------------------------------------------
 (8) _TMR0_DefaultInterruptHandler                         0     0      0       0
 ---------------------------------------------------------------------------------
 (8) _LIN_timerHandler                                     1     1      0       0
                                              0 COMMON     1     1      0
                    i1_LIN_stopTimer
 ---------------------------------------------------------------------------------
 (9) i1_LIN_stopTimer                                      0     0      0       0
 ---------------------------------------------------------------------------------
 (7) _EUSART_Transmit_ISR                                  1     1      0       0
                                              0 COMMON     1     1      0
 ---------------------------------------------------------------------------------
 (7) _EUSART_Receive_ISR                                   0     0      0       0
                                NULL *
         _EUSART_DefaultErrorHandler *
  _EUSART_DefaultFramingErrorHandler *
  _EUSART_DefaultOverrunErrorHandler *
               _EUSART_RxDataHandler
 ---------------------------------------------------------------------------------
 (8) _EUSART_DefaultOverrunErrorHandler                    0     0      0       0
 ---------------------------------------------------------------------------------
 (8) _EUSART_DefaultFramingErrorHandler                    0     0      0       0
 ---------------------------------------------------------------------------------
 (8) _EUSART_DefaultErrorHandler                           0     0      0       0
               _EUSART_RxDataHandler
 ---------------------------------------------------------------------------------
 (8) _EUSART_RxDataHandler                                 1     1      0       0
                                              0 COMMON     1     1      0
 ---------------------------------------------------------------------------------
 (8) NULL(Fake)                                            0     0      0       0
 ---------------------------------------------------------------------------------
 Estimated maximum stack depth 9
 ---------------------------------------------------------------------------------

 Call Graph Graphs:

 _main (ROOT)
   _AutoBaud_Detect
     _AutoBaud_Detect_ON
   _LIN_handler
     NULL(Fake) *
     _EUSART_Read *
     _EUSART_is_rx_ready *
     _LIN_breakCheck *
       _EUSART_Read
       _EUSART_get_last_status
     _LIN_checkPID *
       _LIN_calcParity
       _LIN_getFromTable
     _LIN_disableRx *
     _LIN_enableRx *
     _LIN_getChecksum *
     _LIN_getFromTable *
     _LIN_queuePacket *
       _LIN_getChecksum
       _LIN_sendPacket
         _EUSART_Write
         _LIN_getChecksum
       _memcpy
     _LIN_startTimer *
       _TMR0_WriteTimer
     _LIN_stopTimer *
     _memset *
     _processLIN *
       _DRL_OFF
       _DRL_ON
       _HIBEAM_OFF
       _HIBEAM_ON
       _LEFT_OFF
       _LEFT_ON
       _LIN_getPacket
         _memcpy
         _memset
       _LOBEAM_OFF
       _LOBEAM_ON
       _POS_OFF
       _POS_ON
       _RIGHT_OFF
       _RIGHT_ON
   _SYSTEM_Initialize
     _EUSART_Initialize
       _EUSART_SetErrorHandler
       _EUSART_SetFramingErrorHandler
       _EUSART_SetOverrunErrorHandler
       _EUSART_SetRxInterruptHandler
       _EUSART_SetTxInterruptHandler
     _LIN_Slave_Initialize
       _LIN_init
         _LIN_enableRx
         _LIN_setTimerHandler
           _TMR0_SetInterruptHandler
         _LIN_stopTimer
     _OSCILLATOR_Initialize
     _PIN_MANAGER_Initialize
     _TMR0_Initialize
       _TMR0_SetInterruptHandler
     _WDT_Initialize

 _INTERRUPT_InterruptManager (ROOT)
   NULL(Fake) *
   _EUSART_Receive_ISR *
     NULL(Fake) *
     _EUSART_DefaultErrorHandler *
       _EUSART_RxDataHandler
     _EUSART_DefaultFramingErrorHandler *
     _EUSART_DefaultOverrunErrorHandler *
     _EUSART_RxDataHandler *
   _EUSART_Transmit_ISR *
   _TMR0_ISR *
     NULL(Fake) *
     _LIN_timerHandler *
       i1_LIN_stopTimer
     _TMR0_DefaultInterruptHandler *

 Address spaces:
Name               Size   Autos  Total    Cost      Usage
BIGRAM             1F0      0       0       0        0.0%
EEDATA             100      0       0       0        0.0%
NULL                 0      0       0       0        0.0%
CODE                 0      0       0       0        0.0%
BITCOMMON            E      0       0       1        0.0%
BITSFR0              0      0       0       1        0.0%
SFR0                 0      0       0       1        0.0%
COMMON               E      B       D       2       92.9%
BITSFR1              0      0       0       2        0.0%
SFR1                 0      0       0       2        0.0%
BITSFR2              0      0       0       3        0.0%
SFR2                 0      0       0       3        0.0%
STACK                0      0       0       3        0.0%
BITSFR3              0      0       0       4        0.0%
SFR3                 0      0       0       4        0.0%
ABS                  0      0      66       4        0.0%
BITBANK0            50      0       0       5        0.0%
BITSFR4              0      0       0       5        0.0%
SFR4                 0      0       0       5        0.0%
BANK0               50      C      49       6       91.2%
BITSFR5              0      0       0       6        0.0%
SFR5                 0      0       0       6        0.0%
BITBANK1            50      0       0       7        0.0%
BITSFR6              0      0       0       7        0.0%
SFR6                 0      0       0       7        0.0%
BANK1               50      0      10       8       20.0%
BITSFR7              0      0       0       8        0.0%
SFR7                 0      0       0       8        0.0%
BITBANK2            50      0       0       9        0.0%
BITSFR8              0      0       0       9        0.0%
SFR8                 0      0       0       9        0.0%
BANK2               50      0       0      10        0.0%
BITSFR9              0      0       0      10        0.0%
SFR9                 0      0       0      10        0.0%
BITBANK3            50      0       0      11        0.0%
BITSFR10             0      0       0      11        0.0%
SFR10                0      0       0      11        0.0%
BANK3               50      0       0      12        0.0%
BITSFR11             0      0       0      12        0.0%
SFR11                0      0       0      12        0.0%
BITBANK4            50      0       0      13        0.0%
BITSFR12             0      0       0      13        0.0%
SFR12                0      0       0      13        0.0%
BANK4               50      0       0      14        0.0%
BITSFR13             0      0       0      14        0.0%
SFR13                0      0       0      14        0.0%
BITBANK5            50      0       0      15        0.0%
BITSFR14             0      0       0      15        0.0%
SFR14                0      0       0      15        0.0%
BANK5               50      0       0      16        0.0%
BITSFR15             0      0       0      16        0.0%
SFR15                0      0       0      16        0.0%
BITBANK6            10      0       0      17        0.0%
BITSFR16             0      0       0      17        0.0%
SFR16                0      0       0      17        0.0%
BANK6               10      0       0      18        0.0%
BITSFR17             0      0       0      18        0.0%
SFR17                0      0       0      18        0.0%
BITSFR18             0      0       0      19        0.0%
SFR18                0      0       0      19        0.0%
DATA                 0      0      66      19        0.0%
BITSFR19             0      0       0      20        0.0%
SFR19                0      0       0      20        0.0%
BITSFR20             0      0       0      21        0.0%
SFR20                0      0       0      21        0.0%
BITSFR21             0      0       0      22        0.0%
SFR21                0      0       0      22        0.0%
BITSFR22             0      0       0      23        0.0%
SFR22                0      0       0      23        0.0%
BITSFR23             0      0       0      24        0.0%
SFR23                0      0       0      24        0.0%
BITSFR24             0      0       0      25        0.0%
SFR24                0      0       0      25        0.0%
BITSFR25             0      0       0      26        0.0%
SFR25                0      0       0      26        0.0%
BITSFR26             0      0       0      27        0.0%
SFR26                0      0       0      27        0.0%
BITSFR27             0      0       0      28        0.0%
SFR27                0      0       0      28        0.0%
BITSFR28             0      0       0      29        0.0%
SFR28                0      0       0      29        0.0%
BITSFR29             0      0       0      30        0.0%
SFR29                0      0       0      30        0.0%
BITSFR30             0      0       0      31        0.0%
SFR30                0      0       0      31        0.0%
BITSFR31             0      0       0      32        0.0%
SFR31                0      0       0      32        0.0%


Microchip Technology PIC Macro Assembler V2.46 build 20240104201356 
Symbol Table                                                                                   Tue Oct 21 13:34:11 2025

                       __end_of_LIN_breakCheck 05DD                  ?_EUSART_SetRxInterruptHandler 0071  
                        __end_of_LIN_getPacket 0527                          ??_LIN_setTimerHandler 0073  
                        __end_of_LIN_disableRx 0692                                    ?_LOBEAM_OFF 0070  
                                           l20 05E1                                             l22 05EB  
                                           l15 0696                                             l26 05EF  
                                           l18 05DD                                             l19 05E6  
                                           l51 06B4                                             l61 06CC  
                                           l54 06B5                                             l71 06BA  
                                           l64 06CD                                             l56 06B7  
                                           l81 06C6                                             l49 06B2  
                                           l66 06CF                                             l74 06BB  
                                           l59 06CA                                             l91 06C0  
                                           l84 06C7                                             l76 06BD  
                                           l69 06B8                                             l86 06C9  
                                           l94 06C1                                             l79 06C4  
                                           l96 06C3                                             l89 06BE  
                                           l99 06AC                                _timer0ReloadVal 0040  
                              ?_LIN_calcParity 0070                                            l101 06AE  
                                          l104 06AF                                            l106 06B1  
                                          l115 0629                                            l141 0206  
                                          l222 05A2                                            l127 01E5  
                                          l305 044D                                            l137 01EB  
                                          l410 064B                                            l322 068C  
                                          l306 0450                                            l138 01F1  
                                          l155 024D                                            l139 01F7  
                                          l404 03E4                                            l316 0653  
                                          l325 0691                                            l229 03A6  
                                          l309 0636                                            l423 049E  
                                          l319 0682                                            l416 06D2  
                                          l432 0478                                            l329 05DC  
                                          l274 04E8                                            l531 05C9  
                                          l428 0458                                            l268 017E  
                                          l540 06A3                                            l285 033D  
                                          l429 0461                                            l277 0526  
                                          l461 0677                                            l470 0665  
                                          l534 063D                                            l295 0574  
                                          l607 065F                                            l464 0671  
                                          l473 066B                                            l537 0642  
                                          l299 02D3                                            l467 067D  
                                          l571 0540                                            l591 05B6  
                                          l597 0687                                            u710 0642  
                                          u711 0641                                            u720 05E5  
                                          u721 05E4                                            u730 05EB  
                                          u731 05EA                                            u740 05EF  
                                          u741 05EE                         ??_EUSART_RxDataHandler 0070  
               ?_EUSART_SetFramingErrorHandler 0071                       __end_of_LIN_getFromTable 033E  
                                          wreg 0009                 __end_of_EUSART_get_last_status 06D3  
                        __end_of_scheduleTable 06A0                                   ?_EUSART_Read 0070  
                              __end_of_DRL_OFF 06D0                                __end_of_LEFT_ON 06C1  
                                         l2000 047F                                           l2010 0498  
                                         l2002 048B                                           l2012 049B  
                                         l2004 048F                                           l2020 02DA  
                                         l2014 049D                                           l2006 0495  
                                         l2030 02FD                                           l2022 02DE  
                                         l1222 04C3                                           l2110 0189  
                                         l2008 0496                                           l2024 02E0  
                                         l2200 0241                                           l2120 019F  
                                         l2112 018F                                           l2104 061D  
                                         l2042 0310                                           l2034 02FF  
                                         l2018 02D5                                           l2202 0246  
                                         l2130 01B7                                           l2122 01A5  
                                         l2114 0195                                           l2106 017F  
                                         l1219 04B7                                           l2052 032A  
                                         l2028 02EB                                           l2036 0303  
                                         l1228 055A                                           l2204 024A  
                                         l2140 01C9                                           l2132 01BD  
                                         l2124 01AB                                           l2116 0197  
                                         l2108 0182                                           l2300 03DB  
                                         l2230 0643                                           l2070 02D2  
                                         l2046 031D                                           l2038 030A  
                                         l2150 01E0                                           l2142 01CF  
                                         l2134 01C3                                           l2126 01AF  
                                         l2118 0199                                           l2302 03DC  
                                         l2240 0633                                           l2160 01EF  
                                         l2136 01C7                                           l2128 01B1  
                                         l2080 0666                                           l2304 03DD  
                                         l2320 05AE                                           l2312 05A3  
                                         l1426 0692                                           l2250 05DB  
                                         l2242 05CA                                           l2066 024F  
                                         l2074 0684                                           l2234 062B  
                                         l2162 01F5                                           l2146 01D4  
                                         l2170 0201                                           l2082 0660  
                                         l2306 03E2                                           l2322 05AF  
                                         l2314 05A8                                           l2076 06D0  
                                         l2244 05D2                                           l2068 02C9  
                                         l2260 0569                                           l2236 062E  
                                         l2180 021A                                           l2172 020A  
                                         l2164 01FB                                           l2148 01DA  
                                         l2156 01E5                                           l2084 0672  
                                         l2316 05AB                                           l2324 05B7  
                                         l2246 05D9                                           l2262 0573  
                                         l2254 055C                                           l2270 068D  
                                         l2238 0632                                           l2190 022E  
                                         l2182 021D                                           l2174 020E  
                                         l2166 01FE                                           l2158 01E9  
                                         l2086 066C                                           l2318 05AD  
                                         l2256 0567                                           l2192 0232  
                                         l2184 0222                                           l2176 0211  
                                         l2600 006E                                           l2088 0678  
                                         l2280 03B0                                           l1640 052F  
                                         l2194 0235                                           l2186 0226  
                                         l2178 0216                                           l2610 0086  
                                         l2602 0071                                           l2290 03C2  
                                         l2282 03B9                                           l1650 053B  
                                         l1642 0531                                           l2196 023A  
                                         l2188 0229                                           l2620 00A0  
                                         l2612 008A                                           l2604 0073  
                                         l2292 03C4                                           l2284 03BC  
                                         l2276 03A7                                           l1660 063B  
                                         l1652 053C                                           l1644 0533  
                                         l1636 0527                                           l2700 0617  
                                         l1910 0688                                           l2198 023E  
                                         l2622 00A4                                           l2614 008D  
                                         l2606 0076                                           l2294 03CB  
                                         l2286 03BE                                           l2278 03A9  
                                         l1654 053E                                           l1646 0537  
                                         l1638 052C                                           l1662 06A0  
                                         l2560 04D2                                           l1920 04AE  
                                         l2640 00D8                                           l2632 00BF  
                                         l2624 00A8                                           l2616 0090  
                                         l2608 007E                                           l2296 03D2  
                                         l2288 03C0                                           l1904 065A  
                                         l1912 064C                                           l1656 0637  
                                         l1648 0539                                           l1930 0436  
                                         l1922 041F                                           l2562 04D7  
                                         l1914 04A0                                           l2570 0348  
                                         l1906 067E                                           l2650 0106  
                                         l2642 00DB                                           l2634 00C8  
                                         l2626 00B0                                           l2618 0098  
                                         l2298 03D9                                           l1658 063A  
                                         l1676 05DD                                           l1932 043F  
                                         l1924 0426                                           l2564 04DD  
                                         l2556 04C6                                           l1916 04A5  
                                         l2572 034A                                           l2580 035D  
                                         l1908 067F                                           l2660 0127  
                                         l2652 0108                                           l2644 00DF  
                                         l2636 00CD                                           l2628 00B5  
                                         l1950 0452                                           l1934 0443  
                                         l1926 0428                                           l2558 04C8  
                                         l1918 04AA                                           l2582 0363  
                                         l2566 0340                                           l1942 0542  
                                         l2670 0139                                           l2662 012A  
                                         l2654 010B                                           l2646 00E7  
                                         l2638 00D5                                           l2590 0054  
                                         l1960 046D                                           l1952 0452  
                                         l1928 0432                                           l1936 0447  
                                         l2584 037D                                           l2576 0355  
                                         l2568 0344                                           l1944 0545  
                                         l2680 014F                                           l2672 013B  
                                         l2664 012E                                           l2656 0113  
                                         l2648 00F2                                           l2592 005A  
                                         l1962 0473                                           l1954 045D  
                                         l1938 044F                                           l2586 0393  
                                         l2578 0359                                           l1946 054A  
                                         l2762 015E                                           l2682 0152  
                                         l2674 013C                                           l2666 0131  
                                         l2594 005F                                           l1970 0599  
                                         l2764 0332                                           l1964 0474  
                                         l1956 0462                                           l2588 039E  
                                         l1948 054E                                           l1980 051A  
                                         l2676 0147                                           l2668 0136  
                                         l2596 0062                                           l1972 059C  
                                         l2692 060F                                           l1958 0469  
                                         l1966 0476                                           l1982 0525  
                                         l2678 014C                                           l2598 006A  
                                         l2686 0156                                           l1974 059F  
                                         l2694 0612                                           l1976 050C  
                                         l1968 058E                                           l2696 0615  
                                         l1978 0510                                           l2698 0616  
                                         l1996 0479                                           l1998 0479  
                                         u1110 047F                                           u1030 04C3  
                                         u1111 047E                                           u1031 04C2  
                                         u1120 0495                                           u1200 026A  
                                         u1040 043F                                           u1121 0494  
                                         u1201 0268                                           u1041 043E  
                                         u1210 0271                                           u1202 026B  
                                         u1130 02EA                                           u1050 044D  
                                         u2010 04DD                                           u1211 026F  
                                         u1131 02E9                                           u1051 044C  
                                         u2011 04DC                                           u1300 02A0  
                                         u1220 0278                                           u1212 0272  
                                         u1140 02FD                                           u2020 0354  
                                         u1060 055A                                           u2100 00A0  
                                         u1301 029E                                           u1221 0276  
                                         u1141 02FC                                           u2021 0353  
                                         u1061 0559                                           u2101 009F  
                                         u1150 0309                                           u1070 0458  
                                         u2030 0363                                           u2110 00B0  
                                         u1151 0308                                           u1071 0457  
                                         u2031 0362                                           u2111 00AF  
                                         u1400 02D1                                           u1320 02A6  
                                         u1240 027E                                           u1160 0256  
                                         u1080 045D                                           u2120 00BE  
                                         u2040 005A                                           u1401 02CF  
                                         u1321 02A4                                           u1241 027C  
                                         u1161 0254                                           u1081 045C  
                                         u2121 00BD                                           u2041 0059  
                                         u1330 02AD                                           u1322 02A7  
                                         u1314 02A1                                           u1250 0285  
                                         u1242 027F                                           u1234 0279  
                                         u1170 025D                                           u1162 0257  
                                         u1090 0473                                           u2130 00CD  
                                         u2050 005F                                           u1331 02AB  
                                         u1251 0283                                           u1171 025B  
                                         u1091 0472                                           u2131 00CC  
                                         u2051 005E                                           u1340 02B4  
                                         u1332 02AE                                           u1260 028C  
                                         u1252 0286                                           u1180 0264  
                                         u1172 025E                                           u1500 01C3  
                                         u2140 00E7                                           u2060 006A  
                                         u1341 02B2                                           u1261 028A  
                                         u1181 0262                                           u1501 01C2  
                                         u2141 00E6                                           u2061 0069  
                                         _LATA 010C                                           u1414 02D2  
                                         u1510 01CF                                           u1430 018F  
                                         u2150 0106                                           u2070 007E  
                                         _LATB 010D                                           u1511 01CE  
                                         u1431 018E                                           u2151 0105  
                                         u2071 007D                                           _LATC 010E  
                                         u1360 02BA                                           u1280 0292  
                                         u1600 0222                                           u1520 01DA  
                                         u1440 0195                                           u2160 0113  
                                         u2080 0086                                           u1361 02B8  
                                         u1281 0290                                           u1601 0221  
                                         u1521 01D9                                           u1441 0194  
                                         u2161 0112                                           u2081 0085  
                                         _LATE 0110                                           u1370 02C1  
                                         u1362 02BB                                           u1354 02B5  
                                         u1290 0299                                           u1282 0293  
                                         u1274 028D                                           u1194 0265  
                                         u1610 022E                                           u1530 01E0  
                                         u1450 019F                                           u2170 0126  
                                         u2090 0098                                           u1371 02BF  
                                         u1291 0297                                           u1611 022D  
                                         u1531 01DF                                           u1451 019E  
                                         u2171 0125                                           u2155 0102  
                                         u2091 0097                                           u1380 02C8  
                                         u1372 02C2                                           u1292 029A  
                                         u1700 0567                                           u1620 023A  
                                         u1540 01E9                                           u1460 01A5  
                                         u2180 014C                                           u1381 02C6  
                                         u1701 0566                                           u1621 0239  
                                         u1541 01E8                                           u1461 01A4  
                                         u2181 014B                                           u1710 0573  
                                         u1630 0246                                           u1550 01EF  
                                         u1470 01AB                                           u1711 0572  
                                         u1631 0245                                           u1551 01EE  
                                         u1471 01AA                                           u1560 01F5  
                                         u1480 01B7                                           u1561 01F4  
                                         u1481 01B6                                           u1394 02C9  
                                         u1570 01FB                                           u1490 01BD  
                                         u1571 01FA                                           u1491 01BC  
                                         u1660 064A                                           u1580 020A  
                                         u1661 0648                                           u1581 0209  
                                         u1670 064B                                           u1590 0216  
                                         u1591 0215                                           u1680 05D2  
                                         u1681 05D1                                           u1690 05D9  
                                         u1691 05D8                                           _PLLR 04D6  
                                         _TMR0 0015                                           _WPUB 020D  
                                         _WPUE 0210                                 _LIN_sendPacket 04C4  
                              __end_of_POS_OFF 06B8                                           _main 060F  
                                         fsr0h 0005                                           fsr1h 0007  
                                         indf0 0000                                           fsr0l 0004  
                                         indf1 0001                                           fsr1l 0006  
                                         btemp 007E                                           start 0038  
                                processLIN@cmd 005C                                ?_LIN_breakCheck 0070  
                             __end_of_LEFT_OFF 06C4                        __end_of_TMR0_Initialize 05B7  
               ??_TMR0_DefaultInterruptHandler 0070                                  ?_EUSART_Write 0070  
                __end_of_OSCILLATOR_Initialize 0643                              LIN_sendPacket@pid 0079  
                                        ?_main 0070                                LIN_init@command 0073  
                                        i1l313 060E                                          i1l501 0036  
                                        i1l502 0036                                          i1l319 069B  
                                        i1l610 06D4                                          i1l435 0508  
                                        i1l452 06D5                                          i1l604 05FF  
                                        i1l445 041D                                          i1l438 050A  
                                        i1l455 06A7                                          i1l449 058C  
                                        i1l458 06AB                                _TMR0_WriteTimer 0683  
                                        i1l494 0012                                          i1l497 0026  
                                        _RCREG 0199                                          _RCSTA 019D  
                             __end_of_RIGHT_ON 06AF                                          _TRISA 008C  
                                        _TRISB 008D                                          _TRISC 008E  
                                        _TRISE 0090                                          _TXREG 019A  
                             __end_of_LIN_init 05A3                          __end_of_LIN_stopTimer 0683  
                                        _TXSTA 019E                      ?_TMR0_SetInterruptHandler 0071  
                             __end_of_TMR0_ISR 0600                                          _fLock 004D  
                               _WDT_Initialize 06A0                         __end_of_LIN_sendPacket 04E9  
                                        pclath 000A                              ??_AutoBaud_Detect 0071  
                               _LIN_startTimer 062A                                          status 0003  
                                        wtemp0 007E                               ?_LIN_getChecksum 0071  
                            __end_of_HIBEAM_ON 06C7                    LIN_queuePacket@tempSchedule 0063  
                              __initialization 003A                                   ?_LIN_handler 0070  
                                 __end_of_main 061D                                 ??_EUSART_Write 0071  
                  ?_INTERRUPT_InterruptManager 0070                 ??_EUSART_SetRxInterruptHandler 0073  
                                       ??_main 007B                              __end_of_LOBEAM_ON 06BB  
                                    ??_DRL_OFF 0071                                      ??_LEFT_ON 0071  
                       __end_of_WDT_Initialize 06A4                             LIN_sendPacket@data 007A  
    __end_of_EUSART_DefaultFramingErrorHandler 06D6            ??_EUSART_DefaultFramingErrorHandler 0070  
           ?_EUSART_DefaultFramingErrorHandler 0070              _EUSART_DefaultFramingErrorHandler 06D5  
                                    ??_POS_OFF 0071                     _EUSART_OverrunErrorHandler 0034  
                       __end_of_LIN_startTimer 0637                                ?_LIN_sendPacket 0079  
                                       _APFCON 011D                                         _ANSELA 018C  
                                       _ANSELB 018D                     __end_of_EUSART_is_rx_ready 064C  
                                       _BORCON 0116                                         i1l2100 0697  
                                       i1l2102 0698                                         i1l2310 06A8  
                                       u200_20 0030                                         u200_21 002F  
                                       i1l2090 0575                                         i1l2092 057C  
                                       i1l2308 06A4                                         i1l2094 0580  
                                       i1l2430 04F0                                         i1l2096 0586  
                                       i1l2440 03E5                                         i1l2432 04F7  
                                       i1l2272 0600                                         i1l2098 0587  
                                       i1l2450 03FF                                         i1l2442 03EA  
                                       i1l2434 04FC                                         i1l2274 060B  
                                       i1l2452 0404                                         i1l2444 03EF  
                                       i1l2436 0502                                         i1l2428 04E9  
                                       i1l2460 05F0                                         i1l2454 040A  
                                       i1l2446 03F4                                         i1l2438 0503  
                                       i1l2462 05F1                                         i1l2456 0413  
                                       i1l2448 03FA                                         i1l2464 05F4  
                                       i1l2480 000A                                         i1l2458 041A  
                                       i1l2466 05FA                                         i1l2490 002B  
                                       i1l2482 000E                                         i1l2492 0030  
                                       i1l2484 0016                                         i1l2486 001B  
                                       i1l2478 0006                                         i1l2488 0020  
                                       _DRL_ON 06CA                                         u142_20 0586  
                                       u142_21 0585                                         u172_20 060B  
                                       u172_21 060A                                         u190_20 03EF  
                                       u190_21 03EE                                         u191_20 03FF  
                                       u191_21 03FE                                         u192_20 0413  
                                       u192_21 0412                                         u193_20 05FA  
                                       u193_21 05F9                                         u194_20 000A  
                                       u194_21 0009                                         u195_20 000E  
                                       u195_21 000D                                         u188_20 04F0  
                                       u196_20 0016                                         u188_21 04EF  
                                       u196_21 0015                                         u189_20 0502  
                                       u197_20 001B                                         u189_21 0501  
                                       u197_21 001A                                         u198_20 0020  
                                       u198_21 001F                                         u199_20 002B  
                                       u199_21 002A                                         _OSCCON 0099  
                            __end_of_RIGHT_OFF 06B2                                         _SPBRGH 019C  
                                       _SPBRGL 019B                                         _WDTCON 0097  
                                       _POS_ON 06B2                                _LIN_processData 003E  
                              _LIN_queuePacket 033E                        __end_of_TMR0_WriteTimer 0688  
                          _EUSART_Transmit_ISR 04E9                                         _memcpy 049F  
                             ?_TMR0_Initialize 0070                                         _memset 0541  
                                 ??_HIBEAM_OFF 0071                                ?_WDT_Initialize 0070  
                             _LIN_rxInProgress 004B       TMR0_SetInterruptHandler@InterruptHandler 0071  
                              ?_LIN_startTimer 0070                           ?_EUSART_Transmit_ISR 0070  
                            _SYSTEM_Initialize 05B7                        __end_of__initialization 0050  
                                    ?_LEFT_OFF 0070                             ?_SYSTEM_Initialize 0070  
                           __end_of_HIBEAM_OFF 06CA                                  ?_LIN_checkPID 0070  
         __end_of_EUSART_SetTxInterruptHandler 0666                   _EUSART_SetTxInterruptHandler 0660  
                                    ?_RIGHT_ON 0070                                      ?_LIN_init 0073  
                               __pcstackCOMMON 0070                                  ?_LIN_enableRx 0070  
                             ??_LIN_calcParity 0071                                LIN_sendPacket@i 005E  
                                 __pidataBANK0 06D3                            ??_SYSTEM_Initialize 0078  
                                    ?_TMR0_ISR 0070                                   ??_LOBEAM_OFF 0071  
                       LIN_handler@rxDataIndex 0046                                 _OPTION_REGbits 0095  
                         _eusartRxStatusBuffer 0020                              ?_LIN_getFromTable 0071  
                       LIN_handler@LIN_rxState 0047                ??_EUSART_SetOverrunErrorHandler 0073  
                           ??_LIN_getFromTable 0072                      __end_of_SYSTEM_Initialize 05CA  
                        ??_EUSART_Transmit_ISR 0070                                     __pbssBANK0 0020  
                                   __pbssBANK1 00A0                                        ?_DRL_ON 0070  
                         __end_of_EUSART_Write 0479                             __end_of_LOBEAM_OFF 06BE  
                                   ??_LEFT_OFF 0071                                        ?_POS_ON 0070  
                             ??_LIN_breakCheck 0073                                 ??_LIN_checkPID 0078  
                  __end_of_LIN_setTimerHandler 0654                        __end_of_LIN_queuePacket 03A7  
                                   ??_RIGHT_ON 0071                                 ??_LIN_enableRx 0071  
                                   __pmaintext 060F                               _LIN_timerHandler 0600  
                                   ??_LIN_init 0077                            LIN_getChecksum@data 0072  
                ?_EUSART_SetTxInterruptHandler 0071               _EUSART_TxDefaultInterruptHandler 003A  
             __end_of_TMR0_SetInterruptHandler 0660                                     ??_TMR0_ISR 0071  
                                   __pintentry 0004                               ?_TMR0_WriteTimer 0070  
                                      ?_memcpy 0071                                        _BAUDCON 019F  
                                      ?_memset 0071                   ??_EUSART_DefaultErrorHandler 0071  
                        LIN_getChecksum@length 0075                               _LIN_timerRunning 0049  
                                _eusartRxCount 0042                                _AutoBaud_Detect 05DD  
                                      _DRL_OFF 06CD                                        _LEFT_ON 06BE  
                                      _OSCTUNE 0098                                        _POS_OFF 06B5  
                     ??_EUSART_SetErrorHandler 0073                        LIN_getChecksum@checksum 0077  
                 __end_of_LIN_Slave_Initialize 062A                                  _SW_STATE_Data 00A8  
                                    _HIBEAM_ON 06C4                                        __ptext1 05B7  
                                      __ptext2 06A0                                        __ptext3 05A3  
                                      __ptext4 0527                                        __ptext5 0637  
                                      __ptext6 061D                                        __ptext7 058D  
                                      __ptext8 064C                                        __ptext9 065A  
                        _OSCILLATOR_Initialize 0637                               ??_LIN_sendPacket 005C  
                     ??_PIN_MANAGER_Initialize 0071                                      _LOBEAM_ON 06B8  
                                      clrloop0 0655                      LIN_getFromTable@rxCommand 0076  
                         end_of_initialization 0050          __end_of_EUSART_SetOverrunErrorHandler 0672  
                _EUSART_SetOverrunErrorHandler 066C                                        memcpy@d 0076  
                                      memcpy@n 0072                                        memcpy@s 0077  
                                      memset@c 0071                                        memset@n 0073  
                                      memset@p 0076                              _EUSART_Initialize 03A7  
                             ?_LIN_queuePacket 0070                                      _RIGHT_OFF 06AF  
                           ?_EUSART_Initialize 0070                                      _RCSTAbits 019D  
                            ??i1_LIN_stopTimer 0070                             _EUSART_is_rx_ready 0643  
                                _LIN_getPacket 050B                        __end_of_AutoBaud_Detect 05F0  
                                   ?_HIBEAM_ON 0070                                  _LIN_disableRx 068D  
                     ??_EUSART_get_last_status 0071                            ??_EUSART_Initialize 0073  
                             ??_WDT_Initialize 0071                 ??_EUSART_SetTxInterruptHandler 0073  
                            LIN_getPacket@data 007A                       _TMR0_SetInterruptHandler 065A  
                          ?_EUSART_is_rx_ready 0070                                     _processLIN 017F  
                         __end_of_LIN_checkPID 0575                            LIN_init@tableLength 0077  
                             ??_LIN_startTimer 0072                           __end_of_LIN_enableRx 068D  
                                   ?_LOBEAM_ON 0070                                  _scheduleTable 069C  
                    __end_of_EUSART_Initialize 03E5                           ??_EUSART_is_rx_ready 0071  
                               __end_of_DRL_ON 06CD                                      _TXSTAbits 019E  
                               __end_of_POS_ON 06B5                                  _LIN_rxCommand 003C  
                                   ?_RIGHT_OFF 0070                                 ?_LIN_getPacket 0070  
                               ?_LIN_disableRx 0070             __end_of_EUSART_DefaultErrorHandler 06AC  
                   _EUSART_DefaultErrorHandler 06A8                                    _BAUDCONbits 019F  
                                 _EUSART_Write 0451                                 __end_of_memcpy 04C4  
                       ?_OSCILLATOR_Initialize 0070                                 __end_of_memset 055B  
                          start_initialization 003A                                  _LIN_stopTimer 067E  
                     __end_of_LIN_timerHandler 060F                           _LIN_Slave_Initialize 061D  
                                ??_EUSART_Read 0071                     __end_of_AutoBaud_Detect_ON 0697  
 EUSART_SetRxInterruptHandler@interruptHandler 0071   EUSART_SetTxInterruptHandler@interruptHandler 0071  
                                     ??_DRL_ON 0071                          LIN_startTimer@timeout 0072  
                                     ??_POS_ON 0071                              LIN_calcParity@CMD 0072  
               ?_EUSART_SetOverrunErrorHandler 0071                              LIN_calcParity@PID 0073  
                   _EUSART_FramingErrorHandler 0036                         _EUSART_SetErrorHandler 0678  
                                  ??_HIBEAM_ON 0071                               ?_AutoBaud_Detect 0070  
                                  __pdataBANK0 0068                                       ??_memcpy 0074  
                                     ??_memset 0075                           processLIN@tempRxData 005D  
                                   memset@dest 0077                                    ?_processLIN 0070  
                          LIN_init@processData 0075                                       ?_DRL_OFF 0070  
                                     ?_LEFT_ON 0070                    __end_of_EUSART_Transmit_ISR 050B  
                               ?_LIN_stopTimer 0070                                    __pbssCOMMON 007B  
                                    ___latbits 0002                                  __pcstackBANK0 005C  
                            ??_LIN_getChecksum 0073                          ?_LIN_Slave_Initialize 0070  
                                  ??_LOBEAM_ON 0071                                       ?_POS_OFF 0070  
                   __end_of_EUSART_Receive_ISR 041E               _EUSART_RxDefaultInterruptHandler 0038  
                          __end_of_EUSART_Read 049F                          _TMR0_InterruptHandler 0030  
                 __end_of_EUSART_RxDataHandler 058D                                ??_LIN_getPacket 0079  
                                  ??_RIGHT_OFF 0071                         _PIN_MANAGER_Initialize 0527  
                                ??_LIN_handler 0065                               LIN_getChecksum@i 0076  
                              ??_LIN_disableRx 0071                           EUSART_Read@readValue 0072  
                           LIN_getChecksum@pid 0071                           LIN_sendPacket@length 005D  
                                 _eusartRxHead 007C                                   _eusartTxHead 0045  
                                 _eusartRxTail 007B                                   _eusartTxTail 0044  
                 ??_INTERRUPT_InterruptManager 0071                                      _lampFlags 004C  
                      _eusartTxBufferRemaining 0043                                      _lampState 004E  
                              LIN_checkPID@pid 0078                                i1_LIN_stopTimer 0697  
                               _eusartRxBuffer 00A0                         _EUSART_get_last_status 06D0  
                            ??_TMR0_Initialize 0073                                       _LEFT_OFF 06C1  
                               _eusartTxBuffer 0028         EUSART_SetErrorHandler@interruptHandler 0071  
                                     _LATBbits 010D                                       _LATCbits 010E  
                                    clear_ram0 0654                                       _PIE1bits 0091  
                            _eusartRxLastError 0041                                   _LIN_checkPID 055B  
                   ??_TMR0_SetInterruptHandler 0073                                       _PIR1bits 0011  
                                     _RIGHT_ON 06AC                ??_EUSART_SetFramingErrorHandler 0073  
                                     _LIN_init 058D                                   _LIN_enableRx 0688  
                                     _TMR0_ISR 05F0      __end_of_EUSART_DefaultOverrunErrorHandler 06A8  
          ??_EUSART_DefaultOverrunErrorHandler 0070             ?_EUSART_DefaultOverrunErrorHandler 0070  
            _EUSART_DefaultOverrunErrorHandler 06A4                               LIN_getPacket@cmd 0079  
                          __end_of_LIN_handler 017F                                ??_LIN_stopTimer 0071  
                       ??_LIN_Slave_Initialize 0078                                    _EUSART_Read 0479  
                             _LIN_getFromTable 02D4                                      memcpy@tmp 0075  
                      ??_OSCILLATOR_Initialize 0071                            _EUSART_ErrorHandler 0032  
                  ?_EUSART_DefaultErrorHandler 0070                                     _HIBEAM_OFF 06C7  
                      __end_ofi1_LIN_stopTimer 069C                           _EUSART_RxDataHandler 0575  
                                     __ptext10 03A7                                       __ptext11 0660  
                                     __ptext20 06B2                                       __ptext12 0666  
                                     __ptext21 06B5                                       __ptext13 066C  
                                     __ptext30 06CA                                       __ptext22 06B8  
                                     __ptext14 0672                                       __ptext31 06CD  
                                     __ptext23 06BB                                       __ptext15 0678  
                                     __ptext40 0688                                       __ptext32 067E  
                                     __ptext24 050B                                       __ptext16 0054  
                                     __ptext41 068D                                       __ptext33 062A  
                                     __ptext25 0541                                       __ptext17 017F  
                                     __ptext50 0692                                       __ptext42 055B  
                                     __ptext34 0683                                       __ptext26 06BE  
                                     __ptext18 06AC                                       __ptext43 02D4  
                                     __ptext35 033E                                       __ptext27 06C1  
                                     __ptext19 06AF                                       __ptext60 06A8  
                                     __ptext52 05F0                                       __ptext44 024E  
                                     __ptext36 049F                                       __ptext28 06C4  
                                     __ptext61 0575                                       __ptext53 0600  
                                     __ptext45 05CA                                       __ptext37 04C4  
                                     __ptext29 06C7                                       __ptext54 06D4  
                                     __ptext46 06D0                                       __ptext38 041E  
                                     __ptext55 0697                                       __ptext47 0479  
                                     __ptext39 0451                                       __ptext56 04E9  
                                     __ptext48 0643                                       __ptext57 03E5  
                                     __ptext49 05DD                                       __ptext58 06A4  
                                     __ptext59 06D5                              ?_LIN_timerHandler 0070  
                      TMR0_WriteTimer@timerVal 0071                             ??_LIN_timerHandler 0070  
                            ??_TMR0_WriteTimer 0071                         LIN_getFromTable@length 0075  
         __end_of_TMR0_DefaultInterruptHandler 06D5                   _TMR0_DefaultInterruptHandler 06D4  
                      ?_EUSART_SetErrorHandler 0071                             _AutoBaud_Detect_ON 0692  
                          _LIN_rxCommandLength 004A  EUSART_SetOverrunErrorHandler@interruptHandler 0071  
                                  _LIN_handler 0054                                       int$flags 007E  
                                   _LOBEAM_OFF 06BB                                _LIN_getChecksum 041E  
           __end_of_INTERRUPT_InterruptManager 0038                     _INTERRUPT_InterruptManager 0004  
                          ?_AutoBaud_Detect_ON 0070          __end_of_EUSART_SetFramingErrorHandler 0678  
                _EUSART_SetFramingErrorHandler 0672                                   ??_processLIN 007B  
                                  _LIN_timeout 0068                                 _LIN_calcParity 024E  
                                   _INTCONbits 000B                          ?_EUSART_RxDataHandler 0070  
                                     memcpy@d1 0078                                       memcpy@s1 0071  
                          _LIN_setTimerHandler 064C                           ??_AutoBaud_Detect_ON 0071  
                                     intlevel1 0000                                  _CountCallBack 0048  
                      ?_PIN_MANAGER_Initialize 0070                 __end_of_EUSART_SetErrorHandler 067E  
                        LIN_getFromTable@param 0071                             __end_of_processLIN 024E  
         __end_of_EUSART_SetRxInterruptHandler 066C                   _EUSART_SetRxInterruptHandler 0666  
                ?_TMR0_DefaultInterruptHandler 0070                                     _LIN_packet 004F  
                           _EUSART_Receive_ISR 03E5                           ?_LIN_setTimerHandler 0070  
EUSART_SetFramingErrorHandler@interruptHandler 0071                                 _LIN_breakCheck 05CA  
                                  ?_HIBEAM_OFF 0070                         __end_of_LIN_calcParity 02D4  
                                __pstringtext1 069C                             LIN_queuePacket@cmd 0061  
                                   _OPTION_REG 0095                            ?_EUSART_Receive_ISR 0070  
                              _TMR0_Initialize 05A3                              ??_LIN_queuePacket 005F  
                             ?i1_LIN_stopTimer 0070                        ?_EUSART_get_last_status 0070  
                           EUSART_Write@txData 0072                 __end_of_PIN_MANAGER_Initialize 0541  
                          LIN_getFromTable@cmd 0074                               LIN_queuePacket@i 0062  
                         ??_EUSART_Receive_ISR 0071                        __end_of_LIN_getChecksum 0451  
