

Microchip MPLAB XC8 Assembler V2.46 build 20240104201356 
                                                                                               Fri Nov 14 15:56:27 2025

Microchip MPLAB XC8 C Compiler v2.46 (Free license) build 20240104201356 Og1 
     1                           	processor	16F1936
     2                           	pagewidth 120
     3                           	opt	flic
     4                           	psect	cinit,global,class=CODE,merge=1,delta=2
     5                           	psect	bssBANK0,global,class=BANK0,space=1,delta=1,noexec
     6                           	psect	clrtext,global,class=CODE,delta=2
     7                           	psect	cstackCOMMON,global,class=COMMON,space=1,delta=1,noexec
     8                           	psect	cstackBANK0,global,class=BANK0,space=1,delta=1,noexec
     9                           	psect	maintext,global,class=CODE,merge=1,split=1,delta=2
    10                           	psect	text1,local,class=CODE,merge=1,delta=2
    11                           	psect	text2,local,class=CODE,merge=1,delta=2
    12                           	psect	text3,local,class=CODE,merge=1,delta=2
    13                           	psect	text4,local,class=CODE,merge=1,delta=2
    14                           	psect	text5,local,class=CODE,merge=1,delta=2
    15                           	psect	text6,local,class=CODE,merge=1,delta=2
    16                           	psect	text7,local,class=CODE,merge=1,delta=2
    17                           	psect	text8,local,class=CODE,merge=1,delta=2
    18                           	psect	text9,local,class=CODE,merge=1,delta=2
    19                           	psect	text10,local,class=CODE,merge=1,delta=2
    20                           	psect	text11,local,class=CODE,merge=1,delta=2
    21                           	psect	text12,local,class=CODE,merge=1,delta=2
    22                           	psect	text13,local,class=CODE,merge=1,delta=2
    23                           	psect	text14,local,class=CODE,merge=1,delta=2
    24                           	psect	text15,local,class=CODE,merge=1,delta=2
    25                           	psect	text16,local,class=CODE,merge=1,delta=2
    26                           	psect	text17,local,class=CODE,merge=1,delta=2
    27                           	psect	text18,local,class=CODE,merge=1,delta=2
    28                           	psect	text19,local,class=CODE,merge=1,delta=2
    29                           	psect	text20,local,class=CODE,merge=1,delta=2
    30                           	psect	text21,local,class=CODE,merge=1,delta=2
    31                           	psect	text22,local,class=CODE,merge=1,delta=2
    32                           	psect	text23,local,class=CODE,merge=1,delta=2
    33                           	psect	config,global,abs,ovrld,class=CONFIG,space=4,delta=2,noexec
    34                           	dabs	1,0x7E,2
    35     0000                     
    36                           ; Version 2.20
    37                           ; Generated 12/02/2020 GMT
    38                           ; 
    39                           ; Copyright © 2020, Microchip Technology Inc. and its subsidiaries ("Microchip")
    40                           ; All rights reserved.
    41                           ; 
    42                           ; This software is developed by Microchip Technology Inc. and its subsidiaries ("Microch
      +                          ip").
    43                           ; 
    44                           ; Redistribution and use in source and binary forms, with or without modification, are
    45                           ; permitted provided that the following conditions are met:
    46                           ; 
    47                           ;     1. Redistributions of source code must retain the above copyright notice, this lis
      +                          t of
    48                           ;        conditions and the following disclaimer.
    49                           ; 
    50                           ;     2. Redistributions in binary form must reproduce the above copyright notice, this 
      +                          list
    51                           ;        of conditions and the following disclaimer in the documentation and/or other
    52                           ;        materials provided with the distribution.
    53                           ; 
    54                           ;     3. Microchip's name may not be used to endorse or promote products derived from th
      +                          is
    55                           ;        software without specific prior written permission.
    56                           ; 
    57                           ; THIS SOFTWARE IS PROVIDED BY MICROCHIP "AS IS" AND ANY EXPRESS OR IMPLIED WARRANTIES,
    58                           ; INCLUDING, BUT NOT LIMITED TO, THE IMPLIED WARRANTIES OF MERCHANTABILITY AND FITNESS F
      +                          OR
    59                           ; PURPOSE ARE DISCLAIMED.  IN NO EVENT SHALL MICROCHIP BE LIABLE FOR ANY DIRECT, INDIREC
      +                          T,
    60                           ; INCIDENTAL, SPECIAL, EXEMPLARY, OR CONSEQUENTIAL DAMAGES (INCLUDING BUT NOT LIMITED TO
    61                           ; PROCUREMENT OF SUBSTITUTE GOODS OR SERVICES; LOSS OF USE, DATA OR PROFITS; OR BUSINESS
    62                           ; INTERRUPTION) HOWSOEVER CAUSED AND ON ANY THEORY OF LIABILITY, WHETHER IN CONTRACT, ST
      +                          RICT
    63                           ; LIABILITY, OR TORT (INCLUDING NEGLIGENCE OR OTHERWISE) ARISING IN ANY WAY OUT OF THE U
      +                          SE OF
    64                           ; THIS SOFTWARE, EVEN IF ADVISED OF THE POSSIBILITY OF SUCH DAMAGE.
    65                           ; 
    66                           ; 
    67                           ; Code-generator required, PIC16F1936 Definitions
    68                           ; 
    69                           ; SFR Addresses
    70     0000                     	;# 
    71     0001                     	;# 
    72     0002                     	;# 
    73     0003                     	;# 
    74     0004                     	;# 
    75     0005                     	;# 
    76     0006                     	;# 
    77     0007                     	;# 
    78     0008                     	;# 
    79     0009                     	;# 
    80     000A                     	;# 
    81     000B                     	;# 
    82     000C                     	;# 
    83     000D                     	;# 
    84     000E                     	;# 
    85     0010                     	;# 
    86     0011                     	;# 
    87     0012                     	;# 
    88     0013                     	;# 
    89     0015                     	;# 
    90     0016                     	;# 
    91     0016                     	;# 
    92     0017                     	;# 
    93     0018                     	;# 
    94     0019                     	;# 
    95     001A                     	;# 
    96     001B                     	;# 
    97     001C                     	;# 
    98     001E                     	;# 
    99     001F                     	;# 
   100     008C                     	;# 
   101     008D                     	;# 
   102     008E                     	;# 
   103     0090                     	;# 
   104     0091                     	;# 
   105     0092                     	;# 
   106     0093                     	;# 
   107     0095                     	;# 
   108     0096                     	;# 
   109     0097                     	;# 
   110     0098                     	;# 
   111     0099                     	;# 
   112     009A                     	;# 
   113     009B                     	;# 
   114     009B                     	;# 
   115     009C                     	;# 
   116     009D                     	;# 
   117     009E                     	;# 
   118     010C                     	;# 
   119     010D                     	;# 
   120     010E                     	;# 
   121     0110                     	;# 
   122     0111                     	;# 
   123     0112                     	;# 
   124     0113                     	;# 
   125     0114                     	;# 
   126     0115                     	;# 
   127     0116                     	;# 
   128     0117                     	;# 
   129     0118                     	;# 
   130     0119                     	;# 
   131     011A                     	;# 
   132     011B                     	;# 
   133     011D                     	;# 
   134     018C                     	;# 
   135     018D                     	;# 
   136     0191                     	;# 
   137     0191                     	;# 
   138     0192                     	;# 
   139     0193                     	;# 
   140     0193                     	;# 
   141     0193                     	;# 
   142     0194                     	;# 
   143     0195                     	;# 
   144     0196                     	;# 
   145     0199                     	;# 
   146     019A                     	;# 
   147     019B                     	;# 
   148     019B                     	;# 
   149     019B                     	;# 
   150     019B                     	;# 
   151     019C                     	;# 
   152     019C                     	;# 
   153     019D                     	;# 
   154     019E                     	;# 
   155     019F                     	;# 
   156     020D                     	;# 
   157     0210                     	;# 
   158     0211                     	;# 
   159     0212                     	;# 
   160     0213                     	;# 
   161     0214                     	;# 
   162     0215                     	;# 
   163     0215                     	;# 
   164     0216                     	;# 
   165     0217                     	;# 
   166     0291                     	;# 
   167     0291                     	;# 
   168     0292                     	;# 
   169     0293                     	;# 
   170     0294                     	;# 
   171     0295                     	;# 
   172     0295                     	;# 
   173     0296                     	;# 
   174     0298                     	;# 
   175     0298                     	;# 
   176     0299                     	;# 
   177     029A                     	;# 
   178     029B                     	;# 
   179     029C                     	;# 
   180     029C                     	;# 
   181     029D                     	;# 
   182     029E                     	;# 
   183     029F                     	;# 
   184     0311                     	;# 
   185     0311                     	;# 
   186     0312                     	;# 
   187     0313                     	;# 
   188     0314                     	;# 
   189     0315                     	;# 
   190     0315                     	;# 
   191     0316                     	;# 
   192     0318                     	;# 
   193     0318                     	;# 
   194     0319                     	;# 
   195     031A                     	;# 
   196     031C                     	;# 
   197     031C                     	;# 
   198     031D                     	;# 
   199     031E                     	;# 
   200     0394                     	;# 
   201     0395                     	;# 
   202     0396                     	;# 
   203     0415                     	;# 
   204     0416                     	;# 
   205     0417                     	;# 
   206     041C                     	;# 
   207     041D                     	;# 
   208     041E                     	;# 
   209     0791                     	;# 
   210     0792                     	;# 
   211     0793                     	;# 
   212     0794                     	;# 
   213     0795                     	;# 
   214     0798                     	;# 
   215     0799                     	;# 
   216     07A0                     	;# 
   217     07A1                     	;# 
   218     07A3                     	;# 
   219     07A4                     	;# 
   220     07A6                     	;# 
   221     07A7                     	;# 
   222     07A9                     	;# 
   223     07AA                     	;# 
   224     0FE4                     	;# 
   225     0FE5                     	;# 
   226     0FE6                     	;# 
   227     0FE7                     	;# 
   228     0FE8                     	;# 
   229     0FE9                     	;# 
   230     0FEA                     	;# 
   231     0FEB                     	;# 
   232     0FED                     	;# 
   233     0FEE                     	;# 
   234     0FEF                     	;# 
   235     0000                     	;# 
   236     0001                     	;# 
   237     0002                     	;# 
   238     0003                     	;# 
   239     0004                     	;# 
   240     0005                     	;# 
   241     0006                     	;# 
   242     0007                     	;# 
   243     0008                     	;# 
   244     0009                     	;# 
   245     000A                     	;# 
   246     000B                     	;# 
   247     000C                     	;# 
   248     000D                     	;# 
   249     000E                     	;# 
   250     0010                     	;# 
   251     0011                     	;# 
   252     0012                     	;# 
   253     0013                     	;# 
   254     0015                     	;# 
   255     0016                     	;# 
   256     0016                     	;# 
   257     0017                     	;# 
   258     0018                     	;# 
   259     0019                     	;# 
   260     001A                     	;# 
   261     001B                     	;# 
   262     001C                     	;# 
   263     001E                     	;# 
   264     001F                     	;# 
   265     008C                     	;# 
   266     008D                     	;# 
   267     008E                     	;# 
   268     0090                     	;# 
   269     0091                     	;# 
   270     0092                     	;# 
   271     0093                     	;# 
   272     0095                     	;# 
   273     0096                     	;# 
   274     0097                     	;# 
   275     0098                     	;# 
   276     0099                     	;# 
   277     009A                     	;# 
   278     009B                     	;# 
   279     009B                     	;# 
   280     009C                     	;# 
   281     009D                     	;# 
   282     009E                     	;# 
   283     010C                     	;# 
   284     010D                     	;# 
   285     010E                     	;# 
   286     0110                     	;# 
   287     0111                     	;# 
   288     0112                     	;# 
   289     0113                     	;# 
   290     0114                     	;# 
   291     0115                     	;# 
   292     0116                     	;# 
   293     0117                     	;# 
   294     0118                     	;# 
   295     0119                     	;# 
   296     011A                     	;# 
   297     011B                     	;# 
   298     011D                     	;# 
   299     018C                     	;# 
   300     018D                     	;# 
   301     0191                     	;# 
   302     0191                     	;# 
   303     0192                     	;# 
   304     0193                     	;# 
   305     0193                     	;# 
   306     0193                     	;# 
   307     0194                     	;# 
   308     0195                     	;# 
   309     0196                     	;# 
   310     0199                     	;# 
   311     019A                     	;# 
   312     019B                     	;# 
   313     019B                     	;# 
   314     019B                     	;# 
   315     019B                     	;# 
   316     019C                     	;# 
   317     019C                     	;# 
   318     019D                     	;# 
   319     019E                     	;# 
   320     019F                     	;# 
   321     020D                     	;# 
   322     0210                     	;# 
   323     0211                     	;# 
   324     0212                     	;# 
   325     0213                     	;# 
   326     0214                     	;# 
   327     0215                     	;# 
   328     0215                     	;# 
   329     0216                     	;# 
   330     0217                     	;# 
   331     0291                     	;# 
   332     0291                     	;# 
   333     0292                     	;# 
   334     0293                     	;# 
   335     0294                     	;# 
   336     0295                     	;# 
   337     0295                     	;# 
   338     0296                     	;# 
   339     0298                     	;# 
   340     0298                     	;# 
   341     0299                     	;# 
   342     029A                     	;# 
   343     029B                     	;# 
   344     029C                     	;# 
   345     029C                     	;# 
   346     029D                     	;# 
   347     029E                     	;# 
   348     029F                     	;# 
   349     0311                     	;# 
   350     0311                     	;# 
   351     0312                     	;# 
   352     0313                     	;# 
   353     0314                     	;# 
   354     0315                     	;# 
   355     0315                     	;# 
   356     0316                     	;# 
   357     0318                     	;# 
   358     0318                     	;# 
   359     0319                     	;# 
   360     031A                     	;# 
   361     031C                     	;# 
   362     031C                     	;# 
   363     031D                     	;# 
   364     031E                     	;# 
   365     0394                     	;# 
   366     0395                     	;# 
   367     0396                     	;# 
   368     0415                     	;# 
   369     0416                     	;# 
   370     0417                     	;# 
   371     041C                     	;# 
   372     041D                     	;# 
   373     041E                     	;# 
   374     0791                     	;# 
   375     0792                     	;# 
   376     0793                     	;# 
   377     0794                     	;# 
   378     0795                     	;# 
   379     0798                     	;# 
   380     0799                     	;# 
   381     07A0                     	;# 
   382     07A1                     	;# 
   383     07A3                     	;# 
   384     07A4                     	;# 
   385     07A6                     	;# 
   386     07A7                     	;# 
   387     07A9                     	;# 
   388     07AA                     	;# 
   389     0FE4                     	;# 
   390     0FE5                     	;# 
   391     0FE6                     	;# 
   392     0FE7                     	;# 
   393     0FE8                     	;# 
   394     0FE9                     	;# 
   395     0FEA                     	;# 
   396     0FEB                     	;# 
   397     0FED                     	;# 
   398     0FEE                     	;# 
   399     0FEF                     	;# 
   400     0000                     	;# 
   401     0001                     	;# 
   402     0002                     	;# 
   403     0003                     	;# 
   404     0004                     	;# 
   405     0005                     	;# 
   406     0006                     	;# 
   407     0007                     	;# 
   408     0008                     	;# 
   409     0009                     	;# 
   410     000A                     	;# 
   411     000B                     	;# 
   412     000C                     	;# 
   413     000D                     	;# 
   414     000E                     	;# 
   415     0010                     	;# 
   416     0011                     	;# 
   417     0012                     	;# 
   418     0013                     	;# 
   419     0015                     	;# 
   420     0016                     	;# 
   421     0016                     	;# 
   422     0017                     	;# 
   423     0018                     	;# 
   424     0019                     	;# 
   425     001A                     	;# 
   426     001B                     	;# 
   427     001C                     	;# 
   428     001E                     	;# 
   429     001F                     	;# 
   430     008C                     	;# 
   431     008D                     	;# 
   432     008E                     	;# 
   433     0090                     	;# 
   434     0091                     	;# 
   435     0092                     	;# 
   436     0093                     	;# 
   437     0095                     	;# 
   438     0096                     	;# 
   439     0097                     	;# 
   440     0098                     	;# 
   441     0099                     	;# 
   442     009A                     	;# 
   443     009B                     	;# 
   444     009B                     	;# 
   445     009C                     	;# 
   446     009D                     	;# 
   447     009E                     	;# 
   448     010C                     	;# 
   449     010D                     	;# 
   450     010E                     	;# 
   451     0110                     	;# 
   452     0111                     	;# 
   453     0112                     	;# 
   454     0113                     	;# 
   455     0114                     	;# 
   456     0115                     	;# 
   457     0116                     	;# 
   458     0117                     	;# 
   459     0118                     	;# 
   460     0119                     	;# 
   461     011A                     	;# 
   462     011B                     	;# 
   463     011D                     	;# 
   464     018C                     	;# 
   465     018D                     	;# 
   466     0191                     	;# 
   467     0191                     	;# 
   468     0192                     	;# 
   469     0193                     	;# 
   470     0193                     	;# 
   471     0193                     	;# 
   472     0194                     	;# 
   473     0195                     	;# 
   474     0196                     	;# 
   475     0199                     	;# 
   476     019A                     	;# 
   477     019B                     	;# 
   478     019B                     	;# 
   479     019B                     	;# 
   480     019B                     	;# 
   481     019C                     	;# 
   482     019C                     	;# 
   483     019D                     	;# 
   484     019E                     	;# 
   485     019F                     	;# 
   486     020D                     	;# 
   487     0210                     	;# 
   488     0211                     	;# 
   489     0212                     	;# 
   490     0213                     	;# 
   491     0214                     	;# 
   492     0215                     	;# 
   493     0215                     	;# 
   494     0216                     	;# 
   495     0217                     	;# 
   496     0291                     	;# 
   497     0291                     	;# 
   498     0292                     	;# 
   499     0293                     	;# 
   500     0294                     	;# 
   501     0295                     	;# 
   502     0295                     	;# 
   503     0296                     	;# 
   504     0298                     	;# 
   505     0298                     	;# 
   506     0299                     	;# 
   507     029A                     	;# 
   508     029B                     	;# 
   509     029C                     	;# 
   510     029C                     	;# 
   511     029D                     	;# 
   512     029E                     	;# 
   513     029F                     	;# 
   514     0311                     	;# 
   515     0311                     	;# 
   516     0312                     	;# 
   517     0313                     	;# 
   518     0314                     	;# 
   519     0315                     	;# 
   520     0315                     	;# 
   521     0316                     	;# 
   522     0318                     	;# 
   523     0318                     	;# 
   524     0319                     	;# 
   525     031A                     	;# 
   526     031C                     	;# 
   527     031C                     	;# 
   528     031D                     	;# 
   529     031E                     	;# 
   530     0394                     	;# 
   531     0395                     	;# 
   532     0396                     	;# 
   533     0415                     	;# 
   534     0416                     	;# 
   535     0417                     	;# 
   536     041C                     	;# 
   537     041D                     	;# 
   538     041E                     	;# 
   539     0791                     	;# 
   540     0792                     	;# 
   541     0793                     	;# 
   542     0794                     	;# 
   543     0795                     	;# 
   544     0798                     	;# 
   545     0799                     	;# 
   546     07A0                     	;# 
   547     07A1                     	;# 
   548     07A3                     	;# 
   549     07A4                     	;# 
   550     07A6                     	;# 
   551     07A7                     	;# 
   552     07A9                     	;# 
   553     07AA                     	;# 
   554     0FE4                     	;# 
   555     0FE5                     	;# 
   556     0FE6                     	;# 
   557     0FE7                     	;# 
   558     0FE8                     	;# 
   559     0FE9                     	;# 
   560     0FEA                     	;# 
   561     0FEB                     	;# 
   562     0FED                     	;# 
   563     0FEE                     	;# 
   564     0FEF                     	;# 
   565     0000                     	;# 
   566     0001                     	;# 
   567     0002                     	;# 
   568     0003                     	;# 
   569     0004                     	;# 
   570     0005                     	;# 
   571     0006                     	;# 
   572     0007                     	;# 
   573     0008                     	;# 
   574     0009                     	;# 
   575     000A                     	;# 
   576     000B                     	;# 
   577     000C                     	;# 
   578     000D                     	;# 
   579     000E                     	;# 
   580     0010                     	;# 
   581     0011                     	;# 
   582     0012                     	;# 
   583     0013                     	;# 
   584     0015                     	;# 
   585     0016                     	;# 
   586     0016                     	;# 
   587     0017                     	;# 
   588     0018                     	;# 
   589     0019                     	;# 
   590     001A                     	;# 
   591     001B                     	;# 
   592     001C                     	;# 
   593     001E                     	;# 
   594     001F                     	;# 
   595     008C                     	;# 
   596     008D                     	;# 
   597     008E                     	;# 
   598     0090                     	;# 
   599     0091                     	;# 
   600     0092                     	;# 
   601     0093                     	;# 
   602     0095                     	;# 
   603     0096                     	;# 
   604     0097                     	;# 
   605     0098                     	;# 
   606     0099                     	;# 
   607     009A                     	;# 
   608     009B                     	;# 
   609     009B                     	;# 
   610     009C                     	;# 
   611     009D                     	;# 
   612     009E                     	;# 
   613     010C                     	;# 
   614     010D                     	;# 
   615     010E                     	;# 
   616     0110                     	;# 
   617     0111                     	;# 
   618     0112                     	;# 
   619     0113                     	;# 
   620     0114                     	;# 
   621     0115                     	;# 
   622     0116                     	;# 
   623     0117                     	;# 
   624     0118                     	;# 
   625     0119                     	;# 
   626     011A                     	;# 
   627     011B                     	;# 
   628     011D                     	;# 
   629     018C                     	;# 
   630     018D                     	;# 
   631     0191                     	;# 
   632     0191                     	;# 
   633     0192                     	;# 
   634     0193                     	;# 
   635     0193                     	;# 
   636     0193                     	;# 
   637     0194                     	;# 
   638     0195                     	;# 
   639     0196                     	;# 
   640     0199                     	;# 
   641     019A                     	;# 
   642     019B                     	;# 
   643     019B                     	;# 
   644     019B                     	;# 
   645     019B                     	;# 
   646     019C                     	;# 
   647     019C                     	;# 
   648     019D                     	;# 
   649     019E                     	;# 
   650     019F                     	;# 
   651     020D                     	;# 
   652     0210                     	;# 
   653     0211                     	;# 
   654     0212                     	;# 
   655     0213                     	;# 
   656     0214                     	;# 
   657     0215                     	;# 
   658     0215                     	;# 
   659     0216                     	;# 
   660     0217                     	;# 
   661     0291                     	;# 
   662     0291                     	;# 
   663     0292                     	;# 
   664     0293                     	;# 
   665     0294                     	;# 
   666     0295                     	;# 
   667     0295                     	;# 
   668     0296                     	;# 
   669     0298                     	;# 
   670     0298                     	;# 
   671     0299                     	;# 
   672     029A                     	;# 
   673     029B                     	;# 
   674     029C                     	;# 
   675     029C                     	;# 
   676     029D                     	;# 
   677     029E                     	;# 
   678     029F                     	;# 
   679     0311                     	;# 
   680     0311                     	;# 
   681     0312                     	;# 
   682     0313                     	;# 
   683     0314                     	;# 
   684     0315                     	;# 
   685     0315                     	;# 
   686     0316                     	;# 
   687     0318                     	;# 
   688     0318                     	;# 
   689     0319                     	;# 
   690     031A                     	;# 
   691     031C                     	;# 
   692     031C                     	;# 
   693     031D                     	;# 
   694     031E                     	;# 
   695     0394                     	;# 
   696     0395                     	;# 
   697     0396                     	;# 
   698     0415                     	;# 
   699     0416                     	;# 
   700     0417                     	;# 
   701     041C                     	;# 
   702     041D                     	;# 
   703     041E                     	;# 
   704     0791                     	;# 
   705     0792                     	;# 
   706     0793                     	;# 
   707     0794                     	;# 
   708     0795                     	;# 
   709     0798                     	;# 
   710     0799                     	;# 
   711     07A0                     	;# 
   712     07A1                     	;# 
   713     07A3                     	;# 
   714     07A4                     	;# 
   715     07A6                     	;# 
   716     07A7                     	;# 
   717     07A9                     	;# 
   718     07AA                     	;# 
   719     0FE4                     	;# 
   720     0FE5                     	;# 
   721     0FE6                     	;# 
   722     0FE7                     	;# 
   723     0FE8                     	;# 
   724     0FE9                     	;# 
   725     0FEA                     	;# 
   726     0FEB                     	;# 
   727     0FED                     	;# 
   728     0FEE                     	;# 
   729     0FEF                     	;# 
   730     0000                     	;# 
   731     0001                     	;# 
   732     0002                     	;# 
   733     0003                     	;# 
   734     0004                     	;# 
   735     0005                     	;# 
   736     0006                     	;# 
   737     0007                     	;# 
   738     0008                     	;# 
   739     0009                     	;# 
   740     000A                     	;# 
   741     000B                     	;# 
   742     000C                     	;# 
   743     000D                     	;# 
   744     000E                     	;# 
   745     0010                     	;# 
   746     0011                     	;# 
   747     0012                     	;# 
   748     0013                     	;# 
   749     0015                     	;# 
   750     0016                     	;# 
   751     0016                     	;# 
   752     0017                     	;# 
   753     0018                     	;# 
   754     0019                     	;# 
   755     001A                     	;# 
   756     001B                     	;# 
   757     001C                     	;# 
   758     001E                     	;# 
   759     001F                     	;# 
   760     008C                     	;# 
   761     008D                     	;# 
   762     008E                     	;# 
   763     0090                     	;# 
   764     0091                     	;# 
   765     0092                     	;# 
   766     0093                     	;# 
   767     0095                     	;# 
   768     0096                     	;# 
   769     0097                     	;# 
   770     0098                     	;# 
   771     0099                     	;# 
   772     009A                     	;# 
   773     009B                     	;# 
   774     009B                     	;# 
   775     009C                     	;# 
   776     009D                     	;# 
   777     009E                     	;# 
   778     010C                     	;# 
   779     010D                     	;# 
   780     010E                     	;# 
   781     0110                     	;# 
   782     0111                     	;# 
   783     0112                     	;# 
   784     0113                     	;# 
   785     0114                     	;# 
   786     0115                     	;# 
   787     0116                     	;# 
   788     0117                     	;# 
   789     0118                     	;# 
   790     0119                     	;# 
   791     011A                     	;# 
   792     011B                     	;# 
   793     011D                     	;# 
   794     018C                     	;# 
   795     018D                     	;# 
   796     0191                     	;# 
   797     0191                     	;# 
   798     0192                     	;# 
   799     0193                     	;# 
   800     0193                     	;# 
   801     0193                     	;# 
   802     0194                     	;# 
   803     0195                     	;# 
   804     0196                     	;# 
   805     0199                     	;# 
   806     019A                     	;# 
   807     019B                     	;# 
   808     019B                     	;# 
   809     019B                     	;# 
   810     019B                     	;# 
   811     019C                     	;# 
   812     019C                     	;# 
   813     019D                     	;# 
   814     019E                     	;# 
   815     019F                     	;# 
   816     020D                     	;# 
   817     0210                     	;# 
   818     0211                     	;# 
   819     0212                     	;# 
   820     0213                     	;# 
   821     0214                     	;# 
   822     0215                     	;# 
   823     0215                     	;# 
   824     0216                     	;# 
   825     0217                     	;# 
   826     0291                     	;# 
   827     0291                     	;# 
   828     0292                     	;# 
   829     0293                     	;# 
   830     0294                     	;# 
   831     0295                     	;# 
   832     0295                     	;# 
   833     0296                     	;# 
   834     0298                     	;# 
   835     0298                     	;# 
   836     0299                     	;# 
   837     029A                     	;# 
   838     029B                     	;# 
   839     029C                     	;# 
   840     029C                     	;# 
   841     029D                     	;# 
   842     029E                     	;# 
   843     029F                     	;# 
   844     0311                     	;# 
   845     0311                     	;# 
   846     0312                     	;# 
   847     0313                     	;# 
   848     0314                     	;# 
   849     0315                     	;# 
   850     0315                     	;# 
   851     0316                     	;# 
   852     0318                     	;# 
   853     0318                     	;# 
   854     0319                     	;# 
   855     031A                     	;# 
   856     031C                     	;# 
   857     031C                     	;# 
   858     031D                     	;# 
   859     031E                     	;# 
   860     0394                     	;# 
   861     0395                     	;# 
   862     0396                     	;# 
   863     0415                     	;# 
   864     0416                     	;# 
   865     0417                     	;# 
   866     041C                     	;# 
   867     041D                     	;# 
   868     041E                     	;# 
   869     0791                     	;# 
   870     0792                     	;# 
   871     0793                     	;# 
   872     0794                     	;# 
   873     0795                     	;# 
   874     0798                     	;# 
   875     0799                     	;# 
   876     07A0                     	;# 
   877     07A1                     	;# 
   878     07A3                     	;# 
   879     07A4                     	;# 
   880     07A6                     	;# 
   881     07A7                     	;# 
   882     07A9                     	;# 
   883     07AA                     	;# 
   884     0FE4                     	;# 
   885     0FE5                     	;# 
   886     0FE6                     	;# 
   887     0FE7                     	;# 
   888     0FE8                     	;# 
   889     0FE9                     	;# 
   890     0FEA                     	;# 
   891     0FEB                     	;# 
   892     0FED                     	;# 
   893     0FEE                     	;# 
   894     0FEF                     	;# 
   895     0000                     	;# 
   896     0001                     	;# 
   897     0002                     	;# 
   898     0003                     	;# 
   899     0004                     	;# 
   900     0005                     	;# 
   901     0006                     	;# 
   902     0007                     	;# 
   903     0008                     	;# 
   904     0009                     	;# 
   905     000A                     	;# 
   906     000B                     	;# 
   907     000C                     	;# 
   908     000D                     	;# 
   909     000E                     	;# 
   910     0010                     	;# 
   911     0011                     	;# 
   912     0012                     	;# 
   913     0013                     	;# 
   914     0015                     	;# 
   915     0016                     	;# 
   916     0016                     	;# 
   917     0017                     	;# 
   918     0018                     	;# 
   919     0019                     	;# 
   920     001A                     	;# 
   921     001B                     	;# 
   922     001C                     	;# 
   923     001E                     	;# 
   924     001F                     	;# 
   925     008C                     	;# 
   926     008D                     	;# 
   927     008E                     	;# 
   928     0090                     	;# 
   929     0091                     	;# 
   930     0092                     	;# 
   931     0093                     	;# 
   932     0095                     	;# 
   933     0096                     	;# 
   934     0097                     	;# 
   935     0098                     	;# 
   936     0099                     	;# 
   937     009A                     	;# 
   938     009B                     	;# 
   939     009B                     	;# 
   940     009C                     	;# 
   941     009D                     	;# 
   942     009E                     	;# 
   943     010C                     	;# 
   944     010D                     	;# 
   945     010E                     	;# 
   946     0110                     	;# 
   947     0111                     	;# 
   948     0112                     	;# 
   949     0113                     	;# 
   950     0114                     	;# 
   951     0115                     	;# 
   952     0116                     	;# 
   953     0117                     	;# 
   954     0118                     	;# 
   955     0119                     	;# 
   956     011A                     	;# 
   957     011B                     	;# 
   958     011D                     	;# 
   959     018C                     	;# 
   960     018D                     	;# 
   961     0191                     	;# 
   962     0191                     	;# 
   963     0192                     	;# 
   964     0193                     	;# 
   965     0193                     	;# 
   966     0193                     	;# 
   967     0194                     	;# 
   968     0195                     	;# 
   969     0196                     	;# 
   970     0199                     	;# 
   971     019A                     	;# 
   972     019B                     	;# 
   973     019B                     	;# 
   974     019B                     	;# 
   975     019B                     	;# 
   976     019C                     	;# 
   977     019C                     	;# 
   978     019D                     	;# 
   979     019E                     	;# 
   980     019F                     	;# 
   981     020D                     	;# 
   982     0210                     	;# 
   983     0211                     	;# 
   984     0212                     	;# 
   985     0213                     	;# 
   986     0214                     	;# 
   987     0215                     	;# 
   988     0215                     	;# 
   989     0216                     	;# 
   990     0217                     	;# 
   991     0291                     	;# 
   992     0291                     	;# 
   993     0292                     	;# 
   994     0293                     	;# 
   995     0294                     	;# 
   996     0295                     	;# 
   997     0295                     	;# 
   998     0296                     	;# 
   999     0298                     	;# 
  1000     0298                     	;# 
  1001     0299                     	;# 
  1002     029A                     	;# 
  1003     029B                     	;# 
  1004     029C                     	;# 
  1005     029C                     	;# 
  1006     029D                     	;# 
  1007     029E                     	;# 
  1008     029F                     	;# 
  1009     0311                     	;# 
  1010     0311                     	;# 
  1011     0312                     	;# 
  1012     0313                     	;# 
  1013     0314                     	;# 
  1014     0315                     	;# 
  1015     0315                     	;# 
  1016     0316                     	;# 
  1017     0318                     	;# 
  1018     0318                     	;# 
  1019     0319                     	;# 
  1020     031A                     	;# 
  1021     031C                     	;# 
  1022     031C                     	;# 
  1023     031D                     	;# 
  1024     031E                     	;# 
  1025     0394                     	;# 
  1026     0395                     	;# 
  1027     0396                     	;# 
  1028     0415                     	;# 
  1029     0416                     	;# 
  1030     0417                     	;# 
  1031     041C                     	;# 
  1032     041D                     	;# 
  1033     041E                     	;# 
  1034     0791                     	;# 
  1035     0792                     	;# 
  1036     0793                     	;# 
  1037     0794                     	;# 
  1038     0795                     	;# 
  1039     0798                     	;# 
  1040     0799                     	;# 
  1041     07A0                     	;# 
  1042     07A1                     	;# 
  1043     07A3                     	;# 
  1044     07A4                     	;# 
  1045     07A6                     	;# 
  1046     07A7                     	;# 
  1047     07A9                     	;# 
  1048     07AA                     	;# 
  1049     0FE4                     	;# 
  1050     0FE5                     	;# 
  1051     0FE6                     	;# 
  1052     0FE7                     	;# 
  1053     0FE8                     	;# 
  1054     0FE9                     	;# 
  1055     0FEA                     	;# 
  1056     0FEB                     	;# 
  1057     0FED                     	;# 
  1058     0FEE                     	;# 
  1059     0FEF                     	;# 
  1060     0000                     	;# 
  1061     0001                     	;# 
  1062     0002                     	;# 
  1063     0003                     	;# 
  1064     0004                     	;# 
  1065     0005                     	;# 
  1066     0006                     	;# 
  1067     0007                     	;# 
  1068     0008                     	;# 
  1069     0009                     	;# 
  1070     000A                     	;# 
  1071     000B                     	;# 
  1072     000C                     	;# 
  1073     000D                     	;# 
  1074     000E                     	;# 
  1075     0010                     	;# 
  1076     0011                     	;# 
  1077     0012                     	;# 
  1078     0013                     	;# 
  1079     0015                     	;# 
  1080     0016                     	;# 
  1081     0016                     	;# 
  1082     0017                     	;# 
  1083     0018                     	;# 
  1084     0019                     	;# 
  1085     001A                     	;# 
  1086     001B                     	;# 
  1087     001C                     	;# 
  1088     001E                     	;# 
  1089     001F                     	;# 
  1090     008C                     	;# 
  1091     008D                     	;# 
  1092     008E                     	;# 
  1093     0090                     	;# 
  1094     0091                     	;# 
  1095     0092                     	;# 
  1096     0093                     	;# 
  1097     0095                     	;# 
  1098     0096                     	;# 
  1099     0097                     	;# 
  1100     0098                     	;# 
  1101     0099                     	;# 
  1102     009A                     	;# 
  1103     009B                     	;# 
  1104     009B                     	;# 
  1105     009C                     	;# 
  1106     009D                     	;# 
  1107     009E                     	;# 
  1108     010C                     	;# 
  1109     010D                     	;# 
  1110     010E                     	;# 
  1111     0110                     	;# 
  1112     0111                     	;# 
  1113     0112                     	;# 
  1114     0113                     	;# 
  1115     0114                     	;# 
  1116     0115                     	;# 
  1117     0116                     	;# 
  1118     0117                     	;# 
  1119     0118                     	;# 
  1120     0119                     	;# 
  1121     011A                     	;# 
  1122     011B                     	;# 
  1123     011D                     	;# 
  1124     018C                     	;# 
  1125     018D                     	;# 
  1126     0191                     	;# 
  1127     0191                     	;# 
  1128     0192                     	;# 
  1129     0193                     	;# 
  1130     0193                     	;# 
  1131     0193                     	;# 
  1132     0194                     	;# 
  1133     0195                     	;# 
  1134     0196                     	;# 
  1135     0199                     	;# 
  1136     019A                     	;# 
  1137     019B                     	;# 
  1138     019B                     	;# 
  1139     019B                     	;# 
  1140     019B                     	;# 
  1141     019C                     	;# 
  1142     019C                     	;# 
  1143     019D                     	;# 
  1144     019E                     	;# 
  1145     019F                     	;# 
  1146     020D                     	;# 
  1147     0210                     	;# 
  1148     0211                     	;# 
  1149     0212                     	;# 
  1150     0213                     	;# 
  1151     0214                     	;# 
  1152     0215                     	;# 
  1153     0215                     	;# 
  1154     0216                     	;# 
  1155     0217                     	;# 
  1156     0291                     	;# 
  1157     0291                     	;# 
  1158     0292                     	;# 
  1159     0293                     	;# 
  1160     0294                     	;# 
  1161     0295                     	;# 
  1162     0295                     	;# 
  1163     0296                     	;# 
  1164     0298                     	;# 
  1165     0298                     	;# 
  1166     0299                     	;# 
  1167     029A                     	;# 
  1168     029B                     	;# 
  1169     029C                     	;# 
  1170     029C                     	;# 
  1171     029D                     	;# 
  1172     029E                     	;# 
  1173     029F                     	;# 
  1174     0311                     	;# 
  1175     0311                     	;# 
  1176     0312                     	;# 
  1177     0313                     	;# 
  1178     0314                     	;# 
  1179     0315                     	;# 
  1180     0315                     	;# 
  1181     0316                     	;# 
  1182     0318                     	;# 
  1183     0318                     	;# 
  1184     0319                     	;# 
  1185     031A                     	;# 
  1186     031C                     	;# 
  1187     031C                     	;# 
  1188     031D                     	;# 
  1189     031E                     	;# 
  1190     0394                     	;# 
  1191     0395                     	;# 
  1192     0396                     	;# 
  1193     0415                     	;# 
  1194     0416                     	;# 
  1195     0417                     	;# 
  1196     041C                     	;# 
  1197     041D                     	;# 
  1198     041E                     	;# 
  1199     0791                     	;# 
  1200     0792                     	;# 
  1201     0793                     	;# 
  1202     0794                     	;# 
  1203     0795                     	;# 
  1204     0798                     	;# 
  1205     0799                     	;# 
  1206     07A0                     	;# 
  1207     07A1                     	;# 
  1208     07A3                     	;# 
  1209     07A4                     	;# 
  1210     07A6                     	;# 
  1211     07A7                     	;# 
  1212     07A9                     	;# 
  1213     07AA                     	;# 
  1214     0FE4                     	;# 
  1215     0FE5                     	;# 
  1216     0FE6                     	;# 
  1217     0FE7                     	;# 
  1218     0FE8                     	;# 
  1219     0FE9                     	;# 
  1220     0FEA                     	;# 
  1221     0FEB                     	;# 
  1222     0FED                     	;# 
  1223     0FEE                     	;# 
  1224     0FEF                     	;# 
  1225     0000                     	;# 
  1226     0001                     	;# 
  1227     0002                     	;# 
  1228     0003                     	;# 
  1229     0004                     	;# 
  1230     0005                     	;# 
  1231     0006                     	;# 
  1232     0007                     	;# 
  1233     0008                     	;# 
  1234     0009                     	;# 
  1235     000A                     	;# 
  1236     000B                     	;# 
  1237     000C                     	;# 
  1238     000D                     	;# 
  1239     000E                     	;# 
  1240     0010                     	;# 
  1241     0011                     	;# 
  1242     0012                     	;# 
  1243     0013                     	;# 
  1244     0015                     	;# 
  1245     0016                     	;# 
  1246     0016                     	;# 
  1247     0017                     	;# 
  1248     0018                     	;# 
  1249     0019                     	;# 
  1250     001A                     	;# 
  1251     001B                     	;# 
  1252     001C                     	;# 
  1253     001E                     	;# 
  1254     001F                     	;# 
  1255     008C                     	;# 
  1256     008D                     	;# 
  1257     008E                     	;# 
  1258     0090                     	;# 
  1259     0091                     	;# 
  1260     0092                     	;# 
  1261     0093                     	;# 
  1262     0095                     	;# 
  1263     0096                     	;# 
  1264     0097                     	;# 
  1265     0098                     	;# 
  1266     0099                     	;# 
  1267     009A                     	;# 
  1268     009B                     	;# 
  1269     009B                     	;# 
  1270     009C                     	;# 
  1271     009D                     	;# 
  1272     009E                     	;# 
  1273     010C                     	;# 
  1274     010D                     	;# 
  1275     010E                     	;# 
  1276     0110                     	;# 
  1277     0111                     	;# 
  1278     0112                     	;# 
  1279     0113                     	;# 
  1280     0114                     	;# 
  1281     0115                     	;# 
  1282     0116                     	;# 
  1283     0117                     	;# 
  1284     0118                     	;# 
  1285     0119                     	;# 
  1286     011A                     	;# 
  1287     011B                     	;# 
  1288     011D                     	;# 
  1289     018C                     	;# 
  1290     018D                     	;# 
  1291     0191                     	;# 
  1292     0191                     	;# 
  1293     0192                     	;# 
  1294     0193                     	;# 
  1295     0193                     	;# 
  1296     0193                     	;# 
  1297     0194                     	;# 
  1298     0195                     	;# 
  1299     0196                     	;# 
  1300     0199                     	;# 
  1301     019A                     	;# 
  1302     019B                     	;# 
  1303     019B                     	;# 
  1304     019B                     	;# 
  1305     019B                     	;# 
  1306     019C                     	;# 
  1307     019C                     	;# 
  1308     019D                     	;# 
  1309     019E                     	;# 
  1310     019F                     	;# 
  1311     020D                     	;# 
  1312     0210                     	;# 
  1313     0211                     	;# 
  1314     0212                     	;# 
  1315     0213                     	;# 
  1316     0214                     	;# 
  1317     0215                     	;# 
  1318     0215                     	;# 
  1319     0216                     	;# 
  1320     0217                     	;# 
  1321     0291                     	;# 
  1322     0291                     	;# 
  1323     0292                     	;# 
  1324     0293                     	;# 
  1325     0294                     	;# 
  1326     0295                     	;# 
  1327     0295                     	;# 
  1328     0296                     	;# 
  1329     0298                     	;# 
  1330     0298                     	;# 
  1331     0299                     	;# 
  1332     029A                     	;# 
  1333     029B                     	;# 
  1334     029C                     	;# 
  1335     029C                     	;# 
  1336     029D                     	;# 
  1337     029E                     	;# 
  1338     029F                     	;# 
  1339     0311                     	;# 
  1340     0311                     	;# 
  1341     0312                     	;# 
  1342     0313                     	;# 
  1343     0314                     	;# 
  1344     0315                     	;# 
  1345     0315                     	;# 
  1346     0316                     	;# 
  1347     0318                     	;# 
  1348     0318                     	;# 
  1349     0319                     	;# 
  1350     031A                     	;# 
  1351     031C                     	;# 
  1352     031C                     	;# 
  1353     031D                     	;# 
  1354     031E                     	;# 
  1355     0394                     	;# 
  1356     0395                     	;# 
  1357     0396                     	;# 
  1358     0415                     	;# 
  1359     0416                     	;# 
  1360     0417                     	;# 
  1361     041C                     	;# 
  1362     041D                     	;# 
  1363     041E                     	;# 
  1364     0791                     	;# 
  1365     0792                     	;# 
  1366     0793                     	;# 
  1367     0794                     	;# 
  1368     0795                     	;# 
  1369     0798                     	;# 
  1370     0799                     	;# 
  1371     07A0                     	;# 
  1372     07A1                     	;# 
  1373     07A3                     	;# 
  1374     07A4                     	;# 
  1375     07A6                     	;# 
  1376     07A7                     	;# 
  1377     07A9                     	;# 
  1378     07AA                     	;# 
  1379     0FE4                     	;# 
  1380     0FE5                     	;# 
  1381     0FE6                     	;# 
  1382     0FE7                     	;# 
  1383     0FE8                     	;# 
  1384     0FE9                     	;# 
  1385     0FEA                     	;# 
  1386     0FEB                     	;# 
  1387     0FED                     	;# 
  1388     0FEE                     	;# 
  1389     0FEF                     	;# 
  1390     0000                     	;# 
  1391     0001                     	;# 
  1392     0002                     	;# 
  1393     0003                     	;# 
  1394     0004                     	;# 
  1395     0005                     	;# 
  1396     0006                     	;# 
  1397     0007                     	;# 
  1398     0008                     	;# 
  1399     0009                     	;# 
  1400     000A                     	;# 
  1401     000B                     	;# 
  1402     000C                     	;# 
  1403     000D                     	;# 
  1404     000E                     	;# 
  1405     0010                     	;# 
  1406     0011                     	;# 
  1407     0012                     	;# 
  1408     0013                     	;# 
  1409     0015                     	;# 
  1410     0016                     	;# 
  1411     0016                     	;# 
  1412     0017                     	;# 
  1413     0018                     	;# 
  1414     0019                     	;# 
  1415     001A                     	;# 
  1416     001B                     	;# 
  1417     001C                     	;# 
  1418     001E                     	;# 
  1419     001F                     	;# 
  1420     008C                     	;# 
  1421     008D                     	;# 
  1422     008E                     	;# 
  1423     0090                     	;# 
  1424     0091                     	;# 
  1425     0092                     	;# 
  1426     0093                     	;# 
  1427     0095                     	;# 
  1428     0096                     	;# 
  1429     0097                     	;# 
  1430     0098                     	;# 
  1431     0099                     	;# 
  1432     009A                     	;# 
  1433     009B                     	;# 
  1434     009B                     	;# 
  1435     009C                     	;# 
  1436     009D                     	;# 
  1437     009E                     	;# 
  1438     010C                     	;# 
  1439     010D                     	;# 
  1440     010E                     	;# 
  1441     0110                     	;# 
  1442     0111                     	;# 
  1443     0112                     	;# 
  1444     0113                     	;# 
  1445     0114                     	;# 
  1446     0115                     	;# 
  1447     0116                     	;# 
  1448     0117                     	;# 
  1449     0118                     	;# 
  1450     0119                     	;# 
  1451     011A                     	;# 
  1452     011B                     	;# 
  1453     011D                     	;# 
  1454     018C                     	;# 
  1455     018D                     	;# 
  1456     0191                     	;# 
  1457     0191                     	;# 
  1458     0192                     	;# 
  1459     0193                     	;# 
  1460     0193                     	;# 
  1461     0193                     	;# 
  1462     0194                     	;# 
  1463     0195                     	;# 
  1464     0196                     	;# 
  1465     0199                     	;# 
  1466     019A                     	;# 
  1467     019B                     	;# 
  1468     019B                     	;# 
  1469     019B                     	;# 
  1470     019B                     	;# 
  1471     019C                     	;# 
  1472     019C                     	;# 
  1473     019D                     	;# 
  1474     019E                     	;# 
  1475     019F                     	;# 
  1476     020D                     	;# 
  1477     0210                     	;# 
  1478     0211                     	;# 
  1479     0212                     	;# 
  1480     0213                     	;# 
  1481     0214                     	;# 
  1482     0215                     	;# 
  1483     0215                     	;# 
  1484     0216                     	;# 
  1485     0217                     	;# 
  1486     0291                     	;# 
  1487     0291                     	;# 
  1488     0292                     	;# 
  1489     0293                     	;# 
  1490     0294                     	;# 
  1491     0295                     	;# 
  1492     0295                     	;# 
  1493     0296                     	;# 
  1494     0298                     	;# 
  1495     0298                     	;# 
  1496     0299                     	;# 
  1497     029A                     	;# 
  1498     029B                     	;# 
  1499     029C                     	;# 
  1500     029C                     	;# 
  1501     029D                     	;# 
  1502     029E                     	;# 
  1503     029F                     	;# 
  1504     0311                     	;# 
  1505     0311                     	;# 
  1506     0312                     	;# 
  1507     0313                     	;# 
  1508     0314                     	;# 
  1509     0315                     	;# 
  1510     0315                     	;# 
  1511     0316                     	;# 
  1512     0318                     	;# 
  1513     0318                     	;# 
  1514     0319                     	;# 
  1515     031A                     	;# 
  1516     031C                     	;# 
  1517     031C                     	;# 
  1518     031D                     	;# 
  1519     031E                     	;# 
  1520     0394                     	;# 
  1521     0395                     	;# 
  1522     0396                     	;# 
  1523     0415                     	;# 
  1524     0416                     	;# 
  1525     0417                     	;# 
  1526     041C                     	;# 
  1527     041D                     	;# 
  1528     041E                     	;# 
  1529     0791                     	;# 
  1530     0792                     	;# 
  1531     0793                     	;# 
  1532     0794                     	;# 
  1533     0795                     	;# 
  1534     0798                     	;# 
  1535     0799                     	;# 
  1536     07A0                     	;# 
  1537     07A1                     	;# 
  1538     07A3                     	;# 
  1539     07A4                     	;# 
  1540     07A6                     	;# 
  1541     07A7                     	;# 
  1542     07A9                     	;# 
  1543     07AA                     	;# 
  1544     0FE4                     	;# 
  1545     0FE5                     	;# 
  1546     0FE6                     	;# 
  1547     0FE7                     	;# 
  1548     0FE8                     	;# 
  1549     0FE9                     	;# 
  1550     0FEA                     	;# 
  1551     0FEB                     	;# 
  1552     0FED                     	;# 
  1553     0FEE                     	;# 
  1554     0FEF                     	;# 
  1555     000C                     _PORTAbits	set	12
  1556     000D                     _PORTBbits	set	13
  1557     000E                     _PORTCbits	set	14
  1558     0013                     _PIR3bits	set	19
  1559     001C                     _T2CON	set	28
  1560     0011                     _PIR1bits	set	17
  1561     001A                     _TMR2	set	26
  1562     001B                     _PR2	set	27
  1563     0089                     _TMR2IF	set	137
  1564     0097                     _WDTCON	set	151
  1565     0098                     _OSCTUNE	set	152
  1566     0099                     _OSCCON	set	153
  1567     0095                     _OPTION_REGbits	set	149
  1568     008E                     _TRISC	set	142
  1569     008D                     _TRISB	set	141
  1570     008C                     _TRISA	set	140
  1571     0090                     _TRISE	set	144
  1572     04D6                     _PLLR	set	1238
  1573     010E                     _LATCbits	set	270
  1574     010D                     _LATBbits	set	269
  1575     0116                     _BORCON	set	278
  1576     011D                     _APFCON	set	285
  1577     010E                     _LATC	set	270
  1578     010D                     _LATB	set	269
  1579     010C                     _LATA	set	268
  1580     0110                     _LATE	set	272
  1581     018C                     _ANSELA	set	396
  1582     018D                     _ANSELB	set	397
  1583     020D                     _WPUB	set	525
  1584     0210                     _WPUE	set	528
  1585     029F                     _CCPTMRS1bits	set	671
  1586     031D                     _CCPR5H	set	797
  1587     031C                     _CCPR5L	set	796
  1588     031E                     _CCP5CON	set	798
  1589     041E                     _T6CON	set	1054
  1590     041C                     _TMR6	set	1052
  1591     041D                     _PR6	set	1053
  1592                           
  1593                           	psect	cinit
  1594     07F5                     start_initialization:	
  1595                           ; #config settings
  1596                           
  1597     07F5                     __initialization:
  1598                           
  1599                           ; Clear objects allocated to BANK0
  1600     07F5  3020               	movlw	low __pbssBANK0
  1601     07F6  0084               	movwf	4
  1602     07F7  3000               	movlw	high __pbssBANK0
  1603     07F8  0085               	movwf	5
  1604     07F9  3011               	movlw	17
  1605     07FA  3183  2350  3187   	fcall	clear_ram0
  1606     07FD                     end_of_initialization:	
  1607                           ;End of C runtime variable initialization code
  1608                           
  1609     07FD                     __end_of__initialization:
  1610     07FD  0020               	movlb	0
  1611     07FE  3185  2DA7         	ljmp	_main	;jump to C main() function
  1612                           
  1613                           	psect	bssBANK0
  1614     0020                     __pbssBANK0:
  1615     0020                     _T1MS_cnt:
  1616     0020                     	ds	2
  1617     0022                     _i:
  1618     0022                     	ds	2
  1619     0024                     _T1MS_disable_cnt:
  1620     0024                     	ds	2
  1621     0026                     _fACC:
  1622     0026                     	ds	1
  1623     0027                     _fLoBeam:
  1624     0027                     	ds	1
  1625     0028                     _T5MS_cnt:
  1626     0028                     	ds	1
  1627     0029                     _T100us_cnt1:
  1628     0029                     	ds	1
  1629     002A                     _T100us_cnt:
  1630     002A                     	ds	1
  1631     002B                     _fPOS:
  1632     002B                     	ds	1
  1633     002C                     _fDRL:
  1634     002C                     	ds	1
  1635     002D                     _fWelcome:
  1636     002D                     	ds	1
  1637     002E                     _fTurn:
  1638     002E                     	ds	1
  1639     002F                     _T250MS_cnt:
  1640     002F                     	ds	1
  1641     0030                     _mode:
  1642     0030                     	ds	1
  1643                           
  1644                           	psect	clrtext
  1645     0350                     clear_ram0:	
  1646                           ;	Called with FSR0 containing the base address, and
  1647                           ;	WREG with the size to clear
  1648                           
  1649     0350  0064               	clrwdt	;clear the watchdog before getting into this loop
  1650     0351                     clrloop0:
  1651     0351  0180               	clrf	0	;clear RAM location pointed to by FSR
  1652     0352  3101               	addfsr 0,1
  1653     0353  0B89               	decfsz	9,f	;Have we reached the end of clearing yet?
  1654     0354  2B51               	goto	clrloop0	;have we reached the end yet?
  1655     0355  3400               	retlw	0	;all done for this memory range, return
  1656                           
  1657                           	psect	cstackCOMMON
  1658     0070                     __pcstackCOMMON:
  1659     0070                     ?_OSCILLATOR_Initialize:
  1660     0070                     ??_OSCILLATOR_Initialize:	
  1661                           ; 1 bytes @ 0x0
  1662                           
  1663     0070                     ?_WDT_Initialize:	
  1664                           ; 1 bytes @ 0x0
  1665                           
  1666     0070                     ??_WDT_Initialize:	
  1667                           ; 1 bytes @ 0x0
  1668                           
  1669     0070                     ?_TMR6_Initialize:	
  1670                           ; 1 bytes @ 0x0
  1671                           
  1672     0070                     ??_TMR6_Initialize:	
  1673                           ; 1 bytes @ 0x0
  1674                           
  1675     0070                     ?_PWM5_Initialize:	
  1676                           ; 1 bytes @ 0x0
  1677                           
  1678     0070                     ??_PWM5_Initialize:	
  1679                           ; 1 bytes @ 0x0
  1680                           
  1681     0070                     ?_TMR2_Initialize:	
  1682                           ; 1 bytes @ 0x0
  1683                           
  1684     0070                     ??_TMR2_Initialize:	
  1685                           ; 1 bytes @ 0x0
  1686                           
  1687     0070                     ?_LED_OFF:	
  1688                           ; 1 bytes @ 0x0
  1689                           
  1690     0070                     ?_LED_ON:	
  1691                           ; 1 bytes @ 0x0
  1692                           
  1693     0070                     ?_LED_SET_Gradually_ON:	
  1694                           ; 1 bytes @ 0x0
  1695                           
  1696     0070                     ?_WelcomeLight:	
  1697                           ; 1 bytes @ 0x0
  1698                           
  1699     0070                     ?_TrunLight:	
  1700                           ; 1 bytes @ 0x0
  1701                           
  1702     0070                     ?_Timer:	
  1703                           ; 1 bytes @ 0x0
  1704                           
  1705     0070                     ??_Timer:	
  1706                           ; 1 bytes @ 0x0
  1707                           
  1708     0070                     ?_CheckGPIO:	
  1709                           ; 1 bytes @ 0x0
  1710                           
  1711     0070                     ??_CheckGPIO:	
  1712                           ; 1 bytes @ 0x0
  1713                           
  1714     0070                     ?_DRL_Light:	
  1715                           ; 1 bytes @ 0x0
  1716                           
  1717     0070                     ?_POS_Light:	
  1718                           ; 1 bytes @ 0x0
  1719                           
  1720     0070                     ?_PIN_MANAGER_Initialize:	
  1721                           ; 1 bytes @ 0x0
  1722                           
  1723     0070                     ??_PIN_MANAGER_Initialize:	
  1724                           ; 1 bytes @ 0x0
  1725                           
  1726     0070                     ?_SYSTEM_Initialize:	
  1727                           ; 1 bytes @ 0x0
  1728                           
  1729     0070                     ??_SYSTEM_Initialize:	
  1730                           ; 1 bytes @ 0x0
  1731                           
  1732     0070                     ?_todo:	
  1733                           ; 1 bytes @ 0x0
  1734                           
  1735     0070                     ?_PWM_SendData:	
  1736                           ; 1 bytes @ 0x0
  1737                           
  1738     0070                     ??_PWM_SendData:	
  1739                           ; 1 bytes @ 0x0
  1740                           
  1741     0070                     ?_Streamer_SEG1_ON:	
  1742                           ; 1 bytes @ 0x0
  1743                           
  1744     0070                     ?_Streamer_SEG1_OFF:	
  1745                           ; 1 bytes @ 0x0
  1746                           
  1747     0070                     ?_Streamer_SEG2_ON:	
  1748                           ; 1 bytes @ 0x0
  1749                           
  1750     0070                     ?_main:	
  1751                           ; 1 bytes @ 0x0
  1752                           
  1753     0070                     PWM_SendData@InputData:	
  1754                           ; 2 bytes @ 0x0
  1755                           
  1756     0070                     WelcomeLight@InputData:	
  1757                           ; 1 bytes @ 0x0
  1758                           
  1759                           
  1760                           ; 1 bytes @ 0x0
  1761     0070                     	ds	1
  1762     0071                     ?_Delay_ms:
  1763     0071                     PWM_SendData@data:	
  1764                           ; 1 bytes @ 0x1
  1765                           
  1766     0071                     Delay_ms@input_ms:	
  1767                           ; 1 bytes @ 0x1
  1768                           
  1769                           
  1770                           ; 2 bytes @ 0x1
  1771     0071                     	ds	1
  1772     0072                     PWM_SendData@bitmask:
  1773                           
  1774                           ; 1 bytes @ 0x2
  1775     0072                     	ds	1
  1776     0073                     ??_Delay_ms:
  1777     0073                     ?_LED_SET:	
  1778                           ; 1 bytes @ 0x3
  1779                           
  1780     0073                     LED_SET@InputData:	
  1781                           ; 1 bytes @ 0x3
  1782                           
  1783     0073                     Delay_ms@ms:	
  1784                           ; 1 bytes @ 0x3
  1785                           
  1786                           
  1787                           ; 2 bytes @ 0x3
  1788     0073                     	ds	1
  1789     0074                     ??_LED_SET:
  1790                           
  1791                           ; 1 bytes @ 0x4
  1792     0074                     	ds	1
  1793     0075                     LED_SET@LED_num:
  1794                           
  1795                           ; 1 bytes @ 0x5
  1796     0075                     	ds	1
  1797     0076                     LED_SET@data:
  1798                           
  1799                           ; 1 bytes @ 0x6
  1800     0076                     	ds	1
  1801     0077                     LED_SET@num:
  1802                           
  1803                           ; 1 bytes @ 0x7
  1804     0077                     	ds	1
  1805     0078                     LED_SET@i:
  1806                           
  1807                           ; 1 bytes @ 0x8
  1808     0078                     	ds	1
  1809     0079                     ??_LED_OFF:
  1810     0079                     ??_LED_ON:	
  1811                           ; 1 bytes @ 0x9
  1812                           
  1813     0079                     ??_LED_SET_Gradually_ON:	
  1814                           ; 1 bytes @ 0x9
  1815                           
  1816     0079                     ??_TrunLight:	
  1817                           ; 1 bytes @ 0x9
  1818                           
  1819     0079                     ??_Streamer_SEG1_ON:	
  1820                           ; 1 bytes @ 0x9
  1821                           
  1822     0079                     ??_Streamer_SEG1_OFF:	
  1823                           ; 1 bytes @ 0x9
  1824                           
  1825     0079                     ??_Streamer_SEG2_ON:	
  1826                           ; 1 bytes @ 0x9
  1827                           
  1828     0079                     LED_ON@InputData:	
  1829                           ; 1 bytes @ 0x9
  1830                           
  1831                           
  1832                           ; 1 bytes @ 0x9
  1833     0079                     	ds	1
  1834     007A                     LED_ON@data:
  1835     007A                     LED_SET_Gradually_ON@InputData:	
  1836                           ; 1 bytes @ 0xA
  1837                           
  1838     007A                     Streamer_SEG1_ON@InputData:	
  1839                           ; 1 bytes @ 0xA
  1840                           
  1841     007A                     Streamer_SEG1_OFF@InputData:	
  1842                           ; 1 bytes @ 0xA
  1843                           
  1844     007A                     Streamer_SEG2_ON@InputData:	
  1845                           ; 1 bytes @ 0xA
  1846                           
  1847                           
  1848                           ; 1 bytes @ 0xA
  1849     007A                     	ds	1
  1850     007B                     ??_DRL_Light:
  1851     007B                     ??_POS_Light:	
  1852                           ; 1 bytes @ 0xB
  1853                           
  1854     007B                     Streamer_SEG1_ON@data:	
  1855                           ; 1 bytes @ 0xB
  1856                           
  1857     007B                     Streamer_SEG1_OFF@data:	
  1858                           ; 1 bytes @ 0xB
  1859                           
  1860     007B                     Streamer_SEG2_ON@data:	
  1861                           ; 1 bytes @ 0xB
  1862                           
  1863     007B                     LED_SET_Gradually_ON@j:	
  1864                           ; 1 bytes @ 0xB
  1865                           
  1866                           
  1867                           ; 2 bytes @ 0xB
  1868     007B                     	ds	1
  1869     007C                     Streamer_SEG1_ON@num:
  1870     007C                     Streamer_SEG1_OFF@num:	
  1871                           ; 1 bytes @ 0xC
  1872                           
  1873     007C                     Streamer_SEG2_ON@num:	
  1874                           ; 1 bytes @ 0xC
  1875                           
  1876                           
  1877                           ; 1 bytes @ 0xC
  1878     007C                     	ds	1
  1879     007D                     Streamer_SEG1_ON@j:
  1880     007D                     Streamer_SEG1_OFF@j:	
  1881                           ; 1 bytes @ 0xD
  1882                           
  1883     007D                     Streamer_SEG2_ON@j:	
  1884                           ; 1 bytes @ 0xD
  1885                           
  1886                           
  1887                           ; 1 bytes @ 0xD
  1888     007D                     	ds	1
  1889     007E                     ??_WelcomeLight:
  1890     007E                     ??_todo:	
  1891                           ; 1 bytes @ 0xE
  1892                           
  1893     007E                     ??_main:	
  1894                           ; 1 bytes @ 0xE
  1895                           
  1896                           
  1897                           	psect	cstackBANK0
  1898     0031                     __pcstackBANK0:	
  1899                           ; 1 bytes @ 0xE
  1900                           
  1901     0031                     TrunLight@InputData:
  1902                           
  1903                           ; 1 bytes @ 0x0
  1904     0031                     	ds	1
  1905     0032                     TrunLight@j:
  1906                           
  1907                           ; 1 bytes @ 0x1
  1908     0032                     	ds	1
  1909     0033                     TrunLight@data:
  1910                           
  1911                           ; 1 bytes @ 0x2
  1912     0033                     	ds	1
  1913     0034                     TrunLight@seg1_num:
  1914                           
  1915                           ; 1 bytes @ 0x3
  1916     0034                     	ds	1
  1917     0035                     TrunLight@seg2_num:
  1918                           
  1919                           ; 1 bytes @ 0x4
  1920     0035                     	ds	1
  1921                           
  1922                           	psect	maintext
  1923     05A7                     __pmaintext:	
  1924 ;;
  1925 ;;Main: autosize = 0, tempsize = 0, incstack = 0, save=0
  1926 ;;
  1927 ;; *************** function _main *****************
  1928 ;; Defined at:
  1929 ;;		line 215 in file "main.c"
  1930 ;; Parameters:    Size  Location     Type
  1931 ;;		None
  1932 ;; Auto vars:     Size  Location     Type
  1933 ;;		None
  1934 ;; Return value:  Size  Location     Type
  1935 ;;                  2  190[None  ] int 
  1936 ;; Registers used:
  1937 ;;		wreg, status,2, status,0, pclath, cstack
  1938 ;; Tracked objects:
  1939 ;;		On entry : B1F/0
  1940 ;;		On exit  : 0/0
  1941 ;;		Unchanged: 0/0
  1942 ;; Data sizes:     COMMON   BANK0   BANK1   BANK2   BANK3   BANK4   BANK5   BANK6
  1943 ;;      Params:         0       0       0       0       0       0       0       0
  1944 ;;      Locals:         0       0       0       0       0       0       0       0
  1945 ;;      Temps:          0       0       0       0       0       0       0       0
  1946 ;;      Totals:         0       0       0       0       0       0       0       0
  1947 ;;Total ram usage:        0 bytes
  1948 ;; Hardware stack levels required when called: 5
  1949 ;; This function calls:
  1950 ;;		_CheckGPIO
  1951 ;;		_DRL_Light
  1952 ;;		_Delay_ms
  1953 ;;		_LED_OFF
  1954 ;;		_POS_Light
  1955 ;;		_SYSTEM_Initialize
  1956 ;;		_Timer
  1957 ;;		_TrunLight
  1958 ;;		_WelcomeLight
  1959 ;;		_todo
  1960 ;; This function is called by:
  1961 ;;		Startup code after reset
  1962 ;; This function uses a non-reentrant model
  1963 ;;
  1964                           
  1965     05A7                     _main:	
  1966                           ;psect for function _main
  1967                           
  1968     05A7                     l2385:	
  1969                           ;incstack = 0
  1970                           ; Regs used in _main: [wreg+status,2+status,0+pclath+cstack]
  1971                           
  1972                           
  1973                           ;main.c: 217:   SYSTEM_Initialize();
  1974     05A7  3183  23A8  3185   	fcall	_SYSTEM_Initialize
  1975                           
  1976                           ;main.c: 219:   Delay_ms(2);
  1977     05AA  3002               	movlw	2
  1978     05AB  00F1               	movwf	Delay_ms@input_ms
  1979     05AC  3000               	movlw	0
  1980     05AD  00F2               	movwf	Delay_ms@input_ms+1
  1981     05AE  3183  23D1  3185   	fcall	_Delay_ms
  1982                           
  1983                           ;main.c: 220:   LED_OFF();
  1984     05B1  3183  2389  3185   	fcall	_LED_OFF
  1985                           
  1986                           ;main.c: 224:   todo();
  1987     05B4  3183  234B  3185   	fcall	_todo
  1988     05B7                     l191:	
  1989                           ;main.c: 225:   while (1) {
  1990                           
  1991                           
  1992                           ;main.c: 226:     Timer();
  1993     05B7  3185  255F  3185   	fcall	_Timer
  1994     05BA                     l2387:
  1995                           
  1996                           ;main.c: 227:     if(fTurn==1){
  1997     05BA  0020               	movlb	0	; select bank0
  1998     05BB  032E               	decf	_fTurn,w
  1999     05BC  1D03               	btfss	3,2
  2000     05BD  2DBF               	goto	u1511
  2001     05BE  2DC0               	goto	u1510
  2002     05BF                     u1511:
  2003     05BF  2DC4               	goto	l2391
  2004     05C0                     u1510:
  2005     05C0                     l2389:
  2006                           
  2007                           ;main.c: 228:       TrunLight(25);
  2008     05C0  3019               	movlw	25
  2009     05C1  3186  26EC  3185   	fcall	_TrunLight
  2010     05C4                     l2391:
  2011                           
  2012                           ;main.c: 231:     if(T1MS_disable_cnt==0){
  2013     05C4  0020               	movlb	0	; select bank0
  2014     05C5  0824               	movf	_T1MS_disable_cnt,w
  2015     05C6  0425               	iorwf	_T1MS_disable_cnt+1,w
  2016     05C7  1D03               	btfss	3,2
  2017     05C8  2DCA               	goto	u1521
  2018     05C9  2DCB               	goto	u1520
  2019     05CA                     u1521:
  2020     05CA  2DD4               	goto	l2397
  2021     05CB                     u1520:
  2022     05CB                     l2393:
  2023                           
  2024                           ;main.c: 232:       if(fWelcome==1){
  2025     05CB  032D               	decf	_fWelcome,w
  2026     05CC  1D03               	btfss	3,2
  2027     05CD  2DCF               	goto	u1531
  2028     05CE  2DD0               	goto	u1530
  2029     05CF                     u1531:
  2030     05CF  2DD4               	goto	l2397
  2031     05D0                     u1530:
  2032     05D0                     l2395:
  2033                           
  2034                           ;main.c: 233:         WelcomeLight(255);
  2035     05D0  30FF               	movlw	255
  2036     05D1  3185  25FD  3185   	fcall	_WelcomeLight
  2037     05D4                     l2397:
  2038                           
  2039                           ;main.c: 237:      if(T1MS_disable_cnt==0){
  2040     05D4  0020               	movlb	0	; select bank0
  2041     05D5  0824               	movf	_T1MS_disable_cnt,w
  2042     05D6  0425               	iorwf	_T1MS_disable_cnt+1,w
  2043     05D7  1D03               	btfss	3,2
  2044     05D8  2DDA               	goto	u1541
  2045     05D9  2DDB               	goto	u1540
  2046     05DA                     u1541:
  2047     05DA  2DE7               	goto	l2405
  2048     05DB                     u1540:
  2049     05DB                     l2399:
  2050                           
  2051                           ;main.c: 238:        CheckGPIO();
  2052     05DB  3183  2396  3185   	fcall	_CheckGPIO
  2053     05DE                     l2401:
  2054                           
  2055                           ;main.c: 239:        if(fDRL==1){
  2056     05DE  0020               	movlb	0	; select bank0
  2057     05DF  032C               	decf	_fDRL,w
  2058     05E0  1D03               	btfss	3,2
  2059     05E1  2DE3               	goto	u1551
  2060     05E2  2DE4               	goto	u1550
  2061     05E3                     u1551:
  2062     05E3  2DE7               	goto	l2405
  2063     05E4                     u1550:
  2064     05E4                     l2403:
  2065                           
  2066                           ;main.c: 240:          DRL_Light();
  2067     05E4  3183  23E8  3185   	fcall	_DRL_Light
  2068     05E7                     l2405:
  2069                           
  2070                           ;main.c: 244:      if(T1MS_disable_cnt==0){
  2071     05E7  0020               	movlb	0	; select bank0
  2072     05E8  0824               	movf	_T1MS_disable_cnt,w
  2073     05E9  0425               	iorwf	_T1MS_disable_cnt+1,w
  2074     05EA  1D03               	btfss	3,2
  2075     05EB  2DED               	goto	u1561
  2076     05EC  2DEE               	goto	u1560
  2077     05ED                     u1561:
  2078     05ED  2DB7               	goto	l191
  2079     05EE                     u1560:
  2080     05EE                     l2407:
  2081                           
  2082                           ;main.c: 245:        CheckGPIO();
  2083     05EE  3183  2396  3185   	fcall	_CheckGPIO
  2084     05F1                     l2409:
  2085                           
  2086                           ;main.c: 246:        if(fPOS==1){
  2087     05F1  0020               	movlb	0	; select bank0
  2088     05F2  032B               	decf	_fPOS,w
  2089     05F3  1D03               	btfss	3,2
  2090     05F4  2DF6               	goto	u1571
  2091     05F5  2DF7               	goto	u1570
  2092     05F6                     u1571:
  2093     05F6  2DB7               	goto	l191
  2094     05F7                     u1570:
  2095     05F7                     l2411:
  2096                           
  2097                           ;main.c: 247:          POS_Light();
  2098     05F7  3184  2400  3185   	fcall	_POS_Light
  2099     05FA  2DB7               	goto	l191
  2100     05FB  3180  2802         	ljmp	start
  2101     05FD                     __end_of_main:
  2102                           
  2103                           	psect	text1
  2104     034B                     __ptext1:	
  2105 ;; *************** function _todo *****************
  2106 ;; Defined at:
  2107 ;;		line 202 in file "main.c"
  2108 ;; Parameters:    Size  Location     Type
  2109 ;;		None
  2110 ;; Auto vars:     Size  Location     Type
  2111 ;;  i               1    0        unsigned char 
  2112 ;; Return value:  Size  Location     Type
  2113 ;;                  1    wreg      void 
  2114 ;; Registers used:
  2115 ;;		wreg, status,2, status,0, pclath, cstack
  2116 ;; Tracked objects:
  2117 ;;		On entry : 0/0
  2118 ;;		On exit  : 0/0
  2119 ;;		Unchanged: 0/0
  2120 ;; Data sizes:     COMMON   BANK0   BANK1   BANK2   BANK3   BANK4   BANK5   BANK6
  2121 ;;      Params:         0       0       0       0       0       0       0       0
  2122 ;;      Locals:         0       0       0       0       0       0       0       0
  2123 ;;      Temps:          0       0       0       0       0       0       0       0
  2124 ;;      Totals:         0       0       0       0       0       0       0       0
  2125 ;;Total ram usage:        0 bytes
  2126 ;; Hardware stack levels used: 1
  2127 ;; Hardware stack levels required when called: 4
  2128 ;; This function calls:
  2129 ;;		_LED_SET_Gradually_ON
  2130 ;;		_TrunLight
  2131 ;;		_WelcomeLight
  2132 ;; This function is called by:
  2133 ;;		_main
  2134 ;; This function uses a non-reentrant model
  2135 ;;
  2136                           
  2137     034B                     _todo:	
  2138                           ;psect for function _todo
  2139                           
  2140     034B                     l2371:	
  2141                           ;incstack = 0
  2142                           ; Regs used in _todo: [wreg+status,2+status,0+pclath+cstack]
  2143                           
  2144     034B                     l186:
  2145     034B  0008               	return
  2146     034C                     __end_of_todo:
  2147                           
  2148                           	psect	text2
  2149     05FD                     __ptext2:	
  2150 ;; *************** function _WelcomeLight *****************
  2151 ;; Defined at:
  2152 ;;		line 191 in file "PWM.c"
  2153 ;; Parameters:    Size  Location     Type
  2154 ;;  InputData       1    wreg     unsigned char 
  2155 ;; Auto vars:     Size  Location     Type
  2156 ;;  InputData       1    0[COMMON] unsigned char 
  2157 ;; Return value:  Size  Location     Type
  2158 ;;                  1    wreg      void 
  2159 ;; Registers used:
  2160 ;;		wreg, status,2, status,0, pclath, cstack
  2161 ;; Tracked objects:
  2162 ;;		On entry : 0/0
  2163 ;;		On exit  : 0/0
  2164 ;;		Unchanged: 0/0
  2165 ;; Data sizes:     COMMON   BANK0   BANK1   BANK2   BANK3   BANK4   BANK5   BANK6
  2166 ;;      Params:         0       0       0       0       0       0       0       0
  2167 ;;      Locals:         0       0       0       0       0       0       0       0
  2168 ;;      Temps:          0       0       0       0       0       0       0       0
  2169 ;;      Totals:         0       0       0       0       0       0       0       0
  2170 ;;Total ram usage:        0 bytes
  2171 ;; Hardware stack levels used: 1
  2172 ;; Hardware stack levels required when called: 3
  2173 ;; This function calls:
  2174 ;;		_Delay_ms
  2175 ;;		_LED_OFF
  2176 ;;		_LED_ON
  2177 ;;		_LED_SET_Gradually_ON
  2178 ;;		_Streamer_SEG1_OFF
  2179 ;;		_Streamer_SEG1_ON
  2180 ;;		_Streamer_SEG2_ON
  2181 ;; This function is called by:
  2182 ;;		_todo
  2183 ;;		_main
  2184 ;; This function uses a non-reentrant model
  2185 ;;
  2186                           
  2187     05FD                     _WelcomeLight:	
  2188                           ;psect for function _WelcomeLight
  2189                           
  2190     05FD                     l2301:	
  2191                           ;incstack = 0
  2192                           ; Regs used in _WelcomeLight: [wreg+status,2+status,0+pclath+cstack]
  2193                           
  2194                           
  2195                           ;PWM.c: 192:   fWelcome=0;
  2196     05FD  0020               	movlb	0	; select bank0
  2197     05FE  01AD               	clrf	_fWelcome
  2198     05FF                     l2303:
  2199                           
  2200                           ;PWM.c: 194:   LATCbits.LATC5 = 1;
  2201     05FF  0022               	movlb	2	; select bank2
  2202     0600  168E               	bsf	14,5	;volatile
  2203     0601                     l2305:
  2204                           
  2205                           ;PWM.c: 195:   LATCbits.LATC4 = 0;
  2206     0601  120E               	bcf	14,4	;volatile
  2207     0602                     l2307:
  2208                           
  2209                           ;PWM.c: 198:   Delay_ms(2);
  2210     0602  3002               	movlw	2
  2211     0603  00F1               	movwf	Delay_ms@input_ms
  2212     0604  3000               	movlw	0
  2213     0605  00F2               	movwf	Delay_ms@input_ms+1
  2214     0606  3183  23D1  3185   	fcall	_Delay_ms
  2215     0609                     l2309:
  2216                           
  2217                           ;PWM.c: 200:   if(!fTurn){
  2218     0609  0020               	movlb	0	; select bank0
  2219     060A  082E               	movf	_fTurn,w
  2220     060B  1D03               	btfss	3,2
  2221     060C  2E0E               	goto	u1381
  2222     060D  2E0F               	goto	u1380
  2223     060E                     u1381:
  2224     060E  2E14               	goto	l298
  2225     060F                     u1380:
  2226     060F                     l2311:
  2227                           
  2228                           ;PWM.c: 201:     Streamer_SEG1_ON(255);
  2229     060F  30FF               	movlw	255
  2230     0610  3184  24D7  3185   	fcall	_Streamer_SEG1_ON
  2231                           
  2232                           ;PWM.c: 202:   }
  2233     0613  2E16               	goto	l2313
  2234     0614                     l298:	
  2235                           ;PWM.c: 203:   else{
  2236                           
  2237                           
  2238                           ;PWM.c: 204:     LATCbits.LATC5 = 0;
  2239     0614  0022               	movlb	2	; select bank2
  2240     0615  128E               	bcf	14,5	;volatile
  2241     0616                     l2313:
  2242                           
  2243                           ;PWM.c: 207:   i=250;
  2244     0616  30FA               	movlw	250
  2245     0617  0020               	movlb	0	; select bank0
  2246     0618  00A2               	movwf	_i
  2247     0619  3000               	movlw	0
  2248     061A  00A3               	movwf	_i+1
  2249                           
  2250                           ;PWM.c: 208:   while(i--&& !fTurn){
  2251     061B  2E23               	goto	l2317
  2252     061C                     l2315:
  2253                           
  2254                           ;PWM.c: 209:     Delay_ms(1);
  2255     061C  3001               	movlw	1
  2256     061D  00F1               	movwf	Delay_ms@input_ms
  2257     061E  3000               	movlw	0
  2258     061F  00F2               	movwf	Delay_ms@input_ms+1
  2259     0620  3183  23D1  3185   	fcall	_Delay_ms
  2260     0623                     l2317:
  2261                           
  2262                           ;PWM.c: 208:   while(i--&& !fTurn){
  2263     0623  3001               	movlw	1
  2264     0624  0020               	movlb	0	; select bank0
  2265     0625  02A2               	subwf	_i,f
  2266     0626  3000               	movlw	0
  2267     0627  3BA3               	subwfb	_i+1,f
  2268     0628  0A22               	incf	_i,w
  2269     0629  1D03               	skipz
  2270     062A  2E30               	goto	u1390
  2271     062B  0A23               	incf	_i+1,w
  2272     062C  1903               	btfsc	3,2
  2273     062D  2E2F               	goto	u1391
  2274     062E  2E30               	goto	u1390
  2275     062F                     u1391:
  2276     062F  2E35               	goto	l2321
  2277     0630                     u1390:
  2278     0630                     l2319:
  2279     0630  082E               	movf	_fTurn,w
  2280     0631  1903               	btfsc	3,2
  2281     0632  2E34               	goto	u1401
  2282     0633  2E35               	goto	u1400
  2283     0634                     u1401:
  2284     0634  2E1C               	goto	l2315
  2285     0635                     u1400:
  2286     0635                     l2321:
  2287                           
  2288                           ;PWM.c: 211:   if(!fTurn){
  2289     0635  082E               	movf	_fTurn,w
  2290     0636  1D03               	btfss	3,2
  2291     0637  2E39               	goto	u1411
  2292     0638  2E3A               	goto	u1410
  2293     0639                     u1411:
  2294     0639  2E3F               	goto	l305
  2295     063A                     u1410:
  2296     063A                     l2323:
  2297                           
  2298                           ;PWM.c: 212:     Streamer_SEG1_OFF(255);
  2299     063A  30FF               	movlw	255
  2300     063B  3184  2493  3185   	fcall	_Streamer_SEG1_OFF
  2301                           
  2302                           ;PWM.c: 213:   }else{
  2303     063E  2E41               	goto	l2325
  2304     063F                     l305:
  2305                           
  2306                           ;PWM.c: 214:     LATCbits.LATC5 = 0;
  2307     063F  0022               	movlb	2	; select bank2
  2308     0640  128E               	bcf	14,5	;volatile
  2309     0641                     l2325:
  2310                           
  2311                           ;PWM.c: 217:   i=250;
  2312     0641  30FA               	movlw	250
  2313     0642  0020               	movlb	0	; select bank0
  2314     0643  00A2               	movwf	_i
  2315     0644  3000               	movlw	0
  2316     0645  00A3               	movwf	_i+1
  2317                           
  2318                           ;PWM.c: 218:   while(i--&& !fTurn){
  2319     0646  2E4E               	goto	l2329
  2320     0647                     l2327:
  2321                           
  2322                           ;PWM.c: 219:     Delay_ms(1);
  2323     0647  3001               	movlw	1
  2324     0648  00F1               	movwf	Delay_ms@input_ms
  2325     0649  3000               	movlw	0
  2326     064A  00F2               	movwf	Delay_ms@input_ms+1
  2327     064B  3183  23D1  3185   	fcall	_Delay_ms
  2328     064E                     l2329:
  2329                           
  2330                           ;PWM.c: 218:   while(i--&& !fTurn){
  2331     064E  3001               	movlw	1
  2332     064F  0020               	movlb	0	; select bank0
  2333     0650  02A2               	subwf	_i,f
  2334     0651  3000               	movlw	0
  2335     0652  3BA3               	subwfb	_i+1,f
  2336     0653  0A22               	incf	_i,w
  2337     0654  1D03               	skipz
  2338     0655  2E5B               	goto	u1420
  2339     0656  0A23               	incf	_i+1,w
  2340     0657  1903               	btfsc	3,2
  2341     0658  2E5A               	goto	u1421
  2342     0659  2E5B               	goto	u1420
  2343     065A                     u1421:
  2344     065A  2E60               	goto	l2333
  2345     065B                     u1420:
  2346     065B                     l2331:
  2347     065B  082E               	movf	_fTurn,w
  2348     065C  1903               	btfsc	3,2
  2349     065D  2E5F               	goto	u1431
  2350     065E  2E60               	goto	u1430
  2351     065F                     u1431:
  2352     065F  2E47               	goto	l2327
  2353     0660                     u1430:
  2354     0660                     l2333:
  2355                           
  2356                           ;PWM.c: 221:   if(!fTurn){
  2357     0660  082E               	movf	_fTurn,w
  2358     0661  1D03               	btfss	3,2
  2359     0662  2E64               	goto	u1441
  2360     0663  2E65               	goto	u1440
  2361     0664                     u1441:
  2362     0664  2E6A               	goto	l312
  2363     0665                     u1440:
  2364     0665                     l2335:
  2365                           
  2366                           ;PWM.c: 222:     Streamer_SEG2_ON(255);
  2367     0665  30FF               	movlw	255
  2368     0666  3185  251B  3185   	fcall	_Streamer_SEG2_ON
  2369                           
  2370                           ;PWM.c: 223:   }else{
  2371     0669  2E6C               	goto	l2337
  2372     066A                     l312:
  2373                           
  2374                           ;PWM.c: 224:     LATCbits.LATC5 = 0;
  2375     066A  0022               	movlb	2	; select bank2
  2376     066B  128E               	bcf	14,5	;volatile
  2377     066C                     l2337:
  2378                           
  2379                           ;PWM.c: 227:   i=250;
  2380     066C  30FA               	movlw	250
  2381     066D  0020               	movlb	0	; select bank0
  2382     066E  00A2               	movwf	_i
  2383     066F  3000               	movlw	0
  2384     0670  00A3               	movwf	_i+1
  2385                           
  2386                           ;PWM.c: 228:   while(i--&& !fTurn){
  2387     0671  2E79               	goto	l2341
  2388     0672                     l2339:
  2389                           
  2390                           ;PWM.c: 229:     Delay_ms(1);
  2391     0672  3001               	movlw	1
  2392     0673  00F1               	movwf	Delay_ms@input_ms
  2393     0674  3000               	movlw	0
  2394     0675  00F2               	movwf	Delay_ms@input_ms+1
  2395     0676  3183  23D1  3185   	fcall	_Delay_ms
  2396     0679                     l2341:
  2397                           
  2398                           ;PWM.c: 228:   while(i--&& !fTurn){
  2399     0679  3001               	movlw	1
  2400     067A  0020               	movlb	0	; select bank0
  2401     067B  02A2               	subwf	_i,f
  2402     067C  3000               	movlw	0
  2403     067D  3BA3               	subwfb	_i+1,f
  2404     067E  0A22               	incf	_i,w
  2405     067F  1D03               	skipz
  2406     0680  2E86               	goto	u1450
  2407     0681  0A23               	incf	_i+1,w
  2408     0682  1903               	btfsc	3,2
  2409     0683  2E85               	goto	u1451
  2410     0684  2E86               	goto	u1450
  2411     0685                     u1451:
  2412     0685  2E8B               	goto	l2345
  2413     0686                     u1450:
  2414     0686                     l2343:
  2415     0686  082E               	movf	_fTurn,w
  2416     0687  1903               	btfsc	3,2
  2417     0688  2E8A               	goto	u1461
  2418     0689  2E8B               	goto	u1460
  2419     068A                     u1461:
  2420     068A  2E72               	goto	l2339
  2421     068B                     u1460:
  2422     068B                     l2345:
  2423                           
  2424                           ;PWM.c: 232:   LED_OFF();
  2425     068B  3183  2389  3185   	fcall	_LED_OFF
  2426                           
  2427                           ;PWM.c: 233:   Delay_ms(2);
  2428     068E  3002               	movlw	2
  2429     068F  00F1               	movwf	Delay_ms@input_ms
  2430     0690  3000               	movlw	0
  2431     0691  00F2               	movwf	Delay_ms@input_ms+1
  2432     0692  3183  23D1  3185   	fcall	_Delay_ms
  2433     0695                     l2347:
  2434                           
  2435                           ;PWM.c: 235:   if(!fTurn){
  2436     0695  0020               	movlb	0	; select bank0
  2437     0696  082E               	movf	_fTurn,w
  2438     0697  1D03               	btfss	3,2
  2439     0698  2E9A               	goto	u1471
  2440     0699  2E9B               	goto	u1470
  2441     069A                     u1471:
  2442     069A  2EA0               	goto	l319
  2443     069B                     u1470:
  2444     069B                     l2349:
  2445                           
  2446                           ;PWM.c: 236:     LED_SET_Gradually_ON(255);
  2447     069B  30FF               	movlw	255
  2448     069C  3184  2459  3185   	fcall	_LED_SET_Gradually_ON
  2449                           
  2450                           ;PWM.c: 237:   }else{
  2451     069F  2EA2               	goto	l2351
  2452     06A0                     l319:
  2453                           
  2454                           ;PWM.c: 238:     LATCbits.LATC5 = 0;
  2455     06A0  0022               	movlb	2	; select bank2
  2456     06A1  128E               	bcf	14,5	;volatile
  2457     06A2                     l2351:
  2458                           
  2459                           ;PWM.c: 240:   LED_OFF();
  2460     06A2  3183  2389  3185   	fcall	_LED_OFF
  2461                           
  2462                           ;PWM.c: 241:   Delay_ms(2);
  2463     06A5  3002               	movlw	2
  2464     06A6  00F1               	movwf	Delay_ms@input_ms
  2465     06A7  3000               	movlw	0
  2466     06A8  00F2               	movwf	Delay_ms@input_ms+1
  2467     06A9  3183  23D1  3185   	fcall	_Delay_ms
  2468     06AC                     l2353:
  2469                           
  2470                           ;PWM.c: 244:   if(!fTurn){
  2471     06AC  0020               	movlb	0	; select bank0
  2472     06AD  082E               	movf	_fTurn,w
  2473     06AE  1D03               	btfss	3,2
  2474     06AF  2EB1               	goto	u1481
  2475     06B0  2EB2               	goto	u1480
  2476     06B1                     u1481:
  2477     06B1  2EBA               	goto	l321
  2478     06B2                     u1480:
  2479     06B2                     l2355:
  2480                           
  2481                           ;PWM.c: 245:     LATCbits.LATC5 = 0;
  2482     06B2  0022               	movlb	2	; select bank2
  2483     06B3  128E               	bcf	14,5	;volatile
  2484                           
  2485                           ;PWM.c: 246:     LATCbits.LATC4 = 1;
  2486     06B4  160E               	bsf	14,4	;volatile
  2487     06B5                     l2357:
  2488                           
  2489                           ;PWM.c: 247:     LED_ON(255);
  2490     06B5  30FF               	movlw	255
  2491     06B6  3183  235E  3185   	fcall	_LED_ON
  2492                           
  2493                           ;PWM.c: 248:   }else{
  2494     06B9  2EBD               	goto	l2359
  2495     06BA                     l321:
  2496                           
  2497                           ;PWM.c: 249:     LATCbits.LATC5 = 0;
  2498     06BA  0022               	movlb	2	; select bank2
  2499     06BB  128E               	bcf	14,5	;volatile
  2500                           
  2501                           ;PWM.c: 250:     LATCbits.LATC4 = 0;
  2502     06BC  120E               	bcf	14,4	;volatile
  2503     06BD                     l2359:
  2504                           
  2505                           ;PWM.c: 253:   i=15000;
  2506     06BD  3098               	movlw	152
  2507     06BE  0020               	movlb	0	; select bank0
  2508     06BF  00A2               	movwf	_i
  2509     06C0  303A               	movlw	58
  2510     06C1  00A3               	movwf	_i+1
  2511                           
  2512                           ;PWM.c: 254:   while(i--&& !fTurn){
  2513     06C2  2ECA               	goto	l2363
  2514     06C3                     l2361:
  2515                           
  2516                           ;PWM.c: 255:     Delay_ms(1);
  2517     06C3  3001               	movlw	1
  2518     06C4  00F1               	movwf	Delay_ms@input_ms
  2519     06C5  3000               	movlw	0
  2520     06C6  00F2               	movwf	Delay_ms@input_ms+1
  2521     06C7  3183  23D1  3185   	fcall	_Delay_ms
  2522     06CA                     l2363:
  2523                           
  2524                           ;PWM.c: 254:   while(i--&& !fTurn){
  2525     06CA  3001               	movlw	1
  2526     06CB  0020               	movlb	0	; select bank0
  2527     06CC  02A2               	subwf	_i,f
  2528     06CD  3000               	movlw	0
  2529     06CE  3BA3               	subwfb	_i+1,f
  2530     06CF  0A22               	incf	_i,w
  2531     06D0  1D03               	skipz
  2532     06D1  2ED7               	goto	u1490
  2533     06D2  0A23               	incf	_i+1,w
  2534     06D3  1903               	btfsc	3,2
  2535     06D4  2ED6               	goto	u1491
  2536     06D5  2ED7               	goto	u1490
  2537     06D6                     u1491:
  2538     06D6  2EDC               	goto	l2367
  2539     06D7                     u1490:
  2540     06D7                     l2365:
  2541     06D7  082E               	movf	_fTurn,w
  2542     06D8  1903               	btfsc	3,2
  2543     06D9  2EDB               	goto	u1501
  2544     06DA  2EDC               	goto	u1500
  2545     06DB                     u1501:
  2546     06DB  2EC3               	goto	l2361
  2547     06DC                     u1500:
  2548     06DC                     l2367:
  2549                           
  2550                           ;PWM.c: 258:   LED_OFF();
  2551     06DC  3183  2389  3185   	fcall	_LED_OFF
  2552                           
  2553                           ;PWM.c: 259:   Delay_ms(1);
  2554     06DF  3001               	movlw	1
  2555     06E0  00F1               	movwf	Delay_ms@input_ms
  2556     06E1  3000               	movlw	0
  2557     06E2  00F2               	movwf	Delay_ms@input_ms+1
  2558     06E3  3183  23D1  3185   	fcall	_Delay_ms
  2559     06E6                     l2369:
  2560                           
  2561                           ;PWM.c: 260:   T1MS_disable_cnt=600;
  2562     06E6  3058               	movlw	88
  2563     06E7  0020               	movlb	0	; select bank0
  2564     06E8  00A4               	movwf	_T1MS_disable_cnt
  2565     06E9  3002               	movlw	2
  2566     06EA  00A5               	movwf	_T1MS_disable_cnt+1
  2567     06EB                     l328:
  2568     06EB  0008               	return
  2569     06EC                     __end_of_WelcomeLight:
  2570                           
  2571                           	psect	text3
  2572     051B                     __ptext3:	
  2573 ;; *************** function _Streamer_SEG2_ON *****************
  2574 ;; Defined at:
  2575 ;;		line 156 in file "PWM.c"
  2576 ;; Parameters:    Size  Location     Type
  2577 ;;  InputData       1    wreg     unsigned char 
  2578 ;; Auto vars:     Size  Location     Type
  2579 ;;  InputData       1   10[COMMON] unsigned char 
  2580 ;;  j               1   13[COMMON] unsigned char 
  2581 ;;  num             1   12[COMMON] unsigned char 
  2582 ;;  data            1   11[COMMON] unsigned char 
  2583 ;; Return value:  Size  Location     Type
  2584 ;;                  1    wreg      void 
  2585 ;; Registers used:
  2586 ;;		wreg, status,2, status,0, pclath, cstack
  2587 ;; Tracked objects:
  2588 ;;		On entry : 0/0
  2589 ;;		On exit  : 0/0
  2590 ;;		Unchanged: 0/0
  2591 ;; Data sizes:     COMMON   BANK0   BANK1   BANK2   BANK3   BANK4   BANK5   BANK6
  2592 ;;      Params:         0       0       0       0       0       0       0       0
  2593 ;;      Locals:         4       0       0       0       0       0       0       0
  2594 ;;      Temps:          1       0       0       0       0       0       0       0
  2595 ;;      Totals:         5       0       0       0       0       0       0       0
  2596 ;;Total ram usage:        5 bytes
  2597 ;; Hardware stack levels used: 1
  2598 ;; Hardware stack levels required when called: 2
  2599 ;; This function calls:
  2600 ;;		_Delay_ms
  2601 ;;		_LED_SET
  2602 ;; This function is called by:
  2603 ;;		_WelcomeLight
  2604 ;; This function uses a non-reentrant model
  2605 ;;
  2606                           
  2607     051B                     _Streamer_SEG2_ON:	
  2608                           ;psect for function _Streamer_SEG2_ON
  2609                           
  2610                           
  2611                           ;incstack = 0
  2612                           ; Regs used in _Streamer_SEG2_ON: [wreg+status,2+status,0+pclath+cstack]
  2613                           ;Streamer_SEG2_ON@InputData stored from wreg
  2614     051B  00FA               	movwf	Streamer_SEG2_ON@InputData
  2615     051C                     l1811:
  2616                           
  2617                           ;PWM.c: 157:   uint8_t data = InputData;
  2618     051C  087A               	movf	Streamer_SEG2_ON@InputData,w
  2619     051D  00FB               	movwf	Streamer_SEG2_ON@data
  2620     051E                     l1813:
  2621                           
  2622                           ;PWM.c: 158:   uint8_t num = 0;
  2623     051E  01FC               	clrf	Streamer_SEG2_ON@num
  2624     051F                     l1815:
  2625                           
  2626                           ;PWM.c: 160:   for (uint8_t j = 0; j < (2 * 3); j++) {
  2627     051F  01FD               	clrf	Streamer_SEG2_ON@j
  2628     0520                     l1819:
  2629                           
  2630                           ;PWM.c: 162:     LED_SET((4 * 3), 0x00);
  2631     0520  01F3               	clrf	LED_SET@InputData
  2632     0521  300C               	movlw	12
  2633     0522  3183  23BB  3185   	fcall	_LED_SET
  2634     0525                     l1821:
  2635                           
  2636                           ;PWM.c: 164:     num += 1;
  2637     0525  3001               	movlw	1
  2638     0526  00F9               	movwf	??_Streamer_SEG2_ON
  2639     0527  0879               	movf	??_Streamer_SEG2_ON,w
  2640     0528  07FC               	addwf	Streamer_SEG2_ON@num,f
  2641     0529                     l1823:
  2642                           
  2643                           ;PWM.c: 165:     LED_SET(num, data);
  2644     0529  087B               	movf	Streamer_SEG2_ON@data,w
  2645     052A  00F3               	movwf	LED_SET@InputData
  2646     052B  087C               	movf	Streamer_SEG2_ON@num,w
  2647     052C  3183  23BB  3185   	fcall	_LED_SET
  2648     052F                     l1825:
  2649                           
  2650                           ;PWM.c: 166:     LED_SET((2 * 3) - num, 0x00);
  2651     052F  01F3               	clrf	LED_SET@InputData
  2652     0530  087C               	movf	Streamer_SEG2_ON@num,w
  2653     0531  3C06               	sublw	6
  2654     0532  3183  23BB  3185   	fcall	_LED_SET
  2655     0535                     l1827:
  2656                           
  2657                           ;PWM.c: 168:     i=75;
  2658     0535  304B               	movlw	75
  2659     0536  0020               	movlb	0	; select bank0
  2660     0537  00A2               	movwf	_i
  2661     0538  3000               	movlw	0
  2662     0539  00A3               	movwf	_i+1
  2663                           
  2664                           ;PWM.c: 169:     while(i--&& !fTurn){
  2665     053A  2D42               	goto	l1831
  2666     053B                     l1829:
  2667                           
  2668                           ;PWM.c: 170:       Delay_ms(1);
  2669     053B  3001               	movlw	1
  2670     053C  00F1               	movwf	Delay_ms@input_ms
  2671     053D  3000               	movlw	0
  2672     053E  00F2               	movwf	Delay_ms@input_ms+1
  2673     053F  3183  23D1  3185   	fcall	_Delay_ms
  2674     0542                     l1831:
  2675                           
  2676                           ;PWM.c: 169:     while(i--&& !fTurn){
  2677     0542  3001               	movlw	1
  2678     0543  0020               	movlb	0	; select bank0
  2679     0544  02A2               	subwf	_i,f
  2680     0545  3000               	movlw	0
  2681     0546  3BA3               	subwfb	_i+1,f
  2682     0547  0A22               	incf	_i,w
  2683     0548  1D03               	skipz
  2684     0549  2D4F               	goto	u700
  2685     054A  0A23               	incf	_i+1,w
  2686     054B  1903               	btfsc	3,2
  2687     054C  2D4E               	goto	u701
  2688     054D  2D4F               	goto	u700
  2689     054E                     u701:
  2690     054E  2D54               	goto	l1835
  2691     054F                     u700:
  2692     054F                     l1833:
  2693     054F  082E               	movf	_fTurn,w
  2694     0550  1903               	btfsc	3,2
  2695     0551  2D53               	goto	u711
  2696     0552  2D54               	goto	u710
  2697     0553                     u711:
  2698     0553  2D3B               	goto	l1829
  2699     0554                     u710:
  2700     0554                     l1835:
  2701                           
  2702                           ;PWM.c: 172:   }
  2703     0554  3001               	movlw	1
  2704     0555  00F9               	movwf	??_Streamer_SEG2_ON
  2705     0556  0879               	movf	??_Streamer_SEG2_ON,w
  2706     0557  07FD               	addwf	Streamer_SEG2_ON@j,f
  2707     0558                     l1837:
  2708     0558  3006               	movlw	6
  2709     0559  027D               	subwf	Streamer_SEG2_ON@j,w
  2710     055A  1C03               	skipc
  2711     055B  2D5D               	goto	u721
  2712     055C  2D5E               	goto	u720
  2713     055D                     u721:
  2714     055D  2D20               	goto	l1819
  2715     055E                     u720:
  2716     055E                     l290:
  2717     055E  0008               	return
  2718     055F                     __end_of_Streamer_SEG2_ON:
  2719                           
  2720                           	psect	text4
  2721     04D7                     __ptext4:	
  2722 ;; *************** function _Streamer_SEG1_ON *****************
  2723 ;; Defined at:
  2724 ;;		line 101 in file "PWM.c"
  2725 ;; Parameters:    Size  Location     Type
  2726 ;;  InputData       1    wreg     unsigned char 
  2727 ;; Auto vars:     Size  Location     Type
  2728 ;;  InputData       1   10[COMMON] unsigned char 
  2729 ;;  j               1   13[COMMON] unsigned char 
  2730 ;;  num             1   12[COMMON] unsigned char 
  2731 ;;  data            1   11[COMMON] unsigned char 
  2732 ;; Return value:  Size  Location     Type
  2733 ;;                  1    wreg      void 
  2734 ;; Registers used:
  2735 ;;		wreg, status,2, status,0, pclath, cstack
  2736 ;; Tracked objects:
  2737 ;;		On entry : 0/0
  2738 ;;		On exit  : 0/0
  2739 ;;		Unchanged: 0/0
  2740 ;; Data sizes:     COMMON   BANK0   BANK1   BANK2   BANK3   BANK4   BANK5   BANK6
  2741 ;;      Params:         0       0       0       0       0       0       0       0
  2742 ;;      Locals:         4       0       0       0       0       0       0       0
  2743 ;;      Temps:          1       0       0       0       0       0       0       0
  2744 ;;      Totals:         5       0       0       0       0       0       0       0
  2745 ;;Total ram usage:        5 bytes
  2746 ;; Hardware stack levels used: 1
  2747 ;; Hardware stack levels required when called: 2
  2748 ;; This function calls:
  2749 ;;		_Delay_ms
  2750 ;;		_LED_SET
  2751 ;; This function is called by:
  2752 ;;		_WelcomeLight
  2753 ;; This function uses a non-reentrant model
  2754 ;;
  2755                           
  2756     04D7                     _Streamer_SEG1_ON:	
  2757                           ;psect for function _Streamer_SEG1_ON
  2758                           
  2759                           
  2760                           ;incstack = 0
  2761                           ; Regs used in _Streamer_SEG1_ON: [wreg+status,2+status,0+pclath+cstack]
  2762                           ;Streamer_SEG1_ON@InputData stored from wreg
  2763     04D7  00FA               	movwf	Streamer_SEG1_ON@InputData
  2764     04D8                     l1755:
  2765                           
  2766                           ;PWM.c: 102:   uint8_t data = InputData;
  2767     04D8  087A               	movf	Streamer_SEG1_ON@InputData,w
  2768     04D9  00FB               	movwf	Streamer_SEG1_ON@data
  2769     04DA                     l1757:
  2770                           
  2771                           ;PWM.c: 103:   uint8_t num = 0;
  2772     04DA  01FC               	clrf	Streamer_SEG1_ON@num
  2773     04DB                     l1759:
  2774                           
  2775                           ;PWM.c: 105:   for (uint8_t j = 0; j < (4 * 3); j++) {
  2776     04DB  01FD               	clrf	Streamer_SEG1_ON@j
  2777     04DC                     l1763:
  2778                           
  2779                           ;PWM.c: 106:     num += 1;
  2780     04DC  3001               	movlw	1
  2781     04DD  00F9               	movwf	??_Streamer_SEG1_ON
  2782     04DE  0879               	movf	??_Streamer_SEG1_ON,w
  2783     04DF  07FC               	addwf	Streamer_SEG1_ON@num,f
  2784     04E0                     l1765:
  2785                           
  2786                           ;PWM.c: 108:     LED_SET(num, data);
  2787     04E0  087B               	movf	Streamer_SEG1_ON@data,w
  2788     04E1  00F3               	movwf	LED_SET@InputData
  2789     04E2  087C               	movf	Streamer_SEG1_ON@num,w
  2790     04E3  3183  23BB  3184   	fcall	_LED_SET
  2791     04E6                     l1767:
  2792                           
  2793                           ;PWM.c: 109:     LED_SET((4 * 3) - num, 0x00);
  2794     04E6  01F3               	clrf	LED_SET@InputData
  2795     04E7  087C               	movf	Streamer_SEG1_ON@num,w
  2796     04E8  3C0C               	sublw	12
  2797     04E9  3183  23BB  3184   	fcall	_LED_SET
  2798     04EC                     l1769:
  2799                           
  2800                           ;PWM.c: 111:     LED_SET((2 * 3), 0x00);
  2801     04EC  01F3               	clrf	LED_SET@InputData
  2802     04ED  3006               	movlw	6
  2803     04EE  3183  23BB  3184   	fcall	_LED_SET
  2804     04F1                     l1771:
  2805                           
  2806                           ;PWM.c: 113:     i=75;
  2807     04F1  304B               	movlw	75
  2808     04F2  0020               	movlb	0	; select bank0
  2809     04F3  00A2               	movwf	_i
  2810     04F4  3000               	movlw	0
  2811     04F5  00A3               	movwf	_i+1
  2812                           
  2813                           ;PWM.c: 114:     while(i--&& !fTurn){
  2814     04F6  2CFE               	goto	l1775
  2815     04F7                     l1773:
  2816                           
  2817                           ;PWM.c: 115:       Delay_ms(1);
  2818     04F7  3001               	movlw	1
  2819     04F8  00F1               	movwf	Delay_ms@input_ms
  2820     04F9  3000               	movlw	0
  2821     04FA  00F2               	movwf	Delay_ms@input_ms+1
  2822     04FB  3183  23D1  3184   	fcall	_Delay_ms
  2823     04FE                     l1775:
  2824                           
  2825                           ;PWM.c: 114:     while(i--&& !fTurn){
  2826     04FE  3001               	movlw	1
  2827     04FF  0020               	movlb	0	; select bank0
  2828     0500  02A2               	subwf	_i,f
  2829     0501  3000               	movlw	0
  2830     0502  3BA3               	subwfb	_i+1,f
  2831     0503  0A22               	incf	_i,w
  2832     0504  1D03               	skipz
  2833     0505  2D0B               	goto	u640
  2834     0506  0A23               	incf	_i+1,w
  2835     0507  1903               	btfsc	3,2
  2836     0508  2D0A               	goto	u641
  2837     0509  2D0B               	goto	u640
  2838     050A                     u641:
  2839     050A  2D10               	goto	l1779
  2840     050B                     u640:
  2841     050B                     l1777:
  2842     050B  082E               	movf	_fTurn,w
  2843     050C  1903               	btfsc	3,2
  2844     050D  2D0F               	goto	u651
  2845     050E  2D10               	goto	u650
  2846     050F                     u651:
  2847     050F  2CF7               	goto	l1773
  2848     0510                     u650:
  2849     0510                     l1779:
  2850                           
  2851                           ;PWM.c: 117:   }
  2852     0510  3001               	movlw	1
  2853     0511  00F9               	movwf	??_Streamer_SEG1_ON
  2854     0512  0879               	movf	??_Streamer_SEG1_ON,w
  2855     0513  07FD               	addwf	Streamer_SEG1_ON@j,f
  2856     0514                     l1781:
  2857     0514  300C               	movlw	12
  2858     0515  027D               	subwf	Streamer_SEG1_ON@j,w
  2859     0516  1C03               	skipc
  2860     0517  2D19               	goto	u661
  2861     0518  2D1A               	goto	u660
  2862     0519                     u661:
  2863     0519  2CDC               	goto	l1763
  2864     051A                     u660:
  2865     051A                     l265:
  2866     051A  0008               	return
  2867     051B                     __end_of_Streamer_SEG1_ON:
  2868                           
  2869                           	psect	text5
  2870     0493                     __ptext5:	
  2871 ;; *************** function _Streamer_SEG1_OFF *****************
  2872 ;; Defined at:
  2873 ;;		line 136 in file "PWM.c"
  2874 ;; Parameters:    Size  Location     Type
  2875 ;;  InputData       1    wreg     unsigned char 
  2876 ;; Auto vars:     Size  Location     Type
  2877 ;;  InputData       1   10[COMMON] unsigned char 
  2878 ;;  j               1   13[COMMON] unsigned char 
  2879 ;;  num             1   12[COMMON] unsigned char 
  2880 ;;  data            1   11[COMMON] unsigned char 
  2881 ;; Return value:  Size  Location     Type
  2882 ;;                  1    wreg      void 
  2883 ;; Registers used:
  2884 ;;		wreg, status,2, status,0, pclath, cstack
  2885 ;; Tracked objects:
  2886 ;;		On entry : 0/0
  2887 ;;		On exit  : 0/0
  2888 ;;		Unchanged: 0/0
  2889 ;; Data sizes:     COMMON   BANK0   BANK1   BANK2   BANK3   BANK4   BANK5   BANK6
  2890 ;;      Params:         0       0       0       0       0       0       0       0
  2891 ;;      Locals:         4       0       0       0       0       0       0       0
  2892 ;;      Temps:          1       0       0       0       0       0       0       0
  2893 ;;      Totals:         5       0       0       0       0       0       0       0
  2894 ;;Total ram usage:        5 bytes
  2895 ;; Hardware stack levels used: 1
  2896 ;; Hardware stack levels required when called: 2
  2897 ;; This function calls:
  2898 ;;		_Delay_ms
  2899 ;;		_LED_SET
  2900 ;; This function is called by:
  2901 ;;		_WelcomeLight
  2902 ;; This function uses a non-reentrant model
  2903 ;;
  2904                           
  2905     0493                     _Streamer_SEG1_OFF:	
  2906                           ;psect for function _Streamer_SEG1_OFF
  2907                           
  2908                           
  2909                           ;incstack = 0
  2910                           ; Regs used in _Streamer_SEG1_OFF: [wreg+status,2+status,0+pclath+cstack]
  2911                           ;Streamer_SEG1_OFF@InputData stored from wreg
  2912     0493  00FA               	movwf	Streamer_SEG1_OFF@InputData
  2913     0494                     l1783:
  2914                           
  2915                           ;PWM.c: 137:   uint8_t data = InputData;
  2916     0494  087A               	movf	Streamer_SEG1_OFF@InputData,w
  2917     0495  00FB               	movwf	Streamer_SEG1_OFF@data
  2918     0496                     l1785:
  2919                           
  2920                           ;PWM.c: 138:   uint8_t num = 0;
  2921     0496  01FC               	clrf	Streamer_SEG1_OFF@num
  2922     0497                     l1787:
  2923                           
  2924                           ;PWM.c: 140:   for (uint8_t j = 0; j < (4 * 3); j++) {
  2925     0497  01FD               	clrf	Streamer_SEG1_OFF@j
  2926     0498                     l1791:
  2927                           
  2928                           ;PWM.c: 141:     num += 1;
  2929     0498  3001               	movlw	1
  2930     0499  00F9               	movwf	??_Streamer_SEG1_OFF
  2931     049A  0879               	movf	??_Streamer_SEG1_OFF,w
  2932     049B  07FC               	addwf	Streamer_SEG1_OFF@num,f
  2933     049C                     l1793:
  2934                           
  2935                           ;PWM.c: 143:     LED_SET((4 * 3) - num, data);
  2936     049C  087B               	movf	Streamer_SEG1_OFF@data,w
  2937     049D  00F3               	movwf	LED_SET@InputData
  2938     049E  087C               	movf	Streamer_SEG1_OFF@num,w
  2939     049F  3C0C               	sublw	12
  2940     04A0  3183  23BB  3184   	fcall	_LED_SET
  2941     04A3                     l1795:
  2942                           
  2943                           ;PWM.c: 144:     LED_SET(num, 0x00);
  2944     04A3  01F3               	clrf	LED_SET@InputData
  2945     04A4  087C               	movf	Streamer_SEG1_OFF@num,w
  2946     04A5  3183  23BB  3184   	fcall	_LED_SET
  2947     04A8                     l1797:
  2948                           
  2949                           ;PWM.c: 146:     LED_SET((2 * 3), 0x00);
  2950     04A8  01F3               	clrf	LED_SET@InputData
  2951     04A9  3006               	movlw	6
  2952     04AA  3183  23BB  3184   	fcall	_LED_SET
  2953     04AD                     l1799:
  2954                           
  2955                           ;PWM.c: 148:     i=75;
  2956     04AD  304B               	movlw	75
  2957     04AE  0020               	movlb	0	; select bank0
  2958     04AF  00A2               	movwf	_i
  2959     04B0  3000               	movlw	0
  2960     04B1  00A3               	movwf	_i+1
  2961                           
  2962                           ;PWM.c: 149:     while(i--&& !fTurn){
  2963     04B2  2CBA               	goto	l1803
  2964     04B3                     l1801:
  2965                           
  2966                           ;PWM.c: 150:       Delay_ms(1);
  2967     04B3  3001               	movlw	1
  2968     04B4  00F1               	movwf	Delay_ms@input_ms
  2969     04B5  3000               	movlw	0
  2970     04B6  00F2               	movwf	Delay_ms@input_ms+1
  2971     04B7  3183  23D1  3184   	fcall	_Delay_ms
  2972     04BA                     l1803:
  2973                           
  2974                           ;PWM.c: 149:     while(i--&& !fTurn){
  2975     04BA  3001               	movlw	1
  2976     04BB  0020               	movlb	0	; select bank0
  2977     04BC  02A2               	subwf	_i,f
  2978     04BD  3000               	movlw	0
  2979     04BE  3BA3               	subwfb	_i+1,f
  2980     04BF  0A22               	incf	_i,w
  2981     04C0  1D03               	skipz
  2982     04C1  2CC7               	goto	u670
  2983     04C2  0A23               	incf	_i+1,w
  2984     04C3  1903               	btfsc	3,2
  2985     04C4  2CC6               	goto	u671
  2986     04C5  2CC7               	goto	u670
  2987     04C6                     u671:
  2988     04C6  2CCC               	goto	l1807
  2989     04C7                     u670:
  2990     04C7                     l1805:
  2991     04C7  082E               	movf	_fTurn,w
  2992     04C8  1903               	btfsc	3,2
  2993     04C9  2CCB               	goto	u681
  2994     04CA  2CCC               	goto	u680
  2995     04CB                     u681:
  2996     04CB  2CB3               	goto	l1801
  2997     04CC                     u680:
  2998     04CC                     l1807:
  2999                           
  3000                           ;PWM.c: 152:   }
  3001     04CC  3001               	movlw	1
  3002     04CD  00F9               	movwf	??_Streamer_SEG1_OFF
  3003     04CE  0879               	movf	??_Streamer_SEG1_OFF,w
  3004     04CF  07FD               	addwf	Streamer_SEG1_OFF@j,f
  3005     04D0                     l1809:
  3006     04D0  300C               	movlw	12
  3007     04D1  027D               	subwf	Streamer_SEG1_OFF@j,w
  3008     04D2  1C03               	skipc
  3009     04D3  2CD5               	goto	u691
  3010     04D4  2CD6               	goto	u690
  3011     04D5                     u691:
  3012     04D5  2C98               	goto	l1791
  3013     04D6                     u690:
  3014     04D6                     l280:
  3015     04D6  0008               	return
  3016     04D7                     __end_of_Streamer_SEG1_OFF:
  3017                           
  3018                           	psect	text6
  3019     0459                     __ptext6:	
  3020 ;; *************** function _LED_SET_Gradually_ON *****************
  3021 ;; Defined at:
  3022 ;;		line 85 in file "PWM.c"
  3023 ;; Parameters:    Size  Location     Type
  3024 ;;  InputData       1    wreg     unsigned char 
  3025 ;; Auto vars:     Size  Location     Type
  3026 ;;  InputData       1   10[COMMON] unsigned char 
  3027 ;;  j               2   11[COMMON] int 
  3028 ;;  temp            2    0        int 
  3029 ;;  data            1    0        unsigned char 
  3030 ;; Return value:  Size  Location     Type
  3031 ;;                  1    wreg      void 
  3032 ;; Registers used:
  3033 ;;		wreg, status,2, status,0, pclath, cstack
  3034 ;; Tracked objects:
  3035 ;;		On entry : 0/0
  3036 ;;		On exit  : 0/0
  3037 ;;		Unchanged: 0/0
  3038 ;; Data sizes:     COMMON   BANK0   BANK1   BANK2   BANK3   BANK4   BANK5   BANK6
  3039 ;;      Params:         0       0       0       0       0       0       0       0
  3040 ;;      Locals:         3       0       0       0       0       0       0       0
  3041 ;;      Temps:          1       0       0       0       0       0       0       0
  3042 ;;      Totals:         4       0       0       0       0       0       0       0
  3043 ;;Total ram usage:        4 bytes
  3044 ;; Hardware stack levels used: 1
  3045 ;; Hardware stack levels required when called: 2
  3046 ;; This function calls:
  3047 ;;		_Delay_ms
  3048 ;;		_LED_SET
  3049 ;; This function is called by:
  3050 ;;		_todo
  3051 ;;		_WelcomeLight
  3052 ;; This function uses a non-reentrant model
  3053 ;;
  3054                           
  3055     0459                     _LED_SET_Gradually_ON:	
  3056                           ;psect for function _LED_SET_Gradually_ON
  3057                           
  3058                           
  3059                           ;incstack = 0
  3060                           ; Regs used in _LED_SET_Gradually_ON: [wreg+status,2+status,0+pclath+cstack]
  3061                           ;LED_SET_Gradually_ON@InputData stored from wreg
  3062     0459  00FA               	movwf	LED_SET_Gradually_ON@InputData
  3063     045A                     l1735:
  3064     045A                     l1737:
  3065                           
  3066                           ;PWM.c: 87:   int temp;;PWM.c: 89:   for (int j = 0; j < 250; j += 1) {
  3067     045A  01FB               	clrf	LED_SET_Gradually_ON@j
  3068     045B  01FC               	clrf	LED_SET_Gradually_ON@j+1
  3069     045C                     l1743:
  3070                           
  3071                           ;PWM.c: 90:     LED_SET(((4 * 3) + (2 * 3)), (uint8_t)(j & 0xFF));
  3072     045C  087B               	movf	LED_SET_Gradually_ON@j,w
  3073     045D  00F3               	movwf	LED_SET@InputData
  3074     045E  3012               	movlw	18
  3075     045F  3183  23BB  3184   	fcall	_LED_SET
  3076     0462                     l1745:
  3077                           
  3078                           ;PWM.c: 92:     i=12;
  3079     0462  300C               	movlw	12
  3080     0463  0020               	movlb	0	; select bank0
  3081     0464  00A2               	movwf	_i
  3082     0465  3000               	movlw	0
  3083     0466  00A3               	movwf	_i+1
  3084                           
  3085                           ;PWM.c: 93:     while(i--&& !fTurn){
  3086     0467  2C6F               	goto	l1749
  3087     0468                     l1747:
  3088                           
  3089                           ;PWM.c: 94:       Delay_ms(1);
  3090     0468  3001               	movlw	1
  3091     0469  00F1               	movwf	Delay_ms@input_ms
  3092     046A  3000               	movlw	0
  3093     046B  00F2               	movwf	Delay_ms@input_ms+1
  3094     046C  3183  23D1  3184   	fcall	_Delay_ms
  3095     046F                     l1749:
  3096                           
  3097                           ;PWM.c: 93:     while(i--&& !fTurn){
  3098     046F  3001               	movlw	1
  3099     0470  0020               	movlb	0	; select bank0
  3100     0471  02A2               	subwf	_i,f
  3101     0472  3000               	movlw	0
  3102     0473  3BA3               	subwfb	_i+1,f
  3103     0474  0A22               	incf	_i,w
  3104     0475  1D03               	skipz
  3105     0476  2C7C               	goto	u610
  3106     0477  0A23               	incf	_i+1,w
  3107     0478  1903               	btfsc	3,2
  3108     0479  2C7B               	goto	u611
  3109     047A  2C7C               	goto	u610
  3110     047B                     u611:
  3111     047B  2C81               	goto	l1753
  3112     047C                     u610:
  3113     047C                     l1751:
  3114     047C  082E               	movf	_fTurn,w
  3115     047D  1903               	btfsc	3,2
  3116     047E  2C80               	goto	u621
  3117     047F  2C81               	goto	u620
  3118     0480                     u621:
  3119     0480  2C68               	goto	l1747
  3120     0481                     u620:
  3121     0481                     l1753:
  3122                           
  3123                           ;PWM.c: 96:   }
  3124     0481  3001               	movlw	1
  3125     0482  07FB               	addwf	LED_SET_Gradually_ON@j,f
  3126     0483  3000               	movlw	0
  3127     0484  3DFC               	addwfc	LED_SET_Gradually_ON@j+1,f
  3128     0485  087C               	movf	LED_SET_Gradually_ON@j+1,w
  3129     0486  3A80               	xorlw	128
  3130     0487  00F9               	movwf	??_LED_SET_Gradually_ON
  3131     0488  3080               	movlw	128
  3132     0489  0279               	subwf	??_LED_SET_Gradually_ON,w
  3133     048A  1D03               	skipz
  3134     048B  2C8E               	goto	u635
  3135     048C  30FA               	movlw	250
  3136     048D  027B               	subwf	LED_SET_Gradually_ON@j,w
  3137     048E                     u635:
  3138     048E  1C03               	skipc
  3139     048F  2C91               	goto	u631
  3140     0490  2C92               	goto	u630
  3141     0491                     u631:
  3142     0491  2C5C               	goto	l1743
  3143     0492                     u630:
  3144     0492                     l255:
  3145     0492  0008               	return
  3146     0493                     __end_of_LED_SET_Gradually_ON:
  3147                           
  3148                           	psect	text7
  3149     06EC                     __ptext7:	
  3150 ;; *************** function _TrunLight *****************
  3151 ;; Defined at:
  3152 ;;		line 264 in file "PWM.c"
  3153 ;; Parameters:    Size  Location     Type
  3154 ;;  InputData       1    wreg     unsigned char 
  3155 ;; Auto vars:     Size  Location     Type
  3156 ;;  InputData       1    0[BANK0 ] unsigned char 
  3157 ;;  seg2_num        1    4[BANK0 ] unsigned char 
  3158 ;;  seg1_num        1    3[BANK0 ] unsigned char 
  3159 ;;  data            1    2[BANK0 ] unsigned char 
  3160 ;;  j               1    1[BANK0 ] unsigned char 
  3161 ;; Return value:  Size  Location     Type
  3162 ;;                  1    wreg      void 
  3163 ;; Registers used:
  3164 ;;		wreg, status,2, status,0, pclath, cstack
  3165 ;; Tracked objects:
  3166 ;;		On entry : 0/0
  3167 ;;		On exit  : 0/0
  3168 ;;		Unchanged: 0/0
  3169 ;; Data sizes:     COMMON   BANK0   BANK1   BANK2   BANK3   BANK4   BANK5   BANK6
  3170 ;;      Params:         0       0       0       0       0       0       0       0
  3171 ;;      Locals:         0       5       0       0       0       0       0       0
  3172 ;;      Temps:          2       0       0       0       0       0       0       0
  3173 ;;      Totals:         2       5       0       0       0       0       0       0
  3174 ;;Total ram usage:        7 bytes
  3175 ;; Hardware stack levels used: 1
  3176 ;; Hardware stack levels required when called: 3
  3177 ;; This function calls:
  3178 ;;		_Delay_ms
  3179 ;;		_LED_OFF
  3180 ;;		_LED_SET
  3181 ;; This function is called by:
  3182 ;;		_todo
  3183 ;;		_main
  3184 ;; This function uses a non-reentrant model
  3185 ;;
  3186                           
  3187     06EC                     _TrunLight:	
  3188                           ;psect for function _TrunLight
  3189                           
  3190                           
  3191                           ;incstack = 0
  3192                           ; Regs used in _TrunLight: [wreg+status,2+status,0+pclath+cstack]
  3193                           ;TrunLight@InputData stored from wreg
  3194     06EC  0020               	movlb	0	; select bank0
  3195     06ED  00B1               	movwf	TrunLight@InputData
  3196     06EE                     l1959:
  3197     06EE                     l1961:
  3198                           
  3199                           ;PWM.c: 267:   uint8_t data = InputData;
  3200     06EE  0831               	movf	TrunLight@InputData,w
  3201     06EF  00B3               	movwf	TrunLight@data
  3202     06F0                     l1963:
  3203                           
  3204                           ;PWM.c: 268:   uint8_t seg1_num = 0;
  3205     06F0  01B4               	clrf	TrunLight@seg1_num
  3206     06F1                     l1965:
  3207                           
  3208                           ;PWM.c: 269:   uint8_t seg2_num = 1;
  3209     06F1  01B5               	clrf	TrunLight@seg2_num
  3210     06F2  0AB5               	incf	TrunLight@seg2_num,f
  3211     06F3                     l1967:
  3212                           
  3213                           ;PWM.c: 272:   LATCbits.LATC5 = 1;
  3214     06F3  0022               	movlb	2	; select bank2
  3215     06F4  168E               	bsf	14,5	;volatile
  3216     06F5                     l1969:
  3217                           
  3218                           ;PWM.c: 273:   LATCbits.LATC4 = 0;
  3219     06F5  120E               	bcf	14,4	;volatile
  3220     06F6                     l1971:
  3221                           
  3222                           ;PWM.c: 275:   LED_OFF();
  3223     06F6  3183  2389  3186   	fcall	_LED_OFF
  3224     06F9                     l1973:
  3225                           
  3226                           ;PWM.c: 276:   Delay_ms(1);
  3227     06F9  3001               	movlw	1
  3228     06FA  00F1               	movwf	Delay_ms@input_ms
  3229     06FB  3000               	movlw	0
  3230     06FC  00F2               	movwf	Delay_ms@input_ms+1
  3231     06FD  3183  23D1  3186   	fcall	_Delay_ms
  3232     0700                     l1975:
  3233                           
  3234                           ;PWM.c: 279:   if(fTurn==1){
  3235     0700  0020               	movlb	0	; select bank0
  3236     0701  032E               	decf	_fTurn,w
  3237     0702  1D03               	btfss	3,2
  3238     0703  2F05               	goto	u871
  3239     0704  2F06               	goto	u870
  3240     0705                     u871:
  3241     0705  2F3C               	goto	l1987
  3242     0706                     u870:
  3243     0706                     l1977:
  3244                           
  3245                           ;PWM.c: 280:     LED_SET(seg1_num, data);
  3246     0706  0833               	movf	TrunLight@data,w
  3247     0707  00F3               	movwf	LED_SET@InputData
  3248     0708  3000               	movlw	0
  3249     0709  3183  23BB  3186   	fcall	_LED_SET
  3250                           
  3251                           ;PWM.c: 281:     LED_SET((4 * 3) - seg1_num, 0x00);
  3252     070C  01F3               	clrf	LED_SET@InputData
  3253     070D  300C               	movlw	12
  3254     070E  3183  23BB  3186   	fcall	_LED_SET
  3255                           
  3256                           ;PWM.c: 282:     LED_SET(seg2_num, data);
  3257     0711  0020               	movlb	0	; select bank0
  3258     0712  0833               	movf	TrunLight@data,w
  3259     0713  00F3               	movwf	LED_SET@InputData
  3260     0714  3001               	movlw	1
  3261     0715  3183  23BB  3186   	fcall	_LED_SET
  3262                           
  3263                           ;PWM.c: 283:     LED_SET((2 * 3) - seg2_num, 0x00);
  3264     0718  01F3               	clrf	LED_SET@InputData
  3265     0719  3005               	movlw	5
  3266     071A  3183  23BB  3186   	fcall	_LED_SET
  3267     071D                     l1979:
  3268                           
  3269                           ;PWM.c: 284:     i=40;
  3270     071D  3028               	movlw	40
  3271     071E  0020               	movlb	0	; select bank0
  3272     071F  00A2               	movwf	_i
  3273     0720  3000               	movlw	0
  3274     0721  00A3               	movwf	_i+1
  3275                           
  3276                           ;PWM.c: 285:     while(i-->0 && fTurn==1){
  3277     0722  2F2A               	goto	l1983
  3278     0723                     l1981:
  3279                           
  3280                           ;PWM.c: 286:       Delay_ms(1);
  3281     0723  3001               	movlw	1
  3282     0724  00F1               	movwf	Delay_ms@input_ms
  3283     0725  3000               	movlw	0
  3284     0726  00F2               	movwf	Delay_ms@input_ms+1
  3285     0727  3183  23D1  3186   	fcall	_Delay_ms
  3286     072A                     l1983:
  3287                           
  3288                           ;PWM.c: 285:     while(i-->0 && fTurn==1){
  3289     072A  3001               	movlw	1
  3290     072B  0020               	movlb	0	; select bank0
  3291     072C  02A2               	subwf	_i,f
  3292     072D  3000               	movlw	0
  3293     072E  3BA3               	subwfb	_i+1,f
  3294     072F  0A22               	incf	_i,w
  3295     0730  1D03               	skipz
  3296     0731  2F37               	goto	u880
  3297     0732  0A23               	incf	_i+1,w
  3298     0733  1903               	btfsc	3,2
  3299     0734  2F36               	goto	u881
  3300     0735  2F37               	goto	u880
  3301     0736                     u881:
  3302     0736  2F3C               	goto	l1987
  3303     0737                     u880:
  3304     0737                     l1985:
  3305     0737  032E               	decf	_fTurn,w
  3306     0738  1903               	btfsc	3,2
  3307     0739  2F3B               	goto	u891
  3308     073A  2F3C               	goto	u890
  3309     073B                     u891:
  3310     073B  2F23               	goto	l1981
  3311     073C                     u890:
  3312     073C                     l1987:
  3313                           
  3314                           ;PWM.c: 291:   if(fTurn==1){
  3315     073C  032E               	decf	_fTurn,w
  3316     073D  1D03               	btfss	3,2
  3317     073E  2F40               	goto	u901
  3318     073F  2F41               	goto	u900
  3319     0740                     u901:
  3320     0740  2F8E               	goto	l2017
  3321     0741                     u900:
  3322     0741                     l1989:
  3323                           
  3324                           ;PWM.c: 292:     for (j = 0; j < (2 * 3) - 2; j++) {
  3325     0741  01B2               	clrf	TrunLight@j
  3326     0742                     l1995:
  3327                           
  3328                           ;PWM.c: 293:       seg1_num += 1;
  3329     0742  3001               	movlw	1
  3330     0743  00F9               	movwf	??_TrunLight
  3331     0744  0879               	movf	??_TrunLight,w
  3332     0745  07B4               	addwf	TrunLight@seg1_num,f
  3333                           
  3334                           ;PWM.c: 294:       seg2_num += 1;
  3335     0746  3001               	movlw	1
  3336     0747  00F9               	movwf	??_TrunLight
  3337     0748  0879               	movf	??_TrunLight,w
  3338     0749  07B5               	addwf	TrunLight@seg2_num,f
  3339     074A                     l1997:
  3340                           
  3341                           ;PWM.c: 295:       LED_SET(seg1_num, data);
  3342     074A  0833               	movf	TrunLight@data,w
  3343     074B  00F3               	movwf	LED_SET@InputData
  3344     074C  0834               	movf	TrunLight@seg1_num,w
  3345     074D  3183  23BB  3186   	fcall	_LED_SET
  3346     0750                     l1999:
  3347                           
  3348                           ;PWM.c: 296:       LED_SET((4 * 3) - seg1_num, 0x00);
  3349     0750  01F3               	clrf	LED_SET@InputData
  3350     0751  0020               	movlb	0	; select bank0
  3351     0752  0834               	movf	TrunLight@seg1_num,w
  3352     0753  3C0C               	sublw	12
  3353     0754  3183  23BB  3186   	fcall	_LED_SET
  3354     0757                     l2001:
  3355                           
  3356                           ;PWM.c: 297:       LED_SET(seg2_num, data);
  3357     0757  0020               	movlb	0	; select bank0
  3358     0758  0833               	movf	TrunLight@data,w
  3359     0759  00F3               	movwf	LED_SET@InputData
  3360     075A  0835               	movf	TrunLight@seg2_num,w
  3361     075B  3183  23BB  3186   	fcall	_LED_SET
  3362     075E                     l2003:
  3363                           
  3364                           ;PWM.c: 298:       LED_SET((2 * 3) - seg2_num, 0x00);
  3365     075E  01F3               	clrf	LED_SET@InputData
  3366     075F  0020               	movlb	0	; select bank0
  3367     0760  0835               	movf	TrunLight@seg2_num,w
  3368     0761  3C06               	sublw	6
  3369     0762  3183  23BB  3186   	fcall	_LED_SET
  3370     0765                     l2005:
  3371                           
  3372                           ;PWM.c: 299:       i=40;
  3373     0765  3028               	movlw	40
  3374     0766  0020               	movlb	0	; select bank0
  3375     0767  00A2               	movwf	_i
  3376     0768  3000               	movlw	0
  3377     0769  00A3               	movwf	_i+1
  3378                           
  3379                           ;PWM.c: 300:       while(i-->0 && fTurn==1){
  3380     076A  2F72               	goto	l2009
  3381     076B                     l2007:
  3382                           
  3383                           ;PWM.c: 301:         Delay_ms(1);
  3384     076B  3001               	movlw	1
  3385     076C  00F1               	movwf	Delay_ms@input_ms
  3386     076D  3000               	movlw	0
  3387     076E  00F2               	movwf	Delay_ms@input_ms+1
  3388     076F  3183  23D1  3186   	fcall	_Delay_ms
  3389     0772                     l2009:
  3390                           
  3391                           ;PWM.c: 300:       while(i-->0 && fTurn==1){
  3392     0772  3001               	movlw	1
  3393     0773  0020               	movlb	0	; select bank0
  3394     0774  02A2               	subwf	_i,f
  3395     0775  3000               	movlw	0
  3396     0776  3BA3               	subwfb	_i+1,f
  3397     0777  0A22               	incf	_i,w
  3398     0778  1D03               	skipz
  3399     0779  2F7F               	goto	u910
  3400     077A  0A23               	incf	_i+1,w
  3401     077B  1903               	btfsc	3,2
  3402     077C  2F7E               	goto	u911
  3403     077D  2F7F               	goto	u910
  3404     077E                     u911:
  3405     077E  2F84               	goto	l2013
  3406     077F                     u910:
  3407     077F                     l2011:
  3408     077F  032E               	decf	_fTurn,w
  3409     0780  1903               	btfsc	3,2
  3410     0781  2F83               	goto	u921
  3411     0782  2F84               	goto	u920
  3412     0783                     u921:
  3413     0783  2F6B               	goto	l2007
  3414     0784                     u920:
  3415     0784                     l2013:
  3416                           
  3417                           ;PWM.c: 303:     }
  3418     0784  3001               	movlw	1
  3419     0785  00F9               	movwf	??_TrunLight
  3420     0786  0879               	movf	??_TrunLight,w
  3421     0787  07B2               	addwf	TrunLight@j,f
  3422     0788                     l2015:
  3423     0788  3004               	movlw	4
  3424     0789  0232               	subwf	TrunLight@j,w
  3425     078A  1C03               	skipc
  3426     078B  2F8D               	goto	u931
  3427     078C  2F8E               	goto	u930
  3428     078D                     u931:
  3429     078D  2F42               	goto	l1995
  3430     078E                     u930:
  3431     078E                     l2017:
  3432                           
  3433                           ;PWM.c: 307:   if(fTurn==1){
  3434     078E  032E               	decf	_fTurn,w
  3435     078F  1D03               	btfss	3,2
  3436     0790  2F92               	goto	u941
  3437     0791  2F93               	goto	u940
  3438     0792                     u941:
  3439     0792  2FCF               	goto	l2035
  3440     0793                     u940:
  3441     0793                     l2019:
  3442                           
  3443                           ;PWM.c: 309:     seg2_num = 6;
  3444     0793  3006               	movlw	6
  3445     0794  00B5               	movwf	TrunLight@seg2_num
  3446     0795                     l2021:
  3447                           
  3448                           ;PWM.c: 310:     LED_SET(seg1_num, data);
  3449     0795  0833               	movf	TrunLight@data,w
  3450     0796  00F3               	movwf	LED_SET@InputData
  3451     0797  300C               	movlw	12
  3452     0798  3183  23BB  3186   	fcall	_LED_SET
  3453     079B                     l2023:
  3454                           
  3455                           ;PWM.c: 311:     LED_SET((4 * 3) - seg1_num, 0x00);
  3456     079B  01F3               	clrf	LED_SET@InputData
  3457     079C  3000               	movlw	0
  3458     079D  3183  23BB  3186   	fcall	_LED_SET
  3459     07A0                     l2025:
  3460                           
  3461                           ;PWM.c: 312:     LED_SET(seg2_num, data);
  3462     07A0  0020               	movlb	0	; select bank0
  3463     07A1  0833               	movf	TrunLight@data,w
  3464     07A2  00F3               	movwf	LED_SET@InputData
  3465     07A3  3006               	movlw	6
  3466     07A4  3183  23BB  3186   	fcall	_LED_SET
  3467     07A7                     l2027:
  3468                           
  3469                           ;PWM.c: 313:     LED_SET((2 * 3) - seg2_num, 0x00);
  3470     07A7  01F3               	clrf	LED_SET@InputData
  3471     07A8  3000               	movlw	0
  3472     07A9  3183  23BB  3186   	fcall	_LED_SET
  3473                           
  3474                           ;PWM.c: 314:     i=400;
  3475     07AC  3090               	movlw	144
  3476     07AD  0020               	movlb	0	; select bank0
  3477     07AE  00A2               	movwf	_i
  3478     07AF  3001               	movlw	1
  3479     07B0  00A3               	movwf	_i+1
  3480                           
  3481                           ;PWM.c: 315:     while(i-->1 && fTurn==1){
  3482     07B1  2FB9               	goto	l2031
  3483     07B2                     l2029:
  3484                           
  3485                           ;PWM.c: 316:       Delay_ms(1);
  3486     07B2  3001               	movlw	1
  3487     07B3  00F1               	movwf	Delay_ms@input_ms
  3488     07B4  3000               	movlw	0
  3489     07B5  00F2               	movwf	Delay_ms@input_ms+1
  3490     07B6  3183  23D1  3186   	fcall	_Delay_ms
  3491     07B9                     l2031:
  3492                           
  3493                           ;PWM.c: 315:     while(i-->1 && fTurn==1){
  3494     07B9  0020               	movlb	0	; select bank0
  3495     07BA  0823               	movf	_i+1,w
  3496     07BB  00FA               	movwf	??_TrunLight+1
  3497     07BC  03A2               	decf	_i,f
  3498     07BD  0A22               	incf	_i,w
  3499     07BE  00F9               	movwf	??_TrunLight
  3500     07BF  1903               	skipnz
  3501     07C0  03A3               	decf	_i+1,f
  3502     07C1  3000               	movlw	0
  3503     07C2  027A               	subwf	??_TrunLight+1,w
  3504     07C3  3002               	movlw	2
  3505     07C4  1903               	skipnz
  3506     07C5  0279               	subwf	??_TrunLight,w
  3507     07C6  1C03               	skipc
  3508     07C7  2FC9               	goto	u951
  3509     07C8  2FCA               	goto	u950
  3510     07C9                     u951:
  3511     07C9  2FCF               	goto	l2035
  3512     07CA                     u950:
  3513     07CA                     l2033:
  3514     07CA  032E               	decf	_fTurn,w
  3515     07CB  1903               	btfsc	3,2
  3516     07CC  2FCE               	goto	u961
  3517     07CD  2FCF               	goto	u960
  3518     07CE                     u961:
  3519     07CE  2FB2               	goto	l2029
  3520     07CF                     u960:
  3521     07CF                     l2035:
  3522                           
  3523                           ;PWM.c: 319:   if(i==0) fWelcome=1;
  3524     07CF  0822               	movf	_i,w
  3525     07D0  0423               	iorwf	_i+1,w
  3526     07D1  1D03               	btfss	3,2
  3527     07D2  2FD4               	goto	u971
  3528     07D3  2FD5               	goto	u970
  3529     07D4                     u971:
  3530     07D4  2FDF               	goto	l2041
  3531     07D5                     u970:
  3532     07D5                     l2037:
  3533     07D5  01AD               	clrf	_fWelcome
  3534     07D6  0AAD               	incf	_fWelcome,f
  3535     07D7  2FDF               	goto	l2041
  3536     07D8                     l2039:
  3537                           
  3538                           ;PWM.c: 322:     Delay_ms(1);
  3539     07D8  3001               	movlw	1
  3540     07D9  00F1               	movwf	Delay_ms@input_ms
  3541     07DA  3000               	movlw	0
  3542     07DB  00F2               	movwf	Delay_ms@input_ms+1
  3543     07DC  3183  23D1  3186   	fcall	_Delay_ms
  3544     07DF                     l2041:
  3545                           
  3546                           ;PWM.c: 321:   while(fTurn==1){
  3547     07DF  0020               	movlb	0	; select bank0
  3548     07E0  032E               	decf	_fTurn,w
  3549     07E1  1903               	btfsc	3,2
  3550     07E2  2FE4               	goto	u981
  3551     07E3  2FE5               	goto	u980
  3552     07E4                     u981:
  3553     07E4  2FD8               	goto	l2039
  3554     07E5                     u980:
  3555     07E5                     l2043:
  3556                           
  3557                           ;PWM.c: 324:   LED_OFF();
  3558     07E5  3183  2389  3186   	fcall	_LED_OFF
  3559                           
  3560                           ;PWM.c: 325:   Delay_ms(1);
  3561     07E8  3001               	movlw	1
  3562     07E9  00F1               	movwf	Delay_ms@input_ms
  3563     07EA  3000               	movlw	0
  3564     07EB  00F2               	movwf	Delay_ms@input_ms+1
  3565     07EC  3183  23D1  3186   	fcall	_Delay_ms
  3566     07EF                     l2045:
  3567                           
  3568                           ;PWM.c: 326:   T1MS_disable_cnt = 600;
  3569     07EF  3058               	movlw	88
  3570     07F0  0020               	movlb	0	; select bank0
  3571     07F1  00A4               	movwf	_T1MS_disable_cnt
  3572     07F2  3002               	movlw	2
  3573     07F3  00A5               	movwf	_T1MS_disable_cnt+1
  3574     07F4                     l355:
  3575     07F4  0008               	return
  3576     07F5                     __end_of_TrunLight:
  3577                           
  3578                           	psect	text8
  3579     0389                     __ptext8:	
  3580 ;; *************** function _LED_OFF *****************
  3581 ;; Defined at:
  3582 ;;		line 72 in file "PWM.c"
  3583 ;; Parameters:    Size  Location     Type
  3584 ;;		None
  3585 ;; Auto vars:     Size  Location     Type
  3586 ;;		None
  3587 ;; Return value:  Size  Location     Type
  3588 ;;                  1    wreg      void 
  3589 ;; Registers used:
  3590 ;;		wreg, status,2, status,0, pclath, cstack
  3591 ;; Tracked objects:
  3592 ;;		On entry : 0/0
  3593 ;;		On exit  : 0/0
  3594 ;;		Unchanged: 0/0
  3595 ;; Data sizes:     COMMON   BANK0   BANK1   BANK2   BANK3   BANK4   BANK5   BANK6
  3596 ;;      Params:         0       0       0       0       0       0       0       0
  3597 ;;      Locals:         0       0       0       0       0       0       0       0
  3598 ;;      Temps:          0       0       0       0       0       0       0       0
  3599 ;;      Totals:         0       0       0       0       0       0       0       0
  3600 ;;Total ram usage:        0 bytes
  3601 ;; Hardware stack levels used: 1
  3602 ;; Hardware stack levels required when called: 2
  3603 ;; This function calls:
  3604 ;;		_Delay_ms
  3605 ;;		_LED_SET
  3606 ;; This function is called by:
  3607 ;;		_main
  3608 ;;		_WelcomeLight
  3609 ;;		_TrunLight
  3610 ;;		_testmode
  3611 ;; This function uses a non-reentrant model
  3612 ;;
  3613                           
  3614     0389                     _LED_OFF:	
  3615                           ;psect for function _LED_OFF
  3616                           
  3617     0389                     l1729:	
  3618                           ;incstack = 0
  3619                           ; Regs used in _LED_OFF: [wreg+status,2+status,0+pclath+cstack]
  3620                           
  3621                           
  3622                           ;PWM.c: 73:   Delay_ms(2);
  3623     0389  3002               	movlw	2
  3624     038A  00F1               	movwf	Delay_ms@input_ms
  3625     038B  3000               	movlw	0
  3626     038C  00F2               	movwf	Delay_ms@input_ms+1
  3627     038D  3183  23D1  3183   	fcall	_Delay_ms
  3628                           
  3629                           ;PWM.c: 74:   LED_SET(((4 * 3) + (2 * 3)), 0x00);
  3630     0390  01F3               	clrf	LED_SET@InputData
  3631     0391  3012               	movlw	18
  3632     0392  3183  23BB  3183   	fcall	_LED_SET
  3633     0395                     l242:
  3634     0395  0008               	return
  3635     0396                     __end_of_LED_OFF:
  3636                           
  3637                           	psect	text9
  3638     03A8                     __ptext9:	
  3639 ;; *************** function _SYSTEM_Initialize *****************
  3640 ;; Defined at:
  3641 ;;		line 50 in file "mcc_generated_files/mcc.c"
  3642 ;; Parameters:    Size  Location     Type
  3643 ;;		None
  3644 ;; Auto vars:     Size  Location     Type
  3645 ;;		None
  3646 ;; Return value:  Size  Location     Type
  3647 ;;                  1    wreg      void 
  3648 ;; Registers used:
  3649 ;;		wreg, status,2, status,0, pclath, cstack
  3650 ;; Tracked objects:
  3651 ;;		On entry : 0/0
  3652 ;;		On exit  : 0/0
  3653 ;;		Unchanged: 0/0
  3654 ;; Data sizes:     COMMON   BANK0   BANK1   BANK2   BANK3   BANK4   BANK5   BANK6
  3655 ;;      Params:         0       0       0       0       0       0       0       0
  3656 ;;      Locals:         0       0       0       0       0       0       0       0
  3657 ;;      Temps:          0       0       0       0       0       0       0       0
  3658 ;;      Totals:         0       0       0       0       0       0       0       0
  3659 ;;Total ram usage:        0 bytes
  3660 ;; Hardware stack levels used: 1
  3661 ;; Hardware stack levels required when called: 1
  3662 ;; This function calls:
  3663 ;;		_OSCILLATOR_Initialize
  3664 ;;		_PIN_MANAGER_Initialize
  3665 ;;		_PWM5_Initialize
  3666 ;;		_TMR2_Initialize
  3667 ;;		_TMR6_Initialize
  3668 ;;		_WDT_Initialize
  3669 ;; This function is called by:
  3670 ;;		_main
  3671 ;; This function uses a non-reentrant model
  3672 ;;
  3673                           
  3674     03A8                     _SYSTEM_Initialize:	
  3675                           ;psect for function _SYSTEM_Initialize
  3676                           
  3677     03A8                     l2047:	
  3678                           ;incstack = 0
  3679                           ; Regs used in _SYSTEM_Initialize: [wreg+status,2+status,0+pclath+cstack]
  3680                           
  3681                           
  3682                           ;mcc_generated_files/mcc.c: 53:     PIN_MANAGER_Initialize();
  3683     03A8  3184  2418  3183   	fcall	_PIN_MANAGER_Initialize
  3684                           
  3685                           ;mcc_generated_files/mcc.c: 54:     OSCILLATOR_Initialize();
  3686     03AB  3183  237D  3183   	fcall	_OSCILLATOR_Initialize
  3687                           
  3688                           ;mcc_generated_files/mcc.c: 55:     WDT_Initialize();
  3689     03AE  3183  234C  3183   	fcall	_WDT_Initialize
  3690                           
  3691                           ;mcc_generated_files/mcc.c: 56:     TMR6_Initialize();
  3692     03B1  3183  2368  3183   	fcall	_TMR6_Initialize
  3693                           
  3694                           ;mcc_generated_files/mcc.c: 57:     PWM5_Initialize();
  3695     03B4  3183  2372  3183   	fcall	_PWM5_Initialize
  3696                           
  3697                           ;mcc_generated_files/mcc.c: 58:     TMR2_Initialize();
  3698     03B7  3183  2356  3183   	fcall	_TMR2_Initialize
  3699     03BA                     l56:
  3700     03BA  0008               	return
  3701     03BB                     __end_of_SYSTEM_Initialize:
  3702                           
  3703                           	psect	text10
  3704     034C                     __ptext10:	
  3705 ;; *************** function _WDT_Initialize *****************
  3706 ;; Defined at:
  3707 ;;		line 75 in file "mcc_generated_files/mcc.c"
  3708 ;; Parameters:    Size  Location     Type
  3709 ;;		None
  3710 ;; Auto vars:     Size  Location     Type
  3711 ;;		None
  3712 ;; Return value:  Size  Location     Type
  3713 ;;                  1    wreg      void 
  3714 ;; Registers used:
  3715 ;;		wreg
  3716 ;; Tracked objects:
  3717 ;;		On entry : 0/0
  3718 ;;		On exit  : 0/0
  3719 ;;		Unchanged: 0/0
  3720 ;; Data sizes:     COMMON   BANK0   BANK1   BANK2   BANK3   BANK4   BANK5   BANK6
  3721 ;;      Params:         0       0       0       0       0       0       0       0
  3722 ;;      Locals:         0       0       0       0       0       0       0       0
  3723 ;;      Temps:          0       0       0       0       0       0       0       0
  3724 ;;      Totals:         0       0       0       0       0       0       0       0
  3725 ;;Total ram usage:        0 bytes
  3726 ;; Hardware stack levels used: 1
  3727 ;; This function calls:
  3728 ;;		Nothing
  3729 ;; This function is called by:
  3730 ;;		_SYSTEM_Initialize
  3731 ;; This function uses a non-reentrant model
  3732 ;;
  3733                           
  3734     034C                     _WDT_Initialize:	
  3735                           ;psect for function _WDT_Initialize
  3736                           
  3737     034C                     l1863:	
  3738                           ;incstack = 0
  3739                           ; Regs used in _WDT_Initialize: [wreg]
  3740                           
  3741                           
  3742                           ;mcc_generated_files/mcc.c: 78:     WDTCON = 0x16;
  3743     034C  3016               	movlw	22
  3744     034D  0021               	movlb	1	; select bank1
  3745     034E  0097               	movwf	23	;volatile
  3746     034F                     l65:
  3747     034F  0008               	return
  3748     0350                     __end_of_WDT_Initialize:
  3749                           
  3750                           	psect	text11
  3751     0368                     __ptext11:	
  3752 ;; *************** function _TMR6_Initialize *****************
  3753 ;; Defined at:
  3754 ;;		line 62 in file "mcc_generated_files/tmr6.c"
  3755 ;; Parameters:    Size  Location     Type
  3756 ;;		None
  3757 ;; Auto vars:     Size  Location     Type
  3758 ;;		None
  3759 ;; Return value:  Size  Location     Type
  3760 ;;                  1    wreg      void 
  3761 ;; Registers used:
  3762 ;;		wreg, status,2
  3763 ;; Tracked objects:
  3764 ;;		On entry : 0/0
  3765 ;;		On exit  : 0/0
  3766 ;;		Unchanged: 0/0
  3767 ;; Data sizes:     COMMON   BANK0   BANK1   BANK2   BANK3   BANK4   BANK5   BANK6
  3768 ;;      Params:         0       0       0       0       0       0       0       0
  3769 ;;      Locals:         0       0       0       0       0       0       0       0
  3770 ;;      Temps:          0       0       0       0       0       0       0       0
  3771 ;;      Totals:         0       0       0       0       0       0       0       0
  3772 ;;Total ram usage:        0 bytes
  3773 ;; Hardware stack levels used: 1
  3774 ;; This function calls:
  3775 ;;		Nothing
  3776 ;; This function is called by:
  3777 ;;		_SYSTEM_Initialize
  3778 ;; This function uses a non-reentrant model
  3779 ;;
  3780                           
  3781     0368                     _TMR6_Initialize:	
  3782                           ;psect for function _TMR6_Initialize
  3783                           
  3784     0368                     l1865:	
  3785                           ;incstack = 0
  3786                           ; Regs used in _TMR6_Initialize: [wreg+status,2]
  3787                           
  3788                           
  3789                           ;mcc_generated_files/tmr6.c: 67:     PR6 = 0x27;
  3790     0368  3027               	movlw	39
  3791     0369  0028               	movlb	8	; select bank8
  3792     036A  009D               	movwf	29	;volatile
  3793     036B                     l1867:
  3794                           
  3795                           ;mcc_generated_files/tmr6.c: 70:     TMR6 = 0x00;
  3796     036B  019C               	clrf	28	;volatile
  3797     036C                     l1869:
  3798                           
  3799                           ;mcc_generated_files/tmr6.c: 73:     PIR3bits.TMR6IF = 0;
  3800     036C  0020               	movlb	0	; select bank0
  3801     036D  1193               	bcf	19,3	;volatile
  3802     036E                     l1871:
  3803                           
  3804                           ;mcc_generated_files/tmr6.c: 76:     T6CON = 0x04;
  3805     036E  3004               	movlw	4
  3806     036F  0028               	movlb	8	; select bank8
  3807     0370  009E               	movwf	30	;volatile
  3808     0371                     l98:
  3809     0371  0008               	return
  3810     0372                     __end_of_TMR6_Initialize:
  3811                           
  3812                           	psect	text12
  3813     0356                     __ptext12:	
  3814 ;; *************** function _TMR2_Initialize *****************
  3815 ;; Defined at:
  3816 ;;		line 62 in file "mcc_generated_files/tmr2.c"
  3817 ;; Parameters:    Size  Location     Type
  3818 ;;		None
  3819 ;; Auto vars:     Size  Location     Type
  3820 ;;		None
  3821 ;; Return value:  Size  Location     Type
  3822 ;;                  1    wreg      void 
  3823 ;; Registers used:
  3824 ;;		wreg, status,2
  3825 ;; Tracked objects:
  3826 ;;		On entry : 0/0
  3827 ;;		On exit  : 0/0
  3828 ;;		Unchanged: 0/0
  3829 ;; Data sizes:     COMMON   BANK0   BANK1   BANK2   BANK3   BANK4   BANK5   BANK6
  3830 ;;      Params:         0       0       0       0       0       0       0       0
  3831 ;;      Locals:         0       0       0       0       0       0       0       0
  3832 ;;      Temps:          0       0       0       0       0       0       0       0
  3833 ;;      Totals:         0       0       0       0       0       0       0       0
  3834 ;;Total ram usage:        0 bytes
  3835 ;; Hardware stack levels used: 1
  3836 ;; This function calls:
  3837 ;;		Nothing
  3838 ;; This function is called by:
  3839 ;;		_SYSTEM_Initialize
  3840 ;; This function uses a non-reentrant model
  3841 ;;
  3842                           
  3843     0356                     _TMR2_Initialize:	
  3844                           ;psect for function _TMR2_Initialize
  3845                           
  3846     0356                     l1881:	
  3847                           ;incstack = 0
  3848                           ; Regs used in _TMR2_Initialize: [wreg+status,2]
  3849                           
  3850                           
  3851                           ;mcc_generated_files/tmr2.c: 67:     PR2 = 0xC7;
  3852     0356  30C7               	movlw	199
  3853     0357  0020               	movlb	0	; select bank0
  3854     0358  009B               	movwf	27	;volatile
  3855     0359                     l1883:
  3856                           
  3857                           ;mcc_generated_files/tmr2.c: 70:     TMR2 = 0x00;
  3858     0359  019A               	clrf	26	;volatile
  3859     035A                     l1885:
  3860                           
  3861                           ;mcc_generated_files/tmr2.c: 73:     PIR1bits.TMR2IF = 0;
  3862     035A  1091               	bcf	17,1	;volatile
  3863     035B                     l1887:
  3864                           
  3865                           ;mcc_generated_files/tmr2.c: 76:     T2CON = 0x1C;
  3866     035B  301C               	movlw	28
  3867     035C  009C               	movwf	28	;volatile
  3868     035D                     l76:
  3869     035D  0008               	return
  3870     035E                     __end_of_TMR2_Initialize:
  3871                           
  3872                           	psect	text13
  3873     0372                     __ptext13:	
  3874 ;; *************** function _PWM5_Initialize *****************
  3875 ;; Defined at:
  3876 ;;		line 64 in file "mcc_generated_files/pwm5.c"
  3877 ;; Parameters:    Size  Location     Type
  3878 ;;		None
  3879 ;; Auto vars:     Size  Location     Type
  3880 ;;		None
  3881 ;; Return value:  Size  Location     Type
  3882 ;;                  1    wreg      void 
  3883 ;; Registers used:
  3884 ;;		wreg, status,2, status,0
  3885 ;; Tracked objects:
  3886 ;;		On entry : 0/0
  3887 ;;		On exit  : 0/0
  3888 ;;		Unchanged: 0/0
  3889 ;; Data sizes:     COMMON   BANK0   BANK1   BANK2   BANK3   BANK4   BANK5   BANK6
  3890 ;;      Params:         0       0       0       0       0       0       0       0
  3891 ;;      Locals:         0       0       0       0       0       0       0       0
  3892 ;;      Temps:          0       0       0       0       0       0       0       0
  3893 ;;      Totals:         0       0       0       0       0       0       0       0
  3894 ;;Total ram usage:        0 bytes
  3895 ;; Hardware stack levels used: 1
  3896 ;; This function calls:
  3897 ;;		Nothing
  3898 ;; This function is called by:
  3899 ;;		_SYSTEM_Initialize
  3900 ;; This function uses a non-reentrant model
  3901 ;;
  3902                           
  3903     0372                     _PWM5_Initialize:	
  3904                           ;psect for function _PWM5_Initialize
  3905                           
  3906     0372                     l1873:	
  3907                           ;incstack = 0
  3908                           ; Regs used in _PWM5_Initialize: [wreg+status,2+status,0]
  3909                           
  3910                           
  3911                           ;mcc_generated_files/pwm5.c: 69:  CCP5CON = 0x0C;
  3912     0372  300C               	movlw	12
  3913     0373  0026               	movlb	6	; select bank6
  3914     0374  009E               	movwf	30	;volatile
  3915     0375                     l1875:
  3916                           
  3917                           ;mcc_generated_files/pwm5.c: 72:  CCPR5L = 0x00;
  3918     0375  019C               	clrf	28	;volatile
  3919     0376                     l1877:
  3920                           
  3921                           ;mcc_generated_files/pwm5.c: 75:  CCPR5H = 0x00;
  3922     0376  019D               	clrf	29	;volatile
  3923     0377                     l1879:
  3924                           
  3925                           ;mcc_generated_files/pwm5.c: 78:  CCPTMRS1bits.C5TSEL = 0x2;
  3926     0377  0025               	movlb	5	; select bank5
  3927     0378  081F               	movf	31,w	;volatile
  3928     0379  39FC               	andlw	-4
  3929     037A  3802               	iorlw	2
  3930     037B  009F               	movwf	31	;volatile
  3931     037C                     l87:
  3932     037C  0008               	return
  3933     037D                     __end_of_PWM5_Initialize:
  3934                           
  3935                           	psect	text14
  3936     0418                     __ptext14:	
  3937 ;; *************** function _PIN_MANAGER_Initialize *****************
  3938 ;; Defined at:
  3939 ;;		line 55 in file "mcc_generated_files/pin_manager.c"
  3940 ;; Parameters:    Size  Location     Type
  3941 ;;		None
  3942 ;; Auto vars:     Size  Location     Type
  3943 ;;		None
  3944 ;; Return value:  Size  Location     Type
  3945 ;;                  1    wreg      void 
  3946 ;; Registers used:
  3947 ;;		wreg, status,2
  3948 ;; Tracked objects:
  3949 ;;		On entry : 0/0
  3950 ;;		On exit  : 0/0
  3951 ;;		Unchanged: 0/0
  3952 ;; Data sizes:     COMMON   BANK0   BANK1   BANK2   BANK3   BANK4   BANK5   BANK6
  3953 ;;      Params:         0       0       0       0       0       0       0       0
  3954 ;;      Locals:         0       0       0       0       0       0       0       0
  3955 ;;      Temps:          0       0       0       0       0       0       0       0
  3956 ;;      Totals:         0       0       0       0       0       0       0       0
  3957 ;;Total ram usage:        0 bytes
  3958 ;; Hardware stack levels used: 1
  3959 ;; This function calls:
  3960 ;;		Nothing
  3961 ;; This function is called by:
  3962 ;;		_SYSTEM_Initialize
  3963 ;; This function uses a non-reentrant model
  3964 ;;
  3965                           
  3966     0418                     _PIN_MANAGER_Initialize:	
  3967                           ;psect for function _PIN_MANAGER_Initialize
  3968                           
  3969     0418                     l1839:	
  3970                           ;incstack = 0
  3971                           ; Regs used in _PIN_MANAGER_Initialize: [wreg+status,2]
  3972                           
  3973                           
  3974                           ;mcc_generated_files/pin_manager.c: 60:     LATE = 0x00;
  3975     0418  0022               	movlb	2	; select bank2
  3976     0419  0190               	clrf	16	;volatile
  3977                           
  3978                           ;mcc_generated_files/pin_manager.c: 61:     LATA = 0x00;
  3979     041A  018C               	clrf	12	;volatile
  3980                           
  3981                           ;mcc_generated_files/pin_manager.c: 62:     LATB = 0x00;
  3982     041B  018D               	clrf	13	;volatile
  3983                           
  3984                           ;mcc_generated_files/pin_manager.c: 63:     LATC = 0x00;
  3985     041C  018E               	clrf	14	;volatile
  3986     041D                     l1841:
  3987                           
  3988                           ;mcc_generated_files/pin_manager.c: 68:     TRISE = 0x08;
  3989     041D  3008               	movlw	8
  3990     041E  0021               	movlb	1	; select bank1
  3991     041F  0090               	movwf	16	;volatile
  3992     0420                     l1843:
  3993                           
  3994                           ;mcc_generated_files/pin_manager.c: 69:     TRISA = 0xEF;
  3995     0420  30EF               	movlw	239
  3996     0421  008C               	movwf	12	;volatile
  3997     0422                     l1845:
  3998                           
  3999                           ;mcc_generated_files/pin_manager.c: 70:     TRISB = 0xCD;
  4000     0422  30CD               	movlw	205
  4001     0423  008D               	movwf	13	;volatile
  4002     0424                     l1847:
  4003                           
  4004                           ;mcc_generated_files/pin_manager.c: 71:     TRISC = 0xCF;
  4005     0424  30CF               	movlw	207
  4006     0425  008E               	movwf	14	;volatile
  4007                           
  4008                           ;mcc_generated_files/pin_manager.c: 76:     ANSELB = 0x00;
  4009     0426  0023               	movlb	3	; select bank3
  4010     0427  018D               	clrf	13	;volatile
  4011     0428                     l1849:
  4012                           
  4013                           ;mcc_generated_files/pin_manager.c: 77:     ANSELA = 0x27;
  4014     0428  3027               	movlw	39
  4015     0429  008C               	movwf	12	;volatile
  4016     042A                     l1851:
  4017                           
  4018                           ;mcc_generated_files/pin_manager.c: 82:     WPUE = 0x00;
  4019     042A  0024               	movlb	4	; select bank4
  4020     042B  0190               	clrf	16	;volatile
  4021                           
  4022                           ;mcc_generated_files/pin_manager.c: 83:     WPUB = 0x08;
  4023     042C  3008               	movlw	8
  4024     042D  008D               	movwf	13	;volatile
  4025     042E                     l1853:
  4026                           
  4027                           ;mcc_generated_files/pin_manager.c: 84:     OPTION_REGbits.nWPUEN = 0;
  4028     042E  0021               	movlb	1	; select bank1
  4029     042F  1395               	bcf	21,7	;volatile
  4030     0430                     l1855:
  4031                           
  4032                           ;mcc_generated_files/pin_manager.c: 90:     APFCON = 0x00;
  4033     0430  0022               	movlb	2	; select bank2
  4034     0431  019D               	clrf	29	;volatile
  4035     0432                     l31:
  4036     0432  0008               	return
  4037     0433                     __end_of_PIN_MANAGER_Initialize:
  4038                           
  4039                           	psect	text15
  4040     037D                     __ptext15:	
  4041 ;; *************** function _OSCILLATOR_Initialize *****************
  4042 ;; Defined at:
  4043 ;;		line 61 in file "mcc_generated_files/mcc.c"
  4044 ;; Parameters:    Size  Location     Type
  4045 ;;		None
  4046 ;; Auto vars:     Size  Location     Type
  4047 ;;		None
  4048 ;; Return value:  Size  Location     Type
  4049 ;;                  1    wreg      void 
  4050 ;; Registers used:
  4051 ;;		wreg, status,2
  4052 ;; Tracked objects:
  4053 ;;		On entry : 0/0
  4054 ;;		On exit  : 0/0
  4055 ;;		Unchanged: 0/0
  4056 ;; Data sizes:     COMMON   BANK0   BANK1   BANK2   BANK3   BANK4   BANK5   BANK6
  4057 ;;      Params:         0       0       0       0       0       0       0       0
  4058 ;;      Locals:         0       0       0       0       0       0       0       0
  4059 ;;      Temps:          0       0       0       0       0       0       0       0
  4060 ;;      Totals:         0       0       0       0       0       0       0       0
  4061 ;;Total ram usage:        0 bytes
  4062 ;; Hardware stack levels used: 1
  4063 ;; This function calls:
  4064 ;;		Nothing
  4065 ;; This function is called by:
  4066 ;;		_SYSTEM_Initialize
  4067 ;; This function uses a non-reentrant model
  4068 ;;
  4069                           
  4070     037D                     _OSCILLATOR_Initialize:	
  4071                           ;psect for function _OSCILLATOR_Initialize
  4072                           
  4073     037D                     l1857:	
  4074                           ;incstack = 0
  4075                           ; Regs used in _OSCILLATOR_Initialize: [wreg+status,2]
  4076                           
  4077                           
  4078                           ;mcc_generated_files/mcc.c: 64:     OSCCON = 0x70;
  4079     037D  3070               	movlw	112
  4080     037E  0021               	movlb	1	; select bank1
  4081     037F  0099               	movwf	25	;volatile
  4082     0380                     l1859:
  4083                           
  4084                           ;mcc_generated_files/mcc.c: 66:     OSCTUNE = 0x00;
  4085     0380  0198               	clrf	24	;volatile
  4086     0381                     l1861:
  4087                           
  4088                           ;mcc_generated_files/mcc.c: 68:     BORCON = 0x00;
  4089     0381  0022               	movlb	2	; select bank2
  4090     0382  0196               	clrf	22	;volatile
  4091     0383                     l59:	
  4092                           ;mcc_generated_files/mcc.c: 71:     {;mcc_generated_files/mcc.c: 72:     }
  4093                           
  4094                           
  4095                           ;mcc_generated_files/mcc.c: 70:     while(PLLR == 0)
  4096     0383  0021               	movlb	1	; select bank1
  4097     0384  1F1A               	btfss	26,6	;volatile
  4098     0385  2B87               	goto	u731
  4099     0386  2B88               	goto	u730
  4100     0387                     u731:
  4101     0387  2B83               	goto	l59
  4102     0388                     u730:
  4103     0388                     l62:
  4104     0388  0008               	return
  4105     0389                     __end_of_OSCILLATOR_Initialize:
  4106                           
  4107                           	psect	text16
  4108     0400                     __ptext16:	
  4109 ;; *************** function _POS_Light *****************
  4110 ;; Defined at:
  4111 ;;		line 345 in file "PWM.c"
  4112 ;; Parameters:    Size  Location     Type
  4113 ;;		None
  4114 ;; Auto vars:     Size  Location     Type
  4115 ;;		None
  4116 ;; Return value:  Size  Location     Type
  4117 ;;                  1    wreg      void 
  4118 ;; Registers used:
  4119 ;;		wreg, status,2, status,0, pclath, cstack
  4120 ;; Tracked objects:
  4121 ;;		On entry : 0/0
  4122 ;;		On exit  : 0/0
  4123 ;;		Unchanged: 0/0
  4124 ;; Data sizes:     COMMON   BANK0   BANK1   BANK2   BANK3   BANK4   BANK5   BANK6
  4125 ;;      Params:         0       0       0       0       0       0       0       0
  4126 ;;      Locals:         0       0       0       0       0       0       0       0
  4127 ;;      Temps:          0       0       0       0       0       0       0       0
  4128 ;;      Totals:         0       0       0       0       0       0       0       0
  4129 ;;Total ram usage:        0 bytes
  4130 ;; Hardware stack levels used: 1
  4131 ;; Hardware stack levels required when called: 3
  4132 ;; This function calls:
  4133 ;;		_Delay_ms
  4134 ;;		_LED_ON
  4135 ;; This function is called by:
  4136 ;;		_main
  4137 ;; This function uses a non-reentrant model
  4138 ;;
  4139                           
  4140     0400                     _POS_Light:	
  4141                           ;psect for function _POS_Light
  4142                           
  4143     0400                     l2081:	
  4144                           ;incstack = 0
  4145                           ; Regs used in _POS_Light: [wreg+status,2+status,0+pclath+cstack]
  4146                           
  4147                           
  4148                           ;PWM.c: 347:   if (PORTBbits.RB2 == COLOR_YELLOW) {
  4149     0400  0020               	movlb	0	; select bank0
  4150     0401  190D               	btfsc	13,2	;volatile
  4151     0402  2C04               	goto	u1021
  4152     0403  2C05               	goto	u1020
  4153     0404                     u1021:
  4154     0404  2C09               	goto	l363
  4155     0405                     u1020:
  4156     0405                     l2083:
  4157                           
  4158                           ;PWM.c: 349:     LATCbits.LATC5 = 1;
  4159     0405  0022               	movlb	2	; select bank2
  4160     0406  168E               	bsf	14,5	;volatile
  4161                           
  4162                           ;PWM.c: 350:     LATCbits.LATC4 = 0;
  4163     0407  120E               	bcf	14,4	;volatile
  4164                           
  4165                           ;PWM.c: 351:   } else {
  4166     0408  2C0C               	goto	l2085
  4167     0409                     l363:
  4168                           
  4169                           ;PWM.c: 353:     LATCbits.LATC5 = 0;
  4170     0409  0022               	movlb	2	; select bank2
  4171     040A  128E               	bcf	14,5	;volatile
  4172                           
  4173                           ;PWM.c: 354:     LATCbits.LATC4 = 1;
  4174     040B  160E               	bsf	14,4	;volatile
  4175     040C                     l2085:
  4176                           
  4177                           ;PWM.c: 357:   Delay_ms(2);
  4178     040C  3002               	movlw	2
  4179     040D  00F1               	movwf	Delay_ms@input_ms
  4180     040E  3000               	movlw	0
  4181     040F  00F2               	movwf	Delay_ms@input_ms+1
  4182     0410  3183  23D1  3184   	fcall	_Delay_ms
  4183                           
  4184                           ;PWM.c: 358:   LED_ON(25);
  4185     0413  3019               	movlw	25
  4186     0414  3183  235E  3184   	fcall	_LED_ON
  4187     0417                     l365:
  4188     0417  0008               	return
  4189     0418                     __end_of_POS_Light:
  4190                           
  4191                           	psect	text17
  4192     03E8                     __ptext17:	
  4193 ;; *************** function _DRL_Light *****************
  4194 ;; Defined at:
  4195 ;;		line 329 in file "PWM.c"
  4196 ;; Parameters:    Size  Location     Type
  4197 ;;		None
  4198 ;; Auto vars:     Size  Location     Type
  4199 ;;		None
  4200 ;; Return value:  Size  Location     Type
  4201 ;;                  1    wreg      void 
  4202 ;; Registers used:
  4203 ;;		wreg, status,2, status,0, pclath, cstack
  4204 ;; Tracked objects:
  4205 ;;		On entry : 0/0
  4206 ;;		On exit  : 0/0
  4207 ;;		Unchanged: 0/0
  4208 ;; Data sizes:     COMMON   BANK0   BANK1   BANK2   BANK3   BANK4   BANK5   BANK6
  4209 ;;      Params:         0       0       0       0       0       0       0       0
  4210 ;;      Locals:         0       0       0       0       0       0       0       0
  4211 ;;      Temps:          0       0       0       0       0       0       0       0
  4212 ;;      Totals:         0       0       0       0       0       0       0       0
  4213 ;;Total ram usage:        0 bytes
  4214 ;; Hardware stack levels used: 1
  4215 ;; Hardware stack levels required when called: 3
  4216 ;; This function calls:
  4217 ;;		_Delay_ms
  4218 ;;		_LED_ON
  4219 ;; This function is called by:
  4220 ;;		_main
  4221 ;; This function uses a non-reentrant model
  4222 ;;
  4223                           
  4224     03E8                     _DRL_Light:	
  4225                           ;psect for function _DRL_Light
  4226                           
  4227     03E8                     l2075:	
  4228                           ;incstack = 0
  4229                           ; Regs used in _DRL_Light: [wreg+status,2+status,0+pclath+cstack]
  4230                           
  4231                           
  4232                           ;PWM.c: 331:   if (PORTBbits.RB2 == COLOR_YELLOW) {
  4233     03E8  0020               	movlb	0	; select bank0
  4234     03E9  190D               	btfsc	13,2	;volatile
  4235     03EA  2BEC               	goto	u1011
  4236     03EB  2BED               	goto	u1010
  4237     03EC                     u1011:
  4238     03EC  2BF1               	goto	l358
  4239     03ED                     u1010:
  4240     03ED                     l2077:
  4241                           
  4242                           ;PWM.c: 333:     LATCbits.LATC5 = 1;
  4243     03ED  0022               	movlb	2	; select bank2
  4244     03EE  168E               	bsf	14,5	;volatile
  4245                           
  4246                           ;PWM.c: 334:     LATCbits.LATC4 = 0;
  4247     03EF  120E               	bcf	14,4	;volatile
  4248                           
  4249                           ;PWM.c: 335:   } else {
  4250     03F0  2BF4               	goto	l2079
  4251     03F1                     l358:
  4252                           
  4253                           ;PWM.c: 337:     LATCbits.LATC5 = 0;
  4254     03F1  0022               	movlb	2	; select bank2
  4255     03F2  128E               	bcf	14,5	;volatile
  4256                           
  4257                           ;PWM.c: 338:     LATCbits.LATC4 = 1;
  4258     03F3  160E               	bsf	14,4	;volatile
  4259     03F4                     l2079:
  4260                           
  4261                           ;PWM.c: 341:   Delay_ms(2);
  4262     03F4  3002               	movlw	2
  4263     03F5  00F1               	movwf	Delay_ms@input_ms
  4264     03F6  3000               	movlw	0
  4265     03F7  00F2               	movwf	Delay_ms@input_ms+1
  4266     03F8  3183  23D1  3183   	fcall	_Delay_ms
  4267                           
  4268                           ;PWM.c: 342:   LED_ON(255);
  4269     03FB  30FF               	movlw	255
  4270     03FC  3183  235E  3183   	fcall	_LED_ON
  4271     03FF                     l360:
  4272     03FF  0008               	return
  4273     0400                     __end_of_DRL_Light:
  4274                           
  4275                           	psect	text18
  4276     035E                     __ptext18:	
  4277 ;; *************** function _LED_ON *****************
  4278 ;; Defined at:
  4279 ;;		line 78 in file "PWM.c"
  4280 ;; Parameters:    Size  Location     Type
  4281 ;;  InputData       1    wreg     unsigned char 
  4282 ;; Auto vars:     Size  Location     Type
  4283 ;;  InputData       1    9[COMMON] unsigned char 
  4284 ;;  data            1   10[COMMON] unsigned char 
  4285 ;; Return value:  Size  Location     Type
  4286 ;;                  1    wreg      void 
  4287 ;; Registers used:
  4288 ;;		wreg, status,2, status,0, pclath, cstack
  4289 ;; Tracked objects:
  4290 ;;		On entry : 0/0
  4291 ;;		On exit  : 0/0
  4292 ;;		Unchanged: 0/0
  4293 ;; Data sizes:     COMMON   BANK0   BANK1   BANK2   BANK3   BANK4   BANK5   BANK6
  4294 ;;      Params:         0       0       0       0       0       0       0       0
  4295 ;;      Locals:         2       0       0       0       0       0       0       0
  4296 ;;      Temps:          0       0       0       0       0       0       0       0
  4297 ;;      Totals:         2       0       0       0       0       0       0       0
  4298 ;;Total ram usage:        2 bytes
  4299 ;; Hardware stack levels used: 1
  4300 ;; Hardware stack levels required when called: 2
  4301 ;; This function calls:
  4302 ;;		_LED_SET
  4303 ;; This function is called by:
  4304 ;;		_WelcomeLight
  4305 ;;		_DRL_Light
  4306 ;;		_POS_Light
  4307 ;;		_testmode
  4308 ;; This function uses a non-reentrant model
  4309 ;;
  4310                           
  4311     035E                     _LED_ON:	
  4312                           ;psect for function _LED_ON
  4313                           
  4314                           
  4315                           ;incstack = 0
  4316                           ; Regs used in _LED_ON: [wreg+status,2+status,0+pclath+cstack]
  4317                           ;LED_ON@InputData stored from wreg
  4318     035E  00F9               	movwf	LED_ON@InputData
  4319     035F                     l1731:
  4320                           
  4321                           ;PWM.c: 79:     uint8_t data = InputData;
  4322     035F  0879               	movf	LED_ON@InputData,w
  4323     0360  00FA               	movwf	LED_ON@data
  4324     0361                     l1733:
  4325                           
  4326                           ;PWM.c: 80:     LED_SET(((4 * 3) + (2 * 3)), data);
  4327     0361  087A               	movf	LED_ON@data,w
  4328     0362  00F3               	movwf	LED_SET@InputData
  4329     0363  3012               	movlw	18
  4330     0364  3183  23BB  3183   	fcall	_LED_SET
  4331     0367                     l245:
  4332     0367  0008               	return
  4333     0368                     __end_of_LED_ON:
  4334                           
  4335                           	psect	text19
  4336     03BB                     __ptext19:	
  4337 ;; *************** function _LED_SET *****************
  4338 ;; Defined at:
  4339 ;;		line 62 in file "PWM.c"
  4340 ;; Parameters:    Size  Location     Type
  4341 ;;  LED_num         1    wreg     unsigned char 
  4342 ;;  InputData       1    3[COMMON] unsigned char 
  4343 ;; Auto vars:     Size  Location     Type
  4344 ;;  LED_num         1    5[COMMON] unsigned char 
  4345 ;;  i               1    8[COMMON] unsigned char 
  4346 ;;  num             1    7[COMMON] unsigned char 
  4347 ;;  data            1    6[COMMON] unsigned char 
  4348 ;; Return value:  Size  Location     Type
  4349 ;;                  1    wreg      void 
  4350 ;; Registers used:
  4351 ;;		wreg, status,2, status,0, pclath, cstack
  4352 ;; Tracked objects:
  4353 ;;		On entry : 0/0
  4354 ;;		On exit  : 0/0
  4355 ;;		Unchanged: 0/0
  4356 ;; Data sizes:     COMMON   BANK0   BANK1   BANK2   BANK3   BANK4   BANK5   BANK6
  4357 ;;      Params:         1       0       0       0       0       0       0       0
  4358 ;;      Locals:         4       0       0       0       0       0       0       0
  4359 ;;      Temps:          1       0       0       0       0       0       0       0
  4360 ;;      Totals:         6       0       0       0       0       0       0       0
  4361 ;;Total ram usage:        6 bytes
  4362 ;; Hardware stack levels used: 1
  4363 ;; Hardware stack levels required when called: 1
  4364 ;; This function calls:
  4365 ;;		_PWM_SendData
  4366 ;; This function is called by:
  4367 ;;		_LED_OFF
  4368 ;;		_LED_ON
  4369 ;;		_LED_SET_Gradually_ON
  4370 ;;		_Streamer_SEG1_ON
  4371 ;;		_Streamer_SEG1_OFF
  4372 ;;		_Streamer_SEG2_ON
  4373 ;;		_TrunLight
  4374 ;;		_Streamer_SEG1_TEST
  4375 ;;		_Streamer_SEG2_TEST
  4376 ;; This function uses a non-reentrant model
  4377 ;;
  4378                           
  4379     03BB                     _LED_SET:	
  4380                           ;psect for function _LED_SET
  4381                           
  4382                           
  4383                           ;incstack = 0
  4384                           ; Regs used in _LED_SET: [wreg+status,2+status,0+pclath+cstack]
  4385                           ;LED_SET@LED_num stored from wreg
  4386     03BB  00F5               	movwf	LED_SET@LED_num
  4387     03BC                     l1719:
  4388                           
  4389                           ;PWM.c: 63:   uint8_t data = InputData;
  4390     03BC  0873               	movf	LED_SET@InputData,w
  4391     03BD  00F6               	movwf	LED_SET@data
  4392                           
  4393                           ;PWM.c: 64:   uint8_t num = LED_num;
  4394     03BE  0875               	movf	LED_SET@LED_num,w
  4395     03BF  00F7               	movwf	LED_SET@num
  4396     03C0                     l1721:
  4397                           
  4398                           ;PWM.c: 66:   for (uint8_t i = 0; i < num; i++) {
  4399     03C0  01F8               	clrf	LED_SET@i
  4400     03C1  2BCA               	goto	l1727
  4401     03C2                     l1723:
  4402                           
  4403                           ;PWM.c: 67:     PWM_SendData(data);
  4404     03C2  0876               	movf	LED_SET@data,w
  4405     03C3  3184  2433  3183   	fcall	_PWM_SendData
  4406     03C6                     l1725:
  4407                           
  4408                           ;PWM.c: 68:   }
  4409     03C6  3001               	movlw	1
  4410     03C7  00F4               	movwf	??_LED_SET
  4411     03C8  0874               	movf	??_LED_SET,w
  4412     03C9  07F8               	addwf	LED_SET@i,f
  4413     03CA                     l1727:
  4414     03CA  0877               	movf	LED_SET@num,w
  4415     03CB  0278               	subwf	LED_SET@i,w
  4416     03CC  1C03               	skipc
  4417     03CD  2BCF               	goto	u601
  4418     03CE  2BD0               	goto	u600
  4419     03CF                     u601:
  4420     03CF  2BC2               	goto	l1723
  4421     03D0                     u600:
  4422     03D0                     l239:
  4423     03D0  0008               	return
  4424     03D1                     __end_of_LED_SET:
  4425                           
  4426                           	psect	text20
  4427     0433                     __ptext20:	
  4428 ;; *************** function _PWM_SendData *****************
  4429 ;; Defined at:
  4430 ;;		line 39 in file "PWM.c"
  4431 ;; Parameters:    Size  Location     Type
  4432 ;;  InputData       1    wreg     unsigned char 
  4433 ;; Auto vars:     Size  Location     Type
  4434 ;;  InputData       1    0[COMMON] unsigned char 
  4435 ;;  bitmask         1    2[COMMON] unsigned char 
  4436 ;;  data            1    1[COMMON] unsigned char 
  4437 ;; Return value:  Size  Location     Type
  4438 ;;                  1    wreg      void 
  4439 ;; Registers used:
  4440 ;;		wreg, status,2, status,0
  4441 ;; Tracked objects:
  4442 ;;		On entry : 0/0
  4443 ;;		On exit  : 0/0
  4444 ;;		Unchanged: 0/0
  4445 ;; Data sizes:     COMMON   BANK0   BANK1   BANK2   BANK3   BANK4   BANK5   BANK6
  4446 ;;      Params:         0       0       0       0       0       0       0       0
  4447 ;;      Locals:         3       0       0       0       0       0       0       0
  4448 ;;      Temps:          0       0       0       0       0       0       0       0
  4449 ;;      Totals:         3       0       0       0       0       0       0       0
  4450 ;;Total ram usage:        3 bytes
  4451 ;; Hardware stack levels used: 1
  4452 ;; This function calls:
  4453 ;;		Nothing
  4454 ;; This function is called by:
  4455 ;;		_LED_SET
  4456 ;; This function uses a non-reentrant model
  4457 ;;
  4458                           
  4459     0433                     _PWM_SendData:	
  4460                           ;psect for function _PWM_SendData
  4461                           
  4462                           
  4463                           ;incstack = 0
  4464                           ; Regs used in _PWM_SendData: [wreg+status,2+status,0]
  4465                           ;PWM_SendData@InputData stored from wreg
  4466     0433  00F0               	movwf	PWM_SendData@InputData
  4467     0434                     l1695:
  4468                           
  4469                           ;PWM.c: 40:   uint8_t bitmask = 0x80;
  4470     0434  3080               	movlw	128
  4471     0435  00F2               	movwf	PWM_SendData@bitmask
  4472                           
  4473                           ;PWM.c: 41:   uint8_t data = InputData;
  4474     0436  0870               	movf	PWM_SendData@InputData,w
  4475     0437  00F1               	movwf	PWM_SendData@data
  4476     0438                     l1697:
  4477                           
  4478                           ;PWM.c: 44:   TMR6 = PR6 - 10;
  4479     0438  0028               	movlb	8	; select bank8
  4480     0439  081D               	movf	29,w	;volatile
  4481     043A  3EF6               	addlw	246
  4482     043B  009C               	movwf	28	;volatile
  4483     043C                     l1699:
  4484                           
  4485                           ;PWM.c: 47:     if (data & bitmask) {
  4486     043C  0871               	movf	PWM_SendData@data,w
  4487     043D  0572               	andwf	PWM_SendData@bitmask,w
  4488     043E  1903               	btfsc	3,2
  4489     043F  2C41               	goto	u561
  4490     0440  2C42               	goto	u560
  4491     0441                     u561:
  4492     0441  2C46               	goto	l1703
  4493     0442                     u560:
  4494     0442                     l1701:
  4495                           
  4496                           ;PWM.c: 48:       CCPR5L = 6;
  4497     0442  3006               	movlw	6
  4498     0443  0026               	movlb	6	; select bank6
  4499     0444  009C               	movwf	28	;volatile
  4500                           
  4501                           ;PWM.c: 49:     } else {
  4502     0445  2C49               	goto	l229
  4503     0446                     l1703:
  4504                           
  4505                           ;PWM.c: 50:       CCPR5L = 3;
  4506     0446  3003               	movlw	3
  4507     0447  0026               	movlb	6	; select bank6
  4508     0448  009C               	movwf	28	;volatile
  4509     0449                     l229:	
  4510                           ;PWM.c: 53:     };
  4511                           
  4512                           
  4513                           ;PWM.c: 52:     while (!PIR3bits.TMR6IF) {
  4514     0449  0020               	movlb	0	; select bank0
  4515     044A  1D93               	btfss	19,3	;volatile
  4516     044B  2C4D               	goto	u571
  4517     044C  2C4E               	goto	u570
  4518     044D                     u571:
  4519     044D  2C49               	goto	l229
  4520     044E                     u570:
  4521     044E                     l231:
  4522                           
  4523                           ;PWM.c: 54:     PIR3bits.TMR6IF = 0;
  4524     044E  1193               	bcf	19,3	;volatile
  4525     044F                     l1705:
  4526                           
  4527                           ;PWM.c: 55:     bitmask = bitmask >> 1;
  4528     044F  3672               	lsrf	PWM_SendData@bitmask,w
  4529     0450  00F2               	movwf	PWM_SendData@bitmask
  4530                           
  4531                           ;PWM.c: 56:   } while (bitmask);
  4532     0451  0872               	movf	PWM_SendData@bitmask,w
  4533     0452  1D03               	btfss	3,2
  4534     0453  2C55               	goto	u581
  4535     0454  2C56               	goto	u580
  4536     0455                     u581:
  4537     0455  2C3C               	goto	l1699
  4538     0456                     u580:
  4539     0456                     l1707:
  4540                           
  4541                           ;PWM.c: 58:   CCPR5L = 0;
  4542     0456  0026               	movlb	6	; select bank6
  4543     0457  019C               	clrf	28	;volatile
  4544     0458                     l233:
  4545     0458  0008               	return
  4546     0459                     __end_of_PWM_SendData:
  4547                           
  4548                           	psect	text21
  4549     03D1                     __ptext21:	
  4550 ;; *************** function _Delay_ms *****************
  4551 ;; Defined at:
  4552 ;;		line 110 in file "timer.c"
  4553 ;; Parameters:    Size  Location     Type
  4554 ;;  input_ms        2    1[COMMON] unsigned short 
  4555 ;; Auto vars:     Size  Location     Type
  4556 ;;  ms              2    3[COMMON] unsigned short 
  4557 ;; Return value:  Size  Location     Type
  4558 ;;                  1    wreg      void 
  4559 ;; Registers used:
  4560 ;;		wreg, status,2, status,0, pclath, cstack
  4561 ;; Tracked objects:
  4562 ;;		On entry : 0/0
  4563 ;;		On exit  : 0/0
  4564 ;;		Unchanged: 0/0
  4565 ;; Data sizes:     COMMON   BANK0   BANK1   BANK2   BANK3   BANK4   BANK5   BANK6
  4566 ;;      Params:         2       0       0       0       0       0       0       0
  4567 ;;      Locals:         2       0       0       0       0       0       0       0
  4568 ;;      Temps:          0       0       0       0       0       0       0       0
  4569 ;;      Totals:         4       0       0       0       0       0       0       0
  4570 ;;Total ram usage:        4 bytes
  4571 ;; Hardware stack levels used: 1
  4572 ;; Hardware stack levels required when called: 1
  4573 ;; This function calls:
  4574 ;;		_Timer
  4575 ;; This function is called by:
  4576 ;;		_main
  4577 ;;		_LED_OFF
  4578 ;;		_LED_SET_Gradually_ON
  4579 ;;		_Streamer_SEG1_ON
  4580 ;;		_Streamer_SEG1_OFF
  4581 ;;		_Streamer_SEG2_ON
  4582 ;;		_WelcomeLight
  4583 ;;		_TrunLight
  4584 ;;		_DRL_Light
  4585 ;;		_POS_Light
  4586 ;;		_testmode
  4587 ;;		_Streamer_SEG1_TEST
  4588 ;;		_Streamer_SEG2_TEST
  4589 ;; This function uses a non-reentrant model
  4590 ;;
  4591                           
  4592     03D1                     _Delay_ms:	
  4593                           ;psect for function _Delay_ms
  4594                           
  4595     03D1                     l1709:	
  4596                           ;incstack = 0
  4597                           ; Regs used in _Delay_ms: [wreg+status,2+status,0+pclath+cstack]
  4598                           
  4599                           
  4600                           ;timer.c: 111:   uint16_t ms = input_ms;
  4601     03D1  0872               	movf	Delay_ms@input_ms+1,w
  4602     03D2  00F4               	movwf	Delay_ms@ms+1
  4603     03D3  0871               	movf	Delay_ms@input_ms,w
  4604     03D4  00F3               	movwf	Delay_ms@ms
  4605     03D5                     l1711:
  4606                           
  4607                           ;timer.c: 112:   T100us_cnt = 0;
  4608     03D5  0020               	movlb	0	; select bank0
  4609     03D6  01AA               	clrf	_T100us_cnt
  4610     03D7                     l1713:
  4611                           
  4612                           ;timer.c: 113:   T1MS_cnt = 0;
  4613     03D7  01A0               	clrf	_T1MS_cnt
  4614     03D8  01A1               	clrf	_T1MS_cnt+1
  4615     03D9                     l1715:
  4616                           
  4617                           ;timer.c: 115:     Timer();
  4618     03D9  3185  255F  3183   	fcall	_Timer
  4619     03DC                     l1717:
  4620                           
  4621                           ;timer.c: 116:   } while (T1MS_cnt < ms);
  4622     03DC  0874               	movf	Delay_ms@ms+1,w
  4623     03DD  0020               	movlb	0	; select bank0
  4624     03DE  0221               	subwf	_T1MS_cnt+1,w
  4625     03DF  1D03               	skipz
  4626     03E0  2BE3               	goto	u595
  4627     03E1  0873               	movf	Delay_ms@ms,w
  4628     03E2  0220               	subwf	_T1MS_cnt,w
  4629     03E3                     u595:
  4630     03E3  1C03               	skipc
  4631     03E4  2BE6               	goto	u591
  4632     03E5  2BE7               	goto	u590
  4633     03E6                     u591:
  4634     03E6  2BD9               	goto	l1715
  4635     03E7                     u590:
  4636     03E7                     l434:
  4637     03E7  0008               	return
  4638     03E8                     __end_of_Delay_ms:
  4639                           
  4640                           	psect	text22
  4641     055F                     __ptext22:	
  4642 ;; *************** function _Timer *****************
  4643 ;; Defined at:
  4644 ;;		line 27 in file "timer.c"
  4645 ;; Parameters:    Size  Location     Type
  4646 ;;		None
  4647 ;; Auto vars:     Size  Location     Type
  4648 ;;		None
  4649 ;; Return value:  Size  Location     Type
  4650 ;;                  1    wreg      void 
  4651 ;; Registers used:
  4652 ;;		wreg, status,2, status,0
  4653 ;; Tracked objects:
  4654 ;;		On entry : 0/0
  4655 ;;		On exit  : 0/0
  4656 ;;		Unchanged: 0/0
  4657 ;; Data sizes:     COMMON   BANK0   BANK1   BANK2   BANK3   BANK4   BANK5   BANK6
  4658 ;;      Params:         0       0       0       0       0       0       0       0
  4659 ;;      Locals:         0       0       0       0       0       0       0       0
  4660 ;;      Temps:          1       0       0       0       0       0       0       0
  4661 ;;      Totals:         1       0       0       0       0       0       0       0
  4662 ;;Total ram usage:        1 bytes
  4663 ;; Hardware stack levels used: 1
  4664 ;; This function calls:
  4665 ;;		Nothing
  4666 ;; This function is called by:
  4667 ;;		_main
  4668 ;;		_Delay_ms
  4669 ;; This function uses a non-reentrant model
  4670 ;;
  4671                           
  4672     055F                     _Timer:	
  4673                           ;psect for function _Timer
  4674                           
  4675     055F                     l1657:	
  4676                           ;incstack = 0
  4677                           ; Regs used in _Timer: [wreg+status,2+status,0]
  4678                           
  4679     055F                     l402:	
  4680                           ;timer.c: 29:   };
  4681                           
  4682                           
  4683                           ;timer.c: 28:   while (!TMR2IF) {
  4684     055F  0020               	movlb	0	; select bank0
  4685     0560  1C91               	btfss	17,1	;volatile
  4686     0561  2D63               	goto	u491
  4687     0562  2D64               	goto	u490
  4688     0563                     u491:
  4689     0563  2D5F               	goto	l402
  4690     0564                     u490:
  4691     0564                     l404:
  4692                           
  4693                           ;timer.c: 30:   TMR2IF = 0;
  4694     0564  1091               	bcf	17,1	;volatile
  4695     0565                     l1659:
  4696                           
  4697                           ;timer.c: 31:   T100us_cnt++;
  4698     0565  3001               	movlw	1
  4699     0566  00F0               	movwf	??_Timer
  4700     0567  0870               	movf	??_Timer,w
  4701     0568  07AA               	addwf	_T100us_cnt,f
  4702     0569                     l1661:
  4703                           
  4704                           ;timer.c: 32:   if (T100us_cnt >= 10) {
  4705     0569  300A               	movlw	10
  4706     056A  022A               	subwf	_T100us_cnt,w
  4707     056B  1C03               	skipc
  4708     056C  2D6E               	goto	u501
  4709     056D  2D6F               	goto	u500
  4710     056E                     u501:
  4711     056E  2D7E               	goto	l1671
  4712     056F                     u500:
  4713     056F                     l1663:
  4714                           
  4715                           ;timer.c: 33:     T100us_cnt = 0;
  4716     056F  01AA               	clrf	_T100us_cnt
  4717     0570                     l1665:
  4718                           
  4719                           ;timer.c: 34:     T1MS_cnt++;
  4720     0570  3001               	movlw	1
  4721     0571  07A0               	addwf	_T1MS_cnt,f
  4722     0572  3000               	movlw	0
  4723     0573  3DA1               	addwfc	_T1MS_cnt+1,f
  4724     0574                     l1667:
  4725                           
  4726                           ;timer.c: 35:     if(T1MS_disable_cnt>=1){
  4727     0574  0824               	movf	_T1MS_disable_cnt,w
  4728     0575  0425               	iorwf	_T1MS_disable_cnt+1,w
  4729     0576  1903               	btfsc	3,2
  4730     0577  2D79               	goto	u511
  4731     0578  2D7A               	goto	u510
  4732     0579                     u511:
  4733     0579  2D7E               	goto	l1671
  4734     057A                     u510:
  4735     057A                     l1669:
  4736                           
  4737                           ;timer.c: 36:       T1MS_disable_cnt--;
  4738     057A  3001               	movlw	1
  4739     057B  02A4               	subwf	_T1MS_disable_cnt,f
  4740     057C  3000               	movlw	0
  4741     057D  3BA5               	subwfb	_T1MS_disable_cnt+1,f
  4742     057E                     l1671:
  4743                           
  4744                           ;timer.c: 41:   if (PORTAbits.RA3 == 1) {
  4745     057E  1D8C               	btfss	12,3	;volatile
  4746     057F  2D81               	goto	u521
  4747     0580  2D82               	goto	u520
  4748     0581                     u521:
  4749     0581  2D87               	goto	l1675
  4750     0582                     u520:
  4751     0582                     l1673:
  4752                           
  4753                           ;timer.c: 42:     fLoBeam = 1;
  4754     0582  01A7               	clrf	_fLoBeam
  4755     0583  0AA7               	incf	_fLoBeam,f
  4756                           
  4757                           ;timer.c: 43:     LATBbits.LATB1 = 1;
  4758     0584  0022               	movlb	2	; select bank2
  4759     0585  148D               	bsf	13,1	;volatile
  4760                           
  4761                           ;timer.c: 44:   } else {
  4762     0586  2D8A               	goto	l1679
  4763     0587                     l1675:
  4764                           
  4765                           ;timer.c: 45:     fLoBeam = 0;
  4766     0587  01A7               	clrf	_fLoBeam
  4767     0588                     l1677:
  4768                           
  4769                           ;timer.c: 46:     LATBbits.LATB1 = 0;
  4770     0588  0022               	movlb	2	; select bank2
  4771     0589  108D               	bcf	13,1	;volatile
  4772     058A                     l1679:
  4773                           
  4774                           ;timer.c: 50:   if (PORTCbits.RC0 == 1) {
  4775     058A  0020               	movlb	0	; select bank0
  4776     058B  1C0E               	btfss	14,0	;volatile
  4777     058C  2D8E               	goto	u531
  4778     058D  2D8F               	goto	u530
  4779     058E                     u531:
  4780     058E  2D92               	goto	l1683
  4781     058F                     u530:
  4782     058F                     l1681:
  4783                           
  4784                           ;timer.c: 51:     fACC = 1;
  4785     058F  01A6               	clrf	_fACC
  4786     0590  0AA6               	incf	_fACC,f
  4787                           
  4788                           ;timer.c: 52:   } else {
  4789     0591  2D93               	goto	l1685
  4790     0592                     l1683:
  4791                           
  4792                           ;timer.c: 53:     fACC = 0;
  4793     0592  01A6               	clrf	_fACC
  4794     0593                     l1685:
  4795                           
  4796                           ;timer.c: 57:   if (PORTCbits.RC2 == 1) {
  4797     0593  1D0E               	btfss	14,2	;volatile
  4798     0594  2D96               	goto	u541
  4799     0595  2D97               	goto	u540
  4800     0596                     u541:
  4801     0596  2D9A               	goto	l1689
  4802     0597                     u540:
  4803     0597                     l1687:
  4804                           
  4805                           ;timer.c: 58:     fTurn = 1;
  4806     0597  01AE               	clrf	_fTurn
  4807     0598  0AAE               	incf	_fTurn,f
  4808                           
  4809                           ;timer.c: 59:   } else {
  4810     0599  2D9B               	goto	l1691
  4811     059A                     l1689:
  4812                           
  4813                           ;timer.c: 60:     fTurn = 0;
  4814     059A  01AE               	clrf	_fTurn
  4815     059B                     l1691:
  4816                           
  4817                           ;timer.c: 64:   if(PORTCbits.RC3==1)
  4818     059B  1D8E               	btfss	14,3	;volatile
  4819     059C  2D9E               	goto	u551
  4820     059D  2D9F               	goto	u550
  4821     059E                     u551:
  4822     059E  2DA3               	goto	l413
  4823     059F                     u550:
  4824     059F                     l1693:
  4825                           
  4826                           ;timer.c: 65:   {;timer.c: 66:     LATBbits.LATB4=1;
  4827     059F  0022               	movlb	2	; select bank2
  4828     05A0  160D               	bsf	13,4	;volatile
  4829                           
  4830                           ;timer.c: 67:     LATBbits.LATB5=1;
  4831     05A1  168D               	bsf	13,5	;volatile
  4832                           
  4833                           ;timer.c: 68:   }
  4834     05A2  2DA6               	goto	l415
  4835     05A3                     l413:	
  4836                           ;timer.c: 69:   else {
  4837                           
  4838                           
  4839                           ;timer.c: 70:     LATBbits.LATB4=0;
  4840     05A3  0022               	movlb	2	; select bank2
  4841     05A4  120D               	bcf	13,4	;volatile
  4842                           
  4843                           ;timer.c: 71:     LATBbits.LATB5=0;
  4844     05A5  128D               	bcf	13,5	;volatile
  4845     05A6                     l415:
  4846     05A6  0008               	return
  4847     05A7                     __end_of_Timer:
  4848                           
  4849                           	psect	text23
  4850     0396                     __ptext23:	
  4851 ;; *************** function _CheckGPIO *****************
  4852 ;; Defined at:
  4853 ;;		line 119 in file "timer.c"
  4854 ;; Parameters:    Size  Location     Type
  4855 ;;		None
  4856 ;; Auto vars:     Size  Location     Type
  4857 ;;		None
  4858 ;; Return value:  Size  Location     Type
  4859 ;;                  1    wreg      void 
  4860 ;; Registers used:
  4861 ;;		status,2
  4862 ;; Tracked objects:
  4863 ;;		On entry : 0/0
  4864 ;;		On exit  : 0/0
  4865 ;;		Unchanged: 0/0
  4866 ;; Data sizes:     COMMON   BANK0   BANK1   BANK2   BANK3   BANK4   BANK5   BANK6
  4867 ;;      Params:         0       0       0       0       0       0       0       0
  4868 ;;      Locals:         0       0       0       0       0       0       0       0
  4869 ;;      Temps:          0       0       0       0       0       0       0       0
  4870 ;;      Totals:         0       0       0       0       0       0       0       0
  4871 ;;Total ram usage:        0 bytes
  4872 ;; Hardware stack levels used: 1
  4873 ;; This function calls:
  4874 ;;		Nothing
  4875 ;; This function is called by:
  4876 ;;		_main
  4877 ;; This function uses a non-reentrant model
  4878 ;;
  4879                           
  4880     0396                     _CheckGPIO:	
  4881                           ;psect for function _CheckGPIO
  4882                           
  4883     0396                     l2063:	
  4884                           ;incstack = 0
  4885                           ; Regs used in _CheckGPIO: [status,2]
  4886                           
  4887                           
  4888                           ;timer.c: 121:   if(PORTAbits.RA6==1)
  4889     0396  0020               	movlb	0	; select bank0
  4890     0397  1F0C               	btfss	12,6	;volatile
  4891     0398  2B9A               	goto	u991
  4892     0399  2B9B               	goto	u990
  4893     039A                     u991:
  4894     039A  2B9E               	goto	l2067
  4895     039B                     u990:
  4896     039B                     l2065:
  4897                           
  4898                           ;timer.c: 122:     fPOS=1;
  4899     039B  01AB               	clrf	_fPOS
  4900     039C  0AAB               	incf	_fPOS,f
  4901     039D  2B9F               	goto	l2069
  4902     039E                     l2067:
  4903                           
  4904                           ;timer.c: 124:     fPOS=0;
  4905     039E  01AB               	clrf	_fPOS
  4906     039F                     l2069:
  4907                           
  4908                           ;timer.c: 127:   if(PORTCbits.RC1==1)
  4909     039F  1C8E               	btfss	14,1	;volatile
  4910     03A0  2BA2               	goto	u1001
  4911     03A1  2BA3               	goto	u1000
  4912     03A2                     u1001:
  4913     03A2  2BA6               	goto	l2073
  4914     03A3                     u1000:
  4915     03A3                     l2071:
  4916                           
  4917                           ;timer.c: 128:     fDRL=1;
  4918     03A3  01AC               	clrf	_fDRL
  4919     03A4  0AAC               	incf	_fDRL,f
  4920     03A5  2BA7               	goto	l441
  4921     03A6                     l2073:
  4922                           
  4923                           ;timer.c: 130:     fDRL=0;
  4924     03A6  01AC               	clrf	_fDRL
  4925     03A7                     l441:
  4926     03A7  0008               	return
  4927     03A8                     __end_of_CheckGPIO:
  4928     007E                     btemp	set	126	;btemp
  4929     007E                     wtemp0	set	126
  4930                           
  4931                           	psect	config
  4932                           
  4933                           ;Config register CONFIG1 @ 0x8007
  4934                           ;	Oscillator Selection
  4935                           ;	FOSC = INTOSC, INTOSC oscillator: I/O function on CLKIN pin
  4936                           ;	Watchdog Timer Enable
  4937                           ;	WDTE = OFF, WDT disabled
  4938                           ;	Power-up Timer Enable
  4939                           ;	PWRTE = OFF, PWRT disabled
  4940                           ;	MCLR Pin Function Select
  4941                           ;	MCLRE = ON, MCLR/VPP pin function is MCLR
  4942                           ;	Flash Program Memory Code Protection
  4943                           ;	CP = OFF, Program memory code protection is disabled
  4944                           ;	Data Memory Code Protection
  4945                           ;	CPD = OFF, Data memory code protection is disabled
  4946                           ;	Brown-out Reset Enable
  4947                           ;	BOREN = ON, Brown-out Reset enabled
  4948                           ;	Clock Out Enable
  4949                           ;	CLKOUTEN = OFF, CLKOUT function is disabled. I/O or oscillator function on the CLKOUT 
      +                          pin
  4950                           ;	Internal/External Switchover
  4951                           ;	IESO = ON, Internal/External Switchover mode is enabled
  4952                           ;	Fail-Safe Clock Monitor Enable
  4953                           ;	FCMEN = ON, Fail-Safe Clock Monitor is enabled
  4954     8007                     	org	32775
  4955     8007  3FE4               	dw	16356
  4956                           
  4957                           ;Config register CONFIG2 @ 0x8008
  4958                           ;	Flash Memory Self-Write Protection
  4959                           ;	WRT = OFF, Write protection off
  4960                           ;	Voltage Regulator Capacitor Enable
  4961                           ;	VCAPEN = OFF, All VCAP pin functionality is disabled
  4962                           ;	PLL Enable
  4963                           ;	PLLEN = ON, 4x PLL enabled
  4964                           ;	Stack Overflow/Underflow Reset Enable
  4965                           ;	STVREN = ON, Stack Overflow or Underflow will cause a Reset
  4966                           ;	Brown-out Reset Voltage Selection
  4967                           ;	BORV = LO, Brown-out Reset Voltage (Vbor), low trip point selected.
  4968                           ;	Low-Voltage Programming Enable
  4969                           ;	LVP = OFF, High-voltage on MCLR/VPP must be used for programming
  4970     8008                     	org	32776
  4971     8008  1FFF               	dw	8191

Data Sizes:
    Strings     0
    Constant    0
    Data        0
    BSS         17
    Persistent  32
    Stack       0

Auto Spaces:
    Space          Size  Autos    Used
    COMMON           14     14      14
    BANK0            80      5      22
    BANK1            80      0       0
    BANK2            80      0       0
    BANK3            80      0       0
    BANK4            80      0       0
    BANK5            80      0       0
    BANK6            16      0       0

Pointer List with Targets:

    None.

Critical Paths under _main in COMMON

    _WelcomeLight->_Streamer_SEG1_OFF
    _WelcomeLight->_Streamer_SEG1_ON
    _WelcomeLight->_Streamer_SEG2_ON
    _Streamer_SEG2_ON->_LED_SET
    _Streamer_SEG1_ON->_LED_SET
    _Streamer_SEG1_OFF->_LED_SET
    _LED_SET_Gradually_ON->_LED_SET
    _TrunLight->_LED_SET
    _LED_OFF->_LED_SET
    _POS_Light->_LED_ON
    _DRL_Light->_LED_ON
    _LED_ON->_LED_SET
    _LED_SET->_PWM_SendData
    _Delay_ms->_Timer

Critical Paths under _main in BANK0

    _main->_TrunLight
    _todo->_TrunLight

Critical Paths under _main in BANK1

    None.

Critical Paths under _main in BANK2

    None.

Critical Paths under _main in BANK3

    None.

Critical Paths under _main in BANK4

    None.

Critical Paths under _main in BANK5

    None.

Critical Paths under _main in BANK6

    None.

Call Graph Tables:

 ---------------------------------------------------------------------------------
 (Depth) Function   	        Calls       Base Space   Used Autos Params    Refs
 ---------------------------------------------------------------------------------
 (0) _main                                                 0     0      0   93300
                          _CheckGPIO
                          _DRL_Light
                           _Delay_ms
                            _LED_OFF
                          _POS_Light
                  _SYSTEM_Initialize
                              _Timer
                          _TrunLight
                       _WelcomeLight
                               _todo
 ---------------------------------------------------------------------------------
 (1) _todo                                                 1     1      0   41274
               _LED_SET_Gradually_ON
                          _TrunLight
                       _WelcomeLight
 ---------------------------------------------------------------------------------
 (2) _WelcomeLight                                         1     1      0   27259
                           _Delay_ms
                            _LED_OFF
                             _LED_ON
               _LED_SET_Gradually_ON
                  _Streamer_SEG1_OFF
                   _Streamer_SEG1_ON
                   _Streamer_SEG2_ON
 ---------------------------------------------------------------------------------
 (3) _Streamer_SEG2_ON                                     5     5      0    4589
                                              9 COMMON     5     5      0
                           _Delay_ms
                            _LED_SET
 ---------------------------------------------------------------------------------
 (3) _Streamer_SEG1_ON                                     5     5      0    4589
                                              9 COMMON     5     5      0
                           _Delay_ms
                            _LED_SET
 ---------------------------------------------------------------------------------
 (3) _Streamer_SEG1_OFF                                    5     5      0    4589
                                              9 COMMON     5     5      0
                           _Delay_ms
                            _LED_SET
 ---------------------------------------------------------------------------------
 (3) _LED_SET_Gradually_ON                                 7     7      0    4543
                                              9 COMMON     4     4      0
                           _Delay_ms
                            _LED_SET
 ---------------------------------------------------------------------------------
 (2) _TrunLight                                            7     7      0    9376
                                              9 COMMON     2     2      0
                                              0 BANK0      5     5      0
                           _Delay_ms
                            _LED_OFF
                            _LED_SET
 ---------------------------------------------------------------------------------
 (3) _LED_OFF                                              0     0      0    4452
                           _Delay_ms
                            _LED_SET
 ---------------------------------------------------------------------------------
 (1) _SYSTEM_Initialize                                    0     0      0       0
              _OSCILLATOR_Initialize
             _PIN_MANAGER_Initialize
                    _PWM5_Initialize
                    _TMR2_Initialize
                    _TMR6_Initialize
                     _WDT_Initialize
 ---------------------------------------------------------------------------------
 (2) _WDT_Initialize                                       0     0      0       0
 ---------------------------------------------------------------------------------
 (2) _TMR6_Initialize                                      0     0      0       0
 ---------------------------------------------------------------------------------
 (2) _TMR2_Initialize                                      0     0      0       0
 ---------------------------------------------------------------------------------
 (2) _PWM5_Initialize                                      0     0      0       0
 ---------------------------------------------------------------------------------
 (2) _PIN_MANAGER_Initialize                               0     0      0       0
 ---------------------------------------------------------------------------------
 (2) _OSCILLATOR_Initialize                                0     0      0       0
 ---------------------------------------------------------------------------------
 (1) _POS_Light                                            0     0      0    4497
                           _Delay_ms
                             _LED_ON
 ---------------------------------------------------------------------------------
 (1) _DRL_Light                                            0     0      0    4497
                           _Delay_ms
                             _LED_ON
 ---------------------------------------------------------------------------------
 (3) _LED_ON                                               2     2      0    2552
                                              9 COMMON     2     2      0
                            _LED_SET
 ---------------------------------------------------------------------------------
 (4) _LED_SET                                              6     5      1    2507
                                              3 COMMON     6     5      1
                       _PWM_SendData
 ---------------------------------------------------------------------------------
 (5) _PWM_SendData                                         3     3      0     113
                                              0 COMMON     3     3      0
 ---------------------------------------------------------------------------------
 (4) _Delay_ms                                             4     2      2    1945
                                              1 COMMON     4     2      2
                              _Timer
 ---------------------------------------------------------------------------------
 (5) _Timer                                                1     1      0       0
                                              0 COMMON     1     1      0
 ---------------------------------------------------------------------------------
 (1) _CheckGPIO                                            0     0      0       0
 ---------------------------------------------------------------------------------
 Estimated maximum stack depth 5
 ---------------------------------------------------------------------------------

 Call Graph Graphs:

 _main (ROOT)
   _CheckGPIO
   _DRL_Light
     _Delay_ms
       _Timer
     _LED_ON
       _LED_SET
         _PWM_SendData
   _Delay_ms
   _LED_OFF
     _Delay_ms
     _LED_SET
   _POS_Light
     _Delay_ms
     _LED_ON
   _SYSTEM_Initialize
     _OSCILLATOR_Initialize
     _PIN_MANAGER_Initialize
     _PWM5_Initialize
     _TMR2_Initialize
     _TMR6_Initialize
     _WDT_Initialize
   _Timer
   _TrunLight
     _Delay_ms
     _LED_OFF
     _LED_SET
   _WelcomeLight
     _Delay_ms
     _LED_OFF
     _LED_ON
     _LED_SET_Gradually_ON
       _Delay_ms
       _LED_SET
     _Streamer_SEG1_OFF
       _Delay_ms
       _LED_SET
     _Streamer_SEG1_ON
       _Delay_ms
       _LED_SET
     _Streamer_SEG2_ON
       _Delay_ms
       _LED_SET
   _todo
     _LED_SET_Gradually_ON
     _TrunLight
     _WelcomeLight

 Address spaces:
Name               Size   Autos  Total    Cost      Usage
BIGRAM             1F0      0       0       0        0.0%
EEDATA             100      0       0       0        0.0%
NULL                 0      0       0       0        0.0%
CODE                 0      0       0       0        0.0%
BITCOMMON            E      0       0       1        0.0%
BITSFR0              0      0       0       1        0.0%
SFR0                 0      0       0       1        0.0%
COMMON               E      E       E       2      100.0%
BITSFR1              0      0       0       2        0.0%
SFR1                 0      0       0       2        0.0%
BITSFR2              0      0       0       3        0.0%
SFR2                 0      0       0       3        0.0%
STACK                0      0       0       3        0.0%
BITSFR3              0      0       0       4        0.0%
SFR3                 0      0       0       4        0.0%
ABS                  0      0      24       4        0.0%
BITBANK0            50      0       0       5        0.0%
BITSFR4              0      0       0       5        0.0%
SFR4                 0      0       0       5        0.0%
BANK0               50      5      16       6       27.5%
BITSFR5              0      0       0       6        0.0%
SFR5                 0      0       0       6        0.0%
BITBANK1            50      0       0       7        0.0%
BITSFR6              0      0       0       7        0.0%
SFR6                 0      0       0       7        0.0%
BANK1               50      0       0       8        0.0%
BITSFR7              0      0       0       8        0.0%
SFR7                 0      0       0       8        0.0%
BITBANK2            50      0       0       9        0.0%
BITSFR8              0      0       0       9        0.0%
SFR8                 0      0       0       9        0.0%
BANK2               50      0       0      10        0.0%
BITSFR9              0      0       0      10        0.0%
SFR9                 0      0       0      10        0.0%
BITBANK3            50      0       0      11        0.0%
BITSFR10             0      0       0      11        0.0%
SFR10                0      0       0      11        0.0%
BANK3               50      0       0      12        0.0%
BITSFR11             0      0       0      12        0.0%
SFR11                0      0       0      12        0.0%
BITBANK4            50      0       0      13        0.0%
BITSFR12             0      0       0      13        0.0%
SFR12                0      0       0      13        0.0%
BANK4               50      0       0      14        0.0%
BITSFR13             0      0       0      14        0.0%
SFR13                0      0       0      14        0.0%
BITBANK5            50      0       0      15        0.0%
BITSFR14             0      0       0      15        0.0%
SFR14                0      0       0      15        0.0%
BANK5               50      0       0      16        0.0%
BITSFR15             0      0       0      16        0.0%
SFR15                0      0       0      16        0.0%
BITBANK6            10      0       0      17        0.0%
BITSFR16             0      0       0      17        0.0%
SFR16                0      0       0      17        0.0%
BANK6               10      0       0      18        0.0%
BITSFR17             0      0       0      18        0.0%
SFR17                0      0       0      18        0.0%
BITSFR18             0      0       0      19        0.0%
SFR18                0      0       0      19        0.0%
DATA                 0      0      24      19        0.0%
BITSFR19             0      0       0      20        0.0%
SFR19                0      0       0      20        0.0%
BITSFR20             0      0       0      21        0.0%
SFR20                0      0       0      21        0.0%
BITSFR21             0      0       0      22        0.0%
SFR21                0      0       0      22        0.0%
BITSFR22             0      0       0      23        0.0%
SFR22                0      0       0      23        0.0%
BITSFR23             0      0       0      24        0.0%
SFR23                0      0       0      24        0.0%
BITSFR24             0      0       0      25        0.0%
SFR24                0      0       0      25        0.0%
BITSFR25             0      0       0      26        0.0%
SFR25                0      0       0      26        0.0%
BITSFR26             0      0       0      27        0.0%
SFR26                0      0       0      27        0.0%
BITSFR27             0      0       0      28        0.0%
SFR27                0      0       0      28        0.0%
BITSFR28             0      0       0      29        0.0%
SFR28                0      0       0      29        0.0%
BITSFR29             0      0       0      30        0.0%
SFR29                0      0       0      30        0.0%
BITSFR30             0      0       0      31        0.0%
SFR30                0      0       0      31        0.0%
BITSFR31             0      0       0      32        0.0%
SFR31                0      0       0      32        0.0%


Microchip Technology PIC Macro Assembler V2.46 build 20240104201356 
Symbol Table                                                                                   Fri Nov 14 15:56:27 2025

                             _i 0022                              l31 0432                              l62 0388  
                            l56 03BA                              l65 034F                              l59 0383  
                            l76 035D                              l87 037C                              l98 0371  
                           l231 044E                             l312 066A                             l233 0458  
                           l321 06BA                             l305 063F                             l402 055F  
                           l242 0395                             l404 0564                             l413 05A3  
                           l229 0449                             l245 0367                             l415 05A6  
                           l239 03D0                             l255 0492                             l319 06A0  
                           l191 05B7                             l360 03FF                             l280 04D6  
                           l328 06EB                             l441 03A7                             l265 051A  
                           l434 03E7                             l290 055E                             l186 034B  
                           l363 0409                             l355 07F4                             l365 0417  
                           l358 03F1                             l298 0614                             u500 056F  
                           u501 056E                             u510 057A                             _PR2 001B  
                           u511 0579                             u520 0582                             u600 03D0  
                           u521 0581                             u601 03CF                             u530 058F  
                           u610 047C                             _PR6 041D                             u531 058E  
                           u611 047B                             u540 0597                             u620 0481  
                           u700 054F                             u541 0596                             u621 0480  
                           u701 054E                             u550 059F                             u630 0492  
                           u710 0554                             u551 059E                             u631 0491  
                           u711 0553                             u560 0442                             u640 050B  
                           u720 055E                             u561 0441                             u641 050A  
                           u721 055D                             u490 0564                             u570 044E  
                           u730 0388                             u650 0510                             u491 0563  
                           u571 044D                             u731 0387                             u635 048E  
                           u651 050F                             u580 0456                             u900 0741  
                           u660 051A                             u581 0455                             u901 0740  
                           u661 0519                             u590 03E7                             u910 077F  
                           u670 04C7                             u591 03E6                             u911 077E  
                           u671 04C6                             u920 0784                             u680 04CC  
                           u921 0783                             u681 04CB                             u930 078E  
                           u690 04D6                             u595 03E3                             u931 078D  
                           u691 04D5                             u940 0793                             u941 0792  
                           u950 07CA                             u870 0706                             u951 07C9  
                           u871 0705                             u960 07CF                             u880 0737  
                           u961 07CE                             u881 0736                             u970 07D5  
                           u890 073C                             u971 07D4                             u891 073B  
                           u980 07E5                             u981 07E4                             u990 039B  
                           u991 039A               TrunLight@seg1_num 0034               TrunLight@seg2_num 0035  
               _TMR2_Initialize 0356                             wreg 0009                 __end_of_LED_OFF 0396  
               __end_of_LED_SET 03D1                            l2001 0757                            l2011 077F  
                          l2003 075E                            l2021 0795                            l2013 0784  
                          l2005 0765                            l2031 07B9                            l2023 079B  
                          l2015 0788                            l2007 076B                            l2041 07DF  
                          l2033 07CA                            l2025 07A0                            l2009 0772  
                          l2017 078E                            l2043 07E5                            l2027 07A7  
                          l2019 0793                            l2035 07CF                            l2045 07EF  
                          l2037 07D5                            l2029 07B2                            l2301 05FD  
                          l2071 03A3                            l2063 0396                            l2047 03A8  
                          l2039 07D8                            l2311 060F                            l2303 05FF  
                          l2073 03A6                            l2065 039B                            l2081 0400  
                          l2321 0635                            l2313 0616                            l2305 0601  
                          l2401 05DE                            l2067 039E                            l2075 03E8  
                          l2083 0405                            l2331 065B                            l2323 063A  
                          l2315 061C                            l2307 0602                            l2411 05F7  
                          l2403 05E4                            l2069 039F                            l1701 0442  
                          l2077 03ED                            l2085 040C                            l2341 0679  
                          l2333 0660                            l2325 0641                            l2317 0623  
                          l2309 0609                            l2405 05E7                            l1711 03D5  
                          l1703 0446                            l2079 03F4                            l2351 06A2  
                          l2343 0686                            l2335 0665                            l2327 0647  
                          l2319 0630                            l2407 05EE                            l1713 03D7  
                          l1705 044F                            l1721 03C0                            l1801 04B3  
                          l2361 06C3                            l2353 06AC                            l2345 068B  
                          l2337 066C                            l2329 064E                            l2409 05F1  
                          l1715 03D9                            l1707 0456                            l1723 03C2  
                          l1731 035F                            l1803 04BA                            l1811 051C  
                          l2363 06CA                            l2355 06B2                            l2347 0695  
                          l2339 0672                            l2371 034B                            l1661 0569  
                          l1717 03DC                            l1709 03D1                            l1725 03C6  
                          l1733 0361                            l1805 04C7                            l1821 0525  
                          l1813 051E                            l2365 06D7                            l2357 06B5  
                          l2349 069B                            l1663 056F                            l1671 057E  
                          l1727 03CA                            l1719 03BC                            l1751 047C  
                          l1743 045C                            l1735 045A                            l1807 04CC  
                          l1831 0542                            l1823 0529                            l1815 051F  
                          l2367 06DC                            l2359 06BD                            l2391 05C4  
                          l1681 058F                            l1673 0582                            l1665 0570  
                          l1657 055F                            l1841 041D                            l1729 0389  
                          l1753 0481                            l1745 0462                            l1737 045A  
                          l1809 04D0                            l1833 054F                            l1825 052F  
                          l2369 06E6                            l2393 05CB                            l2385 05A7  
                          l1691 059B                            l1683 0592                            l1675 0587  
                          l1667 0574                            l1659 0565                            l1851 042A  
                          l1843 0420                            l1747 0468                            l1771 04F1  
                          l1763 04DC                            l1755 04D8                            l1835 0554  
                          l1827 0535                            l1819 0520                            l2395 05D0  
                          l2387 05BA                            l1693 059F                            l1685 0593  
                          l1677 0588                            l1669 057A                            l1861 0381  
                          l1853 042E                            l1845 0422                            l1749 046F  
                          l1781 0514                            l1773 04F7                            l1765 04E0  
                          l1757 04DA                            l1837 0558                            l1829 053B  
                          l2397 05D4                            l2389 05C0                            l1687 0597  
                          l1679 058A                            l1695 0434                            l1855 0430  
                          l1847 0424                            l1839 0418                            l1871 036E  
                          l1863 034C                            l1791 0498                            l1783 0494  
                          l1775 04FE                            l1767 04E6                            l1759 04DB  
                          l2399 05DB                            l1689 059A                            l1697 0438  
                          l1857 037D                            l1849 0428                            l1873 0372  
                          l1881 0356                            l1865 0368                            l1961 06EE  
                          l1793 049C                            l1785 0496                            l1777 050B  
                          l1769 04EC                            l1699 043C                            l1859 0380  
                          l1875 0375                            l1883 0359                            l1867 036B  
                          l1971 06F6                            l1963 06F0                            l1795 04A3  
                          l1787 0497                            l1779 0510                            l1877 0376  
                          l1885 035A                            l1869 036C                            l1981 0723  
                          l1973 06F9                            l1965 06F1                            l1797 04A8  
                          l1879 0377                            l1887 035B                            l1983 072A  
                          l1975 0700                            l1967 06F3                            l1959 06EE  
                          l1799 04AD                            l1985 0737                            l1977 0706  
                          l1969 06F5                            l1995 0742                            l1979 071D  
                          l1987 073C                            l1997 074A                            l1989 0741  
                          l1999 0750                            u1000 03A3                            u1001 03A2  
                          u1010 03ED                            u1011 03EC                            u1020 0405  
                          u1021 0404                            u1400 0635                            u1401 0634  
                          u1410 063A                            u1411 0639                            u1500 06DC  
                          u1420 065B                            u1501 06DB                            u1421 065A  
                          _LATA 010C                            u1430 0660                            u1510 05C0  
                          _LATB 010D                            u1431 065F                            u1511 05BF  
                          _LATC 010E                            u1440 0665                            u1520 05CB  
                          u1441 0664                            u1521 05CA                            _LATE 0110  
                          u1450 0686                            u1530 05D0                            u1451 0685  
                          u1531 05CF                            u1460 068B                            u1380 060F  
                          u1540 05DB                            u1461 068A                            u1381 060E  
                          u1541 05DA                            u1470 069B                            u1390 0630  
                          u1550 05E4                            u1471 069A                            u1391 062F  
                          u1551 05E3                            u1480 06B2                            u1560 05EE  
                          u1481 06B1                            u1561 05ED                            u1490 06D7  
                          u1570 05F7                            u1491 06D6                            u1571 05F6  
                          _PLLR 04D6                            _TMR2 001A                            _TMR6 041C  
                          _WPUB 020D                            _WPUE 0210                            _fACC 0026  
                          _fDRL 002C                            _fPOS 002B                            _main 05A7  
                          _mode 0030                            _todo 034B                            fsr0h 0005  
                          indf0 0000                            fsr0l 0004                            btemp 007E  
                   LED_SET@data 0076                    _PWM_SendData 0433                            start 0002  
               _PWM5_Initialize 0372           PWM_SendData@InputData 0070   __end_of_OSCILLATOR_Initialize 0389  
                         ?_main 0070                           ?_todo 0070                           _T2CON 001C  
                         _T6CON 041E                           _TRISA 008C                           _TRISB 008D  
                         _TRISC 008E                           _TRISE 0090                           _Timer 055F  
                         _fTurn 002E                  _WDT_Initialize 034C                           status 0003  
                         wtemp0 007E                __end_of_Delay_ms 03E8                 __initialization 07F5  
                  __end_of_main 05FD                    __end_of_todo 034C         __end_of_TMR2_Initialize 035E  
                        ??_main 007E      Streamer_SEG1_OFF@InputData 007A                          ??_todo 007E  
                     ??_LED_OFF 0079                       ??_LED_SET 0074            _LED_SET_Gradually_ON 0459  
        __end_of_WDT_Initialize 0350               __end_of_DRL_Light 0400                 _TMR6_Initialize 0368  
                        ?_Timer 0070                          _CCPR5H 031D                          _CCPR5L 031C  
                        _APFCON 011D                          _ANSELA 018C                          _ANSELB 018D  
                        _BORCON 0116                          _LED_ON 035E         __end_of_PWM5_Initialize 037D  
                        _OSCCON 0099                          _TMR2IF 0089                          _WDTCON 0097  
                  _CCPTMRS1bits 029F               __end_of_POS_Light 0418           ?_LED_SET_Gradually_ON 0070  
               ?_WDT_Initialize 0070               __end_of_CheckGPIO 03A8               _SYSTEM_Initialize 03A8  
       __end_of__initialization 07FD              ?_SYSTEM_Initialize 0070                  __pcstackCOMMON 0070  
                 __end_of_Timer 05A7             ??_SYSTEM_Initialize 0070                ?_TMR2_Initialize 0070  
       __end_of_TMR6_Initialize 0372                  _OPTION_REGbits 0095                       ?_Delay_ms 0071  
                       ??_Timer 0070                      TrunLight@j 0032       __end_of_SYSTEM_Initialize 03BB  
                    __pbssBANK0 0020                         ?_LED_ON 0070                ?_PWM5_Initialize 0070  
                    __pmaintext 05A7                         _CCP5CON 031E               __end_of_TrunLight 07F5  
        ??_LED_SET_Gradually_ON 0079                         _LED_OFF 0389                         _LED_SET 03BB  
                    ??_Delay_ms 0073                         _OSCTUNE 0098                  LED_SET@LED_num 0075  
                       _fLoBeam 0027                _Streamer_SEG1_ON 04D7                _Streamer_SEG2_ON 051B  
                 ?_WelcomeLight 0070                ?_TMR6_Initialize 0070                         __ptext1 034B  
                       __ptext2 05FD                         __ptext3 051B                         __ptext4 04D7  
                       __ptext5 0493                         __ptext6 0459                         __ptext7 06EC  
                       __ptext8 0389                         __ptext9 03A8           _OSCILLATOR_Initialize 037D  
          Streamer_SEG1_OFF@num 007C        ??_PIN_MANAGER_Initialize 0070            Streamer_SEG1_ON@data 007B  
                 TrunLight@data 0033                         clrloop0 0351            Streamer_SEG2_ON@data 007B  
              _T1MS_disable_cnt 0024            end_of_initialization 07FD                       _DRL_Light 03E8  
                ??_WelcomeLight 007E       Streamer_SEG1_ON@InputData 007A                ??_WDT_Initialize 0070  
                     _PORTAbits 000C                       _PORTBbits 000D                       _PORTCbits 000E  
                     _POS_Light 0400                      ?_DRL_Light 0070                       _CheckGPIO 0396  
                __end_of_LED_ON 0368                      LED_ON@data 007A                      LED_SET@num 0077  
        ?_OSCILLATOR_Initialize 0070                      ?_POS_Light 0070             start_initialization 07F5  
                      ??_LED_ON 0079                      ?_CheckGPIO 0070                   ?_PWM_SendData 0070  
                   _T100us_cnt1 0029       Streamer_SEG2_ON@InputData 007A                        ?_LED_OFF 0070  
                      ?_LED_SET 0073                       _TrunLight 06EC                       ___latbits 0002  
                      LED_SET@i 0078                   __pcstackBANK0 0031        __end_of_Streamer_SEG1_ON 051B  
      __end_of_Streamer_SEG2_ON 055F            __end_of_WelcomeLight 06EC                     ??_DRL_Light 007B  
                ??_PWM_SendData 0070          _PIN_MANAGER_Initialize 0418                LED_SET@InputData 0073  
                   ??_POS_Light 007B                      ?_TrunLight 0070                     ??_CheckGPIO 0070  
           Streamer_SEG1_ON@num 007C                        _T1MS_cnt 0020                        _LATBbits 010D  
                      _LATCbits 010E                Delay_ms@input_ms 0071             Streamer_SEG2_ON@num 007C  
                     clear_ram0 0350                        _T5MS_cnt 0028           WelcomeLight@InputData 0070  
                      _PIR1bits 0011                        _PIR3bits 0013                        _Delay_ms 03D1  
                    _T250MS_cnt 002F               ??_TMR2_Initialize 0070             PWM_SendData@bitmask 0072  
         LED_SET_Gradually_ON@j 007B                      _T100us_cnt 002A               _Streamer_SEG1_OFF 0493  
       ??_OSCILLATOR_Initialize 0070                 LED_ON@InputData 0079              ?_Streamer_SEG1_OFF 0070  
             ??_PWM5_Initialize 0070                        _fWelcome 002D            __end_of_PWM_SendData 0459  
           ??_Streamer_SEG1_OFF 0079                     ??_TrunLight 0079                        __ptext10 034C  
                      __ptext11 0368                        __ptext20 0433                        __ptext12 0356  
                      __ptext21 03D1                        __ptext13 0372                        __ptext22 055F  
                      __ptext14 0418                        __ptext23 0396                        __ptext15 037D  
                      __ptext16 0400                        __ptext17 03E8                        __ptext18 035E  
                      __ptext19 03BB              Streamer_SEG1_OFF@j 007D           Streamer_SEG1_OFF@data 007B  
     __end_of_Streamer_SEG1_OFF 04D7                    _WelcomeLight 05FD   LED_SET_Gradually_ON@InputData 007A  
                    Delay_ms@ms 0073               ?_Streamer_SEG1_ON 0070               ?_Streamer_SEG2_ON 0070  
            ??_Streamer_SEG1_ON 0079              ??_Streamer_SEG2_ON 0079         ?_PIN_MANAGER_Initialize 0070  
             ??_TMR6_Initialize 0070               Streamer_SEG1_ON@j 007D               Streamer_SEG2_ON@j 007D  
            TrunLight@InputData 0031                PWM_SendData@data 0071  __end_of_PIN_MANAGER_Initialize 0433  
  __end_of_LED_SET_Gradually_ON 0493  
